
frdmk22f_hello_world.axf:     file format elf32-littlearm


Disassembly of section .text:

00000000 <__Vectors>:
       0:	20010000 	andcs	r0, r1, r0
       4:	00000191 	muleq	r0, r1, r1
       8:	0000020d 	andeq	r0, r0, sp, lsl #4
       c:	00002b25 	andeq	r2, r0, r5, lsr #22
      10:	00000211 	andeq	r0, r0, r1, lsl r2
      14:	00000213 	andeq	r0, r0, r3, lsl r2
      18:	00000215 	andeq	r0, r0, r5, lsl r2
	...
      2c:	00000217 	andeq	r0, r0, r7, lsl r2
      30:	00000219 	andeq	r0, r0, r9, lsl r2
      34:	00000000 	andeq	r0, r0, r0
      38:	0000021b 	andeq	r0, r0, fp, lsl r2
      3c:	0000021d 	andeq	r0, r0, sp, lsl r2
      40:	000028d5 	ldrdeq	r2, [r0], -r5
      44:	000028dd 	ldrdeq	r2, [r0], -sp
      48:	000028e5 	andeq	r2, r0, r5, ror #17
      4c:	000028ed 	andeq	r2, r0, sp, ror #17
      50:	000028f5 	strdeq	r2, [r0], -r5
      54:	000028fd 	strdeq	r2, [r0], -sp
      58:	00002905 	andeq	r2, r0, r5, lsl #18
      5c:	0000290d 	andeq	r2, r0, sp, lsl #18
      60:	00002915 	andeq	r2, r0, r5, lsl r9
      64:	0000291d 	andeq	r2, r0, sp, lsl r9
      68:	00002925 	andeq	r2, r0, r5, lsr #18
      6c:	0000292d 	andeq	r2, r0, sp, lsr #18
      70:	00002935 	andeq	r2, r0, r5, lsr r9
      74:	0000293d 	andeq	r2, r0, sp, lsr r9
      78:	00002945 	andeq	r2, r0, r5, asr #18
      7c:	0000294d 	andeq	r2, r0, sp, asr #18
      80:	00002955 	andeq	r2, r0, r5, asr r9
      84:	0000295d 	andeq	r2, r0, sp, asr r9
      88:	00002965 	andeq	r2, r0, r5, ror #18
      8c:	0000296d 	andeq	r2, r0, sp, ror #18
      90:	00002975 	andeq	r2, r0, r5, ror r9
      94:	0000297d 	andeq	r2, r0, sp, ror r9
      98:	00002985 	andeq	r2, r0, r5, lsl #19
      9c:	0000298d 	andeq	r2, r0, sp, lsl #19
      a0:	00002995 	muleq	r0, r5, r9
      a4:	0000299d 	muleq	r0, sp, r9
      a8:	000029a5 	andeq	r2, r0, r5, lsr #19
      ac:	000029ad 	andeq	r2, r0, sp, lsr #19
      b0:	000029b5 			; <UNDEFINED> instruction: 0x000029b5
      b4:	000029bd 			; <UNDEFINED> instruction: 0x000029bd
      b8:	000029c5 	andeq	r2, r0, r5, asr #19
      bc:	000029cd 	andeq	r2, r0, sp, asr #19
      c0:	000029d5 	ldrdeq	r2, [r0], -r5
      c4:	000029dd 	ldrdeq	r2, [r0], -sp
      c8:	000029e5 	andeq	r2, r0, r5, ror #19
      cc:	000029ed 	andeq	r2, r0, sp, ror #19
      d0:	000029f5 	strdeq	r2, [r0], -r5
      d4:	000029fd 	strdeq	r2, [r0], -sp
      d8:	00002a05 	andeq	r2, r0, r5, lsl #20
      dc:	00002a0d 	andeq	r2, r0, sp, lsl #20
      e0:	00002a15 	andeq	r2, r0, r5, lsl sl
      e4:	00002a1d 	andeq	r2, r0, sp, lsl sl
      e8:	00002a25 	andeq	r2, r0, r5, lsr #20
      ec:	00002a2d 	andeq	r2, r0, sp, lsr #20
      f0:	00002a35 	andeq	r2, r0, r5, lsr sl
      f4:	00002a3d 	andeq	r2, r0, sp, lsr sl
      f8:	00002a45 	andeq	r2, r0, r5, asr #20
      fc:	00002a4d 	andeq	r2, r0, sp, asr #20
     100:	00002a55 	andeq	r2, r0, r5, asr sl
     104:	00002a5d 	andeq	r2, r0, sp, asr sl
     108:	00002a65 	andeq	r2, r0, r5, ror #20
     10c:	00002a6d 	andeq	r2, r0, sp, ror #20
     110:	00002a75 	andeq	r2, r0, r5, ror sl
     114:	00002a7d 	andeq	r2, r0, sp, ror sl
     118:	00002a85 	andeq	r2, r0, r5, lsl #21
     11c:	00002a8d 	andeq	r2, r0, sp, lsl #21
     120:	00002a95 	muleq	r0, r5, sl
     124:	00002a9d 	muleq	r0, sp, sl
     128:	00002aa5 	andeq	r2, r0, r5, lsr #21
     12c:	00002aad 	andeq	r2, r0, sp, lsr #21
     130:	00002ab5 			; <UNDEFINED> instruction: 0x00002ab5
     134:	00002abd 			; <UNDEFINED> instruction: 0x00002abd
     138:	00002ac5 	andeq	r2, r0, r5, asr #21
     13c:	00002acd 	andeq	r2, r0, sp, asr #21
     140:	00002ad5 	ldrdeq	r2, [r0], -r5
     144:	00002add 	ldrdeq	r2, [r0], -sp
     148:	00002ae5 	andeq	r2, r0, r5, ror #21
     14c:	00002aed 	andeq	r2, r0, sp, ror #21
     150:	00002af5 	strdeq	r2, [r0], -r5
     154:	00002afd 	strdeq	r2, [r0], -sp
     158:	00002b05 	andeq	r2, r0, r5, lsl #22
     15c:	00002b0d 	andeq	r2, r0, sp, lsl #22
     160:	00002b15 	andeq	r2, r0, r5, lsl fp
     164:	00002b1d 	andeq	r2, r0, sp, lsl fp

00000168 <__data_section_table>:
     168:	00003de4 	andeq	r3, r0, r4, ror #27
     16c:	20000000 	andcs	r0, r0, r0
     170:	0000000c 	andeq	r0, r0, ip
     174:	00003de4 	andeq	r3, r0, r4, ror #27
     178:	1fff0000 	svcne	0x00ff0000
     17c:	00000000 	andeq	r0, r0, r0

00000180 <__bss_section_table>:
     180:	2000000c 	andcs	r0, r0, ip
     184:	000000e8 	andeq	r0, r0, r8, ror #1
     188:	1fff0000 	svcne	0x00ff0000
     18c:	00000000 	andeq	r0, r0, r0

00000190 <ResetISR>:
     190:	b510      	push	{r4, lr}
     192:	b672      	cpsid	i
     194:	f001 f9f0 	bl	1578 <SystemInit>
     198:	4b0d      	ldr	r3, [pc, #52]	; (1d0 <ResetISR+0x40>)
     19a:	e007      	b.n	1ac <ResetISR+0x1c>
     19c:	f103 040c 	add.w	r4, r3, #12
     1a0:	689a      	ldr	r2, [r3, #8]
     1a2:	6859      	ldr	r1, [r3, #4]
     1a4:	6818      	ldr	r0, [r3, #0]
     1a6:	f000 f819 	bl	1dc <data_init>
     1aa:	4623      	mov	r3, r4
     1ac:	4a09      	ldr	r2, [pc, #36]	; (1d4 <ResetISR+0x44>)
     1ae:	4293      	cmp	r3, r2
     1b0:	d3f4      	bcc.n	19c <ResetISR+0xc>
     1b2:	e006      	b.n	1c2 <ResetISR+0x32>
     1b4:	461c      	mov	r4, r3
     1b6:	6859      	ldr	r1, [r3, #4]
     1b8:	f854 0b08 	ldr.w	r0, [r4], #8
     1bc:	f000 f81d 	bl	1fa <bss_init>
     1c0:	4623      	mov	r3, r4
     1c2:	4a05      	ldr	r2, [pc, #20]	; (1d8 <ResetISR+0x48>)
     1c4:	4293      	cmp	r3, r2
     1c6:	d3f5      	bcc.n	1b4 <ResetISR+0x24>
     1c8:	b662      	cpsie	i
     1ca:	f002 fd8c 	bl	2ce6 <__main>
     1ce:	e7fe      	b.n	1ce <ResetISR+0x3e>
     1d0:	00000168 	andeq	r0, r0, r8, ror #2
     1d4:	00000180 	andeq	r0, r0, r0, lsl #3
     1d8:	00000190 	muleq	r0, r0, r1

000001dc <data_init>:
     1dc:	2300      	movs	r3, #0
     1de:	4293      	cmp	r3, r2
     1e0:	d20a      	bcs.n	1f8 <data_init+0x1c>
     1e2:	b410      	push	{r4}
     1e4:	6804      	ldr	r4, [r0, #0]
     1e6:	600c      	str	r4, [r1, #0]
     1e8:	3304      	adds	r3, #4
     1ea:	3004      	adds	r0, #4
     1ec:	3104      	adds	r1, #4
     1ee:	4293      	cmp	r3, r2
     1f0:	d3f8      	bcc.n	1e4 <data_init+0x8>
     1f2:	f85d 4b04 	ldr.w	r4, [sp], #4
     1f6:	4770      	bx	lr
     1f8:	4770      	bx	lr

000001fa <bss_init>:
     1fa:	2300      	movs	r3, #0
     1fc:	e003      	b.n	206 <bss_init+0xc>
     1fe:	2200      	movs	r2, #0
     200:	6002      	str	r2, [r0, #0]
     202:	3304      	adds	r3, #4
     204:	3004      	adds	r0, #4
     206:	428b      	cmp	r3, r1
     208:	d3f9      	bcc.n	1fe <bss_init+0x4>
     20a:	4770      	bx	lr

0000020c <NMI_Handler>:
     20c:	e7fe      	b.n	20c <NMI_Handler>
     20e:	e7fe      	b.n	20e <NMI_Handler+0x2>

00000210 <MemManage_Handler>:
     210:	e7fe      	b.n	210 <MemManage_Handler>

00000212 <BusFault_Handler>:
     212:	e7fe      	b.n	212 <BusFault_Handler>

00000214 <UsageFault_Handler>:
     214:	e7fe      	b.n	214 <UsageFault_Handler>

00000216 <SVC_Handler>:
     216:	e7fe      	b.n	216 <SVC_Handler>

00000218 <DebugMon_Handler>:
     218:	e7fe      	b.n	218 <DebugMon_Handler>

0000021a <PendSV_Handler>:
     21a:	e7fe      	b.n	21a <PendSV_Handler>

0000021c <SysTick_Handler>:
     21c:	e7fe      	b.n	21c <SysTick_Handler>

0000021e <ADC0_DriverIRQHandler>:
     21e:	e7fe      	b.n	21e <ADC0_DriverIRQHandler>
     220:	ffff ffff 			; <UNDEFINED> instruction: 0xffffffff
     224:	ffff ffff 			; <UNDEFINED> instruction: 0xffffffff
     228:	ffff ffff 			; <UNDEFINED> instruction: 0xffffffff
     22c:	ffff ffff 			; <UNDEFINED> instruction: 0xffffffff
     230:	ffff ffff 			; <UNDEFINED> instruction: 0xffffffff
     234:	ffff ffff 			; <UNDEFINED> instruction: 0xffffffff
     238:	ffff ffff 			; <UNDEFINED> instruction: 0xffffffff
     23c:	ffff ffff 			; <UNDEFINED> instruction: 0xffffffff
     240:	ffff ffff 			; <UNDEFINED> instruction: 0xffffffff
     244:	ffff ffff 			; <UNDEFINED> instruction: 0xffffffff
     248:	ffff ffff 			; <UNDEFINED> instruction: 0xffffffff
     24c:	ffff ffff 			; <UNDEFINED> instruction: 0xffffffff
     250:	ffff ffff 			; <UNDEFINED> instruction: 0xffffffff
     254:	ffff ffff 			; <UNDEFINED> instruction: 0xffffffff
     258:	ffff ffff 			; <UNDEFINED> instruction: 0xffffffff
     25c:	ffff ffff 			; <UNDEFINED> instruction: 0xffffffff
     260:	ffff ffff 			; <UNDEFINED> instruction: 0xffffffff
     264:	ffff ffff 			; <UNDEFINED> instruction: 0xffffffff
     268:	ffff ffff 			; <UNDEFINED> instruction: 0xffffffff
     26c:	ffff ffff 			; <UNDEFINED> instruction: 0xffffffff
     270:	ffff ffff 			; <UNDEFINED> instruction: 0xffffffff
     274:	ffff ffff 			; <UNDEFINED> instruction: 0xffffffff
     278:	ffff ffff 			; <UNDEFINED> instruction: 0xffffffff
     27c:	ffff ffff 			; <UNDEFINED> instruction: 0xffffffff
     280:	ffff ffff 			; <UNDEFINED> instruction: 0xffffffff
     284:	ffff ffff 			; <UNDEFINED> instruction: 0xffffffff
     288:	ffff ffff 			; <UNDEFINED> instruction: 0xffffffff
     28c:	ffff ffff 			; <UNDEFINED> instruction: 0xffffffff
     290:	ffff ffff 			; <UNDEFINED> instruction: 0xffffffff
     294:	ffff ffff 			; <UNDEFINED> instruction: 0xffffffff
     298:	ffff ffff 			; <UNDEFINED> instruction: 0xffffffff
     29c:	ffff ffff 			; <UNDEFINED> instruction: 0xffffffff
     2a0:	ffff ffff 			; <UNDEFINED> instruction: 0xffffffff
     2a4:	ffff ffff 			; <UNDEFINED> instruction: 0xffffffff
     2a8:	ffff ffff 			; <UNDEFINED> instruction: 0xffffffff
     2ac:	ffff ffff 			; <UNDEFINED> instruction: 0xffffffff
     2b0:	ffff ffff 			; <UNDEFINED> instruction: 0xffffffff
     2b4:	ffff ffff 			; <UNDEFINED> instruction: 0xffffffff
     2b8:	ffff ffff 			; <UNDEFINED> instruction: 0xffffffff
     2bc:	ffff ffff 			; <UNDEFINED> instruction: 0xffffffff
     2c0:	ffff ffff 			; <UNDEFINED> instruction: 0xffffffff
     2c4:	ffff ffff 			; <UNDEFINED> instruction: 0xffffffff
     2c8:	ffff ffff 			; <UNDEFINED> instruction: 0xffffffff
     2cc:	ffff ffff 			; <UNDEFINED> instruction: 0xffffffff
     2d0:	ffff ffff 			; <UNDEFINED> instruction: 0xffffffff
     2d4:	ffff ffff 			; <UNDEFINED> instruction: 0xffffffff
     2d8:	ffff ffff 			; <UNDEFINED> instruction: 0xffffffff
     2dc:	ffff ffff 			; <UNDEFINED> instruction: 0xffffffff
     2e0:	ffff ffff 			; <UNDEFINED> instruction: 0xffffffff
     2e4:	ffff ffff 			; <UNDEFINED> instruction: 0xffffffff
     2e8:	ffff ffff 			; <UNDEFINED> instruction: 0xffffffff
     2ec:	ffff ffff 			; <UNDEFINED> instruction: 0xffffffff
     2f0:	ffff ffff 			; <UNDEFINED> instruction: 0xffffffff
     2f4:	ffff ffff 			; <UNDEFINED> instruction: 0xffffffff
     2f8:	ffff ffff 			; <UNDEFINED> instruction: 0xffffffff
     2fc:	ffff ffff 			; <UNDEFINED> instruction: 0xffffffff
     300:	ffff ffff 			; <UNDEFINED> instruction: 0xffffffff
     304:	ffff ffff 			; <UNDEFINED> instruction: 0xffffffff
     308:	ffff ffff 			; <UNDEFINED> instruction: 0xffffffff
     30c:	ffff ffff 			; <UNDEFINED> instruction: 0xffffffff
     310:	ffff ffff 			; <UNDEFINED> instruction: 0xffffffff
     314:	ffff ffff 			; <UNDEFINED> instruction: 0xffffffff
     318:	ffff ffff 			; <UNDEFINED> instruction: 0xffffffff
     31c:	ffff ffff 			; <UNDEFINED> instruction: 0xffffffff
     320:	ffff ffff 			; <UNDEFINED> instruction: 0xffffffff
     324:	ffff ffff 			; <UNDEFINED> instruction: 0xffffffff
     328:	ffff ffff 			; <UNDEFINED> instruction: 0xffffffff
     32c:	ffff ffff 			; <UNDEFINED> instruction: 0xffffffff
     330:	ffff ffff 			; <UNDEFINED> instruction: 0xffffffff
     334:	ffff ffff 			; <UNDEFINED> instruction: 0xffffffff
     338:	ffff ffff 			; <UNDEFINED> instruction: 0xffffffff
     33c:	ffff ffff 			; <UNDEFINED> instruction: 0xffffffff
     340:	ffff ffff 			; <UNDEFINED> instruction: 0xffffffff
     344:	ffff ffff 			; <UNDEFINED> instruction: 0xffffffff
     348:	ffff ffff 			; <UNDEFINED> instruction: 0xffffffff
     34c:	ffff ffff 			; <UNDEFINED> instruction: 0xffffffff
     350:	ffff ffff 			; <UNDEFINED> instruction: 0xffffffff
     354:	ffff ffff 			; <UNDEFINED> instruction: 0xffffffff
     358:	ffff ffff 			; <UNDEFINED> instruction: 0xffffffff
     35c:	ffff ffff 			; <UNDEFINED> instruction: 0xffffffff
     360:	ffff ffff 			; <UNDEFINED> instruction: 0xffffffff
     364:	ffff ffff 			; <UNDEFINED> instruction: 0xffffffff
     368:	ffff ffff 			; <UNDEFINED> instruction: 0xffffffff
     36c:	ffff ffff 			; <UNDEFINED> instruction: 0xffffffff
     370:	ffff ffff 			; <UNDEFINED> instruction: 0xffffffff
     374:	ffff ffff 			; <UNDEFINED> instruction: 0xffffffff
     378:	ffff ffff 			; <UNDEFINED> instruction: 0xffffffff
     37c:	ffff ffff 			; <UNDEFINED> instruction: 0xffffffff
     380:	ffff ffff 			; <UNDEFINED> instruction: 0xffffffff
     384:	ffff ffff 			; <UNDEFINED> instruction: 0xffffffff
     388:	ffff ffff 			; <UNDEFINED> instruction: 0xffffffff
     38c:	ffff ffff 			; <UNDEFINED> instruction: 0xffffffff
     390:	ffff ffff 			; <UNDEFINED> instruction: 0xffffffff
     394:	ffff ffff 			; <UNDEFINED> instruction: 0xffffffff
     398:	ffff ffff 			; <UNDEFINED> instruction: 0xffffffff
     39c:	ffff ffff 			; <UNDEFINED> instruction: 0xffffffff
     3a0:	ffff ffff 			; <UNDEFINED> instruction: 0xffffffff
     3a4:	ffff ffff 			; <UNDEFINED> instruction: 0xffffffff
     3a8:	ffff ffff 			; <UNDEFINED> instruction: 0xffffffff
     3ac:	ffff ffff 			; <UNDEFINED> instruction: 0xffffffff
     3b0:	ffff ffff 			; <UNDEFINED> instruction: 0xffffffff
     3b4:	ffff ffff 			; <UNDEFINED> instruction: 0xffffffff
     3b8:	ffff ffff 			; <UNDEFINED> instruction: 0xffffffff
     3bc:	ffff ffff 			; <UNDEFINED> instruction: 0xffffffff
     3c0:	ffff ffff 			; <UNDEFINED> instruction: 0xffffffff
     3c4:	ffff ffff 			; <UNDEFINED> instruction: 0xffffffff
     3c8:	ffff ffff 			; <UNDEFINED> instruction: 0xffffffff
     3cc:	ffff ffff 			; <UNDEFINED> instruction: 0xffffffff
     3d0:	ffff ffff 			; <UNDEFINED> instruction: 0xffffffff
     3d4:	ffff ffff 			; <UNDEFINED> instruction: 0xffffffff
     3d8:	ffff ffff 			; <UNDEFINED> instruction: 0xffffffff
     3dc:	ffff ffff 			; <UNDEFINED> instruction: 0xffffffff
     3e0:	ffff ffff 			; <UNDEFINED> instruction: 0xffffffff
     3e4:	ffff ffff 			; <UNDEFINED> instruction: 0xffffffff
     3e8:	ffff ffff 			; <UNDEFINED> instruction: 0xffffffff
     3ec:	ffff ffff 			; <UNDEFINED> instruction: 0xffffffff
     3f0:	ffff ffff 			; <UNDEFINED> instruction: 0xffffffff
     3f4:	ffff ffff 			; <UNDEFINED> instruction: 0xffffffff
     3f8:	ffff ffff 			; <UNDEFINED> instruction: 0xffffffff
     3fc:	ffff ffff 			; <UNDEFINED> instruction: 0xffffffff

00000400 <Flash_Config>:
     400:	ffffffff 			; <UNDEFINED> instruction: 0xffffffff
     404:	ffffffff 			; <UNDEFINED> instruction: 0xffffffff
     408:	ffffffff 			; <UNDEFINED> instruction: 0xffffffff
     40c:	fffffffe 			; <UNDEFINED> instruction: 0xfffffffe

00000410 <DbgConsole_Init>:
     410:	b580      	push	{r7, lr}
     412:	b084      	sub	sp, #16
     414:	af00      	add	r7, sp, #0
     416:	60f8      	str	r0, [r7, #12]
     418:	60b9      	str	r1, [r7, #8]
     41a:	603b      	str	r3, [r7, #0]
     41c:	4613      	mov	r3, r2
     41e:	71fb      	strb	r3, [r7, #7]
     420:	79fb      	ldrb	r3, [r7, #7]
     422:	2b00      	cmp	r3, #0
     424:	d102      	bne.n	42c <DbgConsole_Init+0x1c>
     426:	4807      	ldr	r0, [pc, #28]	; (444 <DbgConsole_Init+0x34>)
     428:	f001 f8c4 	bl	15b4 <__assertion_failed>
     42c:	79f9      	ldrb	r1, [r7, #7]
     42e:	683b      	ldr	r3, [r7, #0]
     430:	68ba      	ldr	r2, [r7, #8]
     432:	68f8      	ldr	r0, [r7, #12]
     434:	f002 fa36 	bl	28a4 <LOG_Init>
     438:	4603      	mov	r3, r0
     43a:	4618      	mov	r0, r3
     43c:	3710      	adds	r7, #16
     43e:	46bd      	mov	sp, r7
     440:	bd80      	pop	{r7, pc}
     442:	bf00      	nop
     444:	00003144 	andeq	r3, r0, r4, asr #2

00000448 <IO_Init>:
     448:	b580      	push	{r7, lr}
     44a:	b08c      	sub	sp, #48	; 0x30
     44c:	af00      	add	r7, sp, #0
     44e:	60f8      	str	r0, [r7, #12]
     450:	60b9      	str	r1, [r7, #8]
     452:	607a      	str	r2, [r7, #4]
     454:	603b      	str	r3, [r7, #0]
     456:	68fb      	ldr	r3, [r7, #12]
     458:	2b00      	cmp	r3, #0
     45a:	d102      	bne.n	462 <IO_Init+0x1a>
     45c:	4827      	ldr	r0, [pc, #156]	; (4fc <IO_Init+0xb4>)
     45e:	f001 f8a9 	bl	15b4 <__assertion_failed>
     462:	68fb      	ldr	r3, [r7, #12]
     464:	791a      	ldrb	r2, [r3, #4]
     466:	4b26      	ldr	r3, [pc, #152]	; (500 <IO_Init+0xb8>)
     468:	711a      	strb	r2, [r3, #4]
     46a:	68fb      	ldr	r3, [r7, #12]
     46c:	681b      	ldr	r3, [r3, #0]
     46e:	4a24      	ldr	r2, [pc, #144]	; (500 <IO_Init+0xb8>)
     470:	6013      	str	r3, [r2, #0]
     472:	4b23      	ldr	r3, [pc, #140]	; (500 <IO_Init+0xb8>)
     474:	791b      	ldrb	r3, [r3, #4]
     476:	2b02      	cmp	r3, #2
     478:	d020      	beq.n	4bc <IO_Init+0x74>
     47a:	2b06      	cmp	r3, #6
     47c:	d002      	beq.n	484 <IO_Init+0x3c>
     47e:	2b01      	cmp	r3, #1
     480:	d000      	beq.n	484 <IO_Init+0x3c>
     482:	e037      	b.n	4f4 <IO_Init+0xac>
     484:	f107 0324 	add.w	r3, r7, #36	; 0x24
     488:	4618      	mov	r0, r3
     48a:	f000 ff65 	bl	1358 <UART_GetDefaultConfig>
     48e:	68bb      	ldr	r3, [r7, #8]
     490:	627b      	str	r3, [r7, #36]	; 0x24
     492:	4b1b      	ldr	r3, [pc, #108]	; (500 <IO_Init+0xb8>)
     494:	681b      	ldr	r3, [r3, #0]
     496:	f107 0124 	add.w	r1, r7, #36	; 0x24
     49a:	687a      	ldr	r2, [r7, #4]
     49c:	4618      	mov	r0, r3
     49e:	f000 fe1b 	bl	10d8 <UART_Init>
     4a2:	4b17      	ldr	r3, [pc, #92]	; (500 <IO_Init+0xb8>)
     4a4:	681b      	ldr	r3, [r3, #0]
     4a6:	2101      	movs	r1, #1
     4a8:	4618      	mov	r0, r3
     4aa:	f002 f983 	bl	27b4 <UART_EnableTx>
     4ae:	4b14      	ldr	r3, [pc, #80]	; (500 <IO_Init+0xb8>)
     4b0:	681b      	ldr	r3, [r3, #0]
     4b2:	2101      	movs	r1, #1
     4b4:	4618      	mov	r0, r3
     4b6:	f002 f99d 	bl	27f4 <UART_EnableRx>
     4ba:	e01b      	b.n	4f4 <IO_Init+0xac>
     4bc:	f107 0314 	add.w	r3, r7, #20
     4c0:	4618      	mov	r0, r3
     4c2:	f000 fd93 	bl	fec <LPUART_GetDefaultConfig>
     4c6:	68bb      	ldr	r3, [r7, #8]
     4c8:	617b      	str	r3, [r7, #20]
     4ca:	4b0d      	ldr	r3, [pc, #52]	; (500 <IO_Init+0xb8>)
     4cc:	681b      	ldr	r3, [r3, #0]
     4ce:	f107 0114 	add.w	r1, r7, #20
     4d2:	687a      	ldr	r2, [r7, #4]
     4d4:	4618      	mov	r0, r3
     4d6:	f000 fc41 	bl	d5c <LPUART_Init>
     4da:	4b09      	ldr	r3, [pc, #36]	; (500 <IO_Init+0xb8>)
     4dc:	681b      	ldr	r3, [r3, #0]
     4de:	2101      	movs	r1, #1
     4e0:	4618      	mov	r0, r3
     4e2:	f002 f9a7 	bl	2834 <LPUART_EnableTx>
     4e6:	4b06      	ldr	r3, [pc, #24]	; (500 <IO_Init+0xb8>)
     4e8:	681b      	ldr	r3, [r3, #0]
     4ea:	2101      	movs	r1, #1
     4ec:	4618      	mov	r0, r3
     4ee:	f002 f9bd 	bl	286c <LPUART_EnableRx>
     4f2:	bf00      	nop
     4f4:	bf00      	nop
     4f6:	3730      	adds	r7, #48	; 0x30
     4f8:	46bd      	mov	sp, r7
     4fa:	bd80      	pop	{r7, pc}
     4fc:	00003194 	muleq	r0, r4, r1
     500:	2000000c 	andcs	r0, r0, ip

00000504 <main>:
     504:	b580      	push	{r7, lr}
     506:	b082      	sub	sp, #8
     508:	af00      	add	r7, sp, #0
     50a:	f001 f811 	bl	1530 <BOARD_InitPins>
     50e:	f000 ffdf 	bl	14d0 <BOARD_BootClockRUN>
     512:	f000 ff89 	bl	1428 <BOARD_InitDebugConsole>
     516:	4818      	ldr	r0, [pc, #96]	; (578 <main+0x74>)
     518:	f002 f8b6 	bl	2688 <_printf>
     51c:	4b17      	ldr	r3, [pc, #92]	; (57c <main+0x78>)
     51e:	685b      	ldr	r3, [r3, #4]
     520:	3b01      	subs	r3, #1
     522:	4a16      	ldr	r2, [pc, #88]	; (57c <main+0x78>)
     524:	6053      	str	r3, [r2, #4]
     526:	4b15      	ldr	r3, [pc, #84]	; (57c <main+0x78>)
     528:	685b      	ldr	r3, [r3, #4]
     52a:	2b00      	cmp	r3, #0
     52c:	db06      	blt.n	53c <main+0x38>
     52e:	4b13      	ldr	r3, [pc, #76]	; (57c <main+0x78>)
     530:	681b      	ldr	r3, [r3, #0]
     532:	1c5a      	adds	r2, r3, #1
     534:	4911      	ldr	r1, [pc, #68]	; (57c <main+0x78>)
     536:	600a      	str	r2, [r1, #0]
     538:	781b      	ldrb	r3, [r3, #0]
     53a:	e004      	b.n	546 <main+0x42>
     53c:	480f      	ldr	r0, [pc, #60]	; (57c <main+0x78>)
     53e:	f001 f865 	bl	160c <__filbuf>
     542:	4603      	mov	r3, r0
     544:	b2db      	uxtb	r3, r3
     546:	71fb      	strb	r3, [r7, #7]
     548:	4b0c      	ldr	r3, [pc, #48]	; (57c <main+0x78>)
     54a:	6c5b      	ldr	r3, [r3, #68]	; 0x44
     54c:	3b01      	subs	r3, #1
     54e:	4a0b      	ldr	r2, [pc, #44]	; (57c <main+0x78>)
     550:	6453      	str	r3, [r2, #68]	; 0x44
     552:	4b0a      	ldr	r3, [pc, #40]	; (57c <main+0x78>)
     554:	6c5b      	ldr	r3, [r3, #68]	; 0x44
     556:	2b00      	cmp	r3, #0
     558:	db07      	blt.n	56a <main+0x66>
     55a:	4b08      	ldr	r3, [pc, #32]	; (57c <main+0x78>)
     55c:	6bdb      	ldr	r3, [r3, #60]	; 0x3c
     55e:	1c5a      	adds	r2, r3, #1
     560:	4906      	ldr	r1, [pc, #24]	; (57c <main+0x78>)
     562:	63ca      	str	r2, [r1, #60]	; 0x3c
     564:	79fa      	ldrb	r2, [r7, #7]
     566:	701a      	strb	r2, [r3, #0]
     568:	e7d8      	b.n	51c <main+0x18>
     56a:	79fb      	ldrb	r3, [r7, #7]
     56c:	4904      	ldr	r1, [pc, #16]	; (580 <main+0x7c>)
     56e:	4618      	mov	r0, r3
     570:	f002 fbf3 	bl	2d5a <__flsbuf>
     574:	e7d2      	b.n	51c <main+0x18>
     576:	bf00      	nop
     578:	000031bc 			; <UNDEFINED> instruction: 0x000031bc
     57c:	20000034 	andcs	r0, r0, r4, lsr r0
     580:	20000070 	andcs	r0, r0, r0, ror r0

00000584 <CLOCK_SetEr32kClock>:
     584:	b480      	push	{r7}
     586:	b083      	sub	sp, #12
     588:	af00      	add	r7, sp, #0
     58a:	6078      	str	r0, [r7, #4]
     58c:	4b08      	ldr	r3, [pc, #32]	; (5b0 <CLOCK_SetEr32kClock+0x2c>)
     58e:	681b      	ldr	r3, [r3, #0]
     590:	f423 2240 	bic.w	r2, r3, #786432	; 0xc0000
     594:	687b      	ldr	r3, [r7, #4]
     596:	049b      	lsls	r3, r3, #18
     598:	f403 2340 	and.w	r3, r3, #786432	; 0xc0000
     59c:	4904      	ldr	r1, [pc, #16]	; (5b0 <CLOCK_SetEr32kClock+0x2c>)
     59e:	4313      	orrs	r3, r2
     5a0:	600b      	str	r3, [r1, #0]
     5a2:	bf00      	nop
     5a4:	370c      	adds	r7, #12
     5a6:	46bd      	mov	sp, r7
     5a8:	f85d 7b04 	ldr.w	r7, [sp], #4
     5ac:	4770      	bx	lr
     5ae:	bf00      	nop
     5b0:	40047000 	andmi	r7, r4, r0

000005b4 <CLOCK_SetPllFllSelClock>:
     5b4:	b480      	push	{r7}
     5b6:	b083      	sub	sp, #12
     5b8:	af00      	add	r7, sp, #0
     5ba:	6078      	str	r0, [r7, #4]
     5bc:	4b0b      	ldr	r3, [pc, #44]	; (5ec <CLOCK_SetPllFllSelClock+0x38>)
     5be:	f503 5380 	add.w	r3, r3, #4096	; 0x1000
     5c2:	3304      	adds	r3, #4
     5c4:	681b      	ldr	r3, [r3, #0]
     5c6:	f423 3240 	bic.w	r2, r3, #196608	; 0x30000
     5ca:	687b      	ldr	r3, [r7, #4]
     5cc:	041b      	lsls	r3, r3, #16
     5ce:	f403 3340 	and.w	r3, r3, #196608	; 0x30000
     5d2:	4906      	ldr	r1, [pc, #24]	; (5ec <CLOCK_SetPllFllSelClock+0x38>)
     5d4:	431a      	orrs	r2, r3
     5d6:	f501 5380 	add.w	r3, r1, #4096	; 0x1000
     5da:	3304      	adds	r3, #4
     5dc:	601a      	str	r2, [r3, #0]
     5de:	bf00      	nop
     5e0:	370c      	adds	r7, #12
     5e2:	46bd      	mov	sp, r7
     5e4:	f85d 7b04 	ldr.w	r7, [sp], #4
     5e8:	4770      	bx	lr
     5ea:	bf00      	nop
     5ec:	40047000 	andmi	r7, r4, r0

000005f0 <CLOCK_GetMcgExtClkFreq>:
     5f0:	b580      	push	{r7, lr}
     5f2:	b082      	sub	sp, #8
     5f4:	af00      	add	r7, sp, #0
     5f6:	4b16      	ldr	r3, [pc, #88]	; (650 <CLOCK_GetMcgExtClkFreq+0x60>)
     5f8:	7b1b      	ldrb	r3, [r3, #12]
     5fa:	b2db      	uxtb	r3, r3
     5fc:	f003 0303 	and.w	r3, r3, #3
     600:	2b01      	cmp	r3, #1
     602:	d00f      	beq.n	624 <CLOCK_GetMcgExtClkFreq+0x34>
     604:	2b01      	cmp	r3, #1
     606:	d302      	bcc.n	60e <CLOCK_GetMcgExtClkFreq+0x1e>
     608:	2b02      	cmp	r3, #2
     60a:	d016      	beq.n	63a <CLOCK_GetMcgExtClkFreq+0x4a>
     60c:	e018      	b.n	640 <CLOCK_GetMcgExtClkFreq+0x50>
     60e:	4b11      	ldr	r3, [pc, #68]	; (654 <CLOCK_GetMcgExtClkFreq+0x64>)
     610:	681b      	ldr	r3, [r3, #0]
     612:	2b00      	cmp	r3, #0
     614:	d102      	bne.n	61c <CLOCK_GetMcgExtClkFreq+0x2c>
     616:	4810      	ldr	r0, [pc, #64]	; (658 <CLOCK_GetMcgExtClkFreq+0x68>)
     618:	f000 ffcc 	bl	15b4 <__assertion_failed>
     61c:	4b0d      	ldr	r3, [pc, #52]	; (654 <CLOCK_GetMcgExtClkFreq+0x64>)
     61e:	681b      	ldr	r3, [r3, #0]
     620:	607b      	str	r3, [r7, #4]
     622:	e010      	b.n	646 <CLOCK_GetMcgExtClkFreq+0x56>
     624:	4b0d      	ldr	r3, [pc, #52]	; (65c <CLOCK_GetMcgExtClkFreq+0x6c>)
     626:	681b      	ldr	r3, [r3, #0]
     628:	2b00      	cmp	r3, #0
     62a:	d102      	bne.n	632 <CLOCK_GetMcgExtClkFreq+0x42>
     62c:	480c      	ldr	r0, [pc, #48]	; (660 <CLOCK_GetMcgExtClkFreq+0x70>)
     62e:	f000 ffc1 	bl	15b4 <__assertion_failed>
     632:	4b0a      	ldr	r3, [pc, #40]	; (65c <CLOCK_GetMcgExtClkFreq+0x6c>)
     634:	681b      	ldr	r3, [r3, #0]
     636:	607b      	str	r3, [r7, #4]
     638:	e005      	b.n	646 <CLOCK_GetMcgExtClkFreq+0x56>
     63a:	4b0a      	ldr	r3, [pc, #40]	; (664 <CLOCK_GetMcgExtClkFreq+0x74>)
     63c:	607b      	str	r3, [r7, #4]
     63e:	e002      	b.n	646 <CLOCK_GetMcgExtClkFreq+0x56>
     640:	2300      	movs	r3, #0
     642:	607b      	str	r3, [r7, #4]
     644:	bf00      	nop
     646:	687b      	ldr	r3, [r7, #4]
     648:	4618      	mov	r0, r3
     64a:	3708      	adds	r7, #8
     64c:	46bd      	mov	sp, r7
     64e:	bd80      	pop	{r7, pc}
     650:	40064000 	andmi	r4, r6, r0
     654:	20000014 	andcs	r0, r0, r4, lsl r0
     658:	000031cc 	andeq	r3, r0, ip, asr #3
     65c:	20000018 	andcs	r0, r0, r8, lsl r0
     660:	000031f8 	strdeq	r3, [r0], -r8
     664:	02dc6c00 	sbcseq	r6, ip, #0, 24

00000668 <CLOCK_GetFllExtRefClkFreq>:
     668:	b580      	push	{r7, lr}
     66a:	b082      	sub	sp, #8
     66c:	af00      	add	r7, sp, #0
     66e:	f7ff ffbf 	bl	5f0 <CLOCK_GetMcgExtClkFreq>
     672:	6078      	str	r0, [r7, #4]
     674:	687b      	ldr	r3, [r7, #4]
     676:	2b00      	cmp	r3, #0
     678:	d101      	bne.n	67e <CLOCK_GetFllExtRefClkFreq+0x16>
     67a:	687b      	ldr	r3, [r7, #4]
     67c:	e051      	b.n	722 <CLOCK_GetFllExtRefClkFreq+0xba>
     67e:	4b2b      	ldr	r3, [pc, #172]	; (72c <CLOCK_GetFllExtRefClkFreq+0xc4>)
     680:	781b      	ldrb	r3, [r3, #0]
     682:	b2db      	uxtb	r3, r3
     684:	08db      	lsrs	r3, r3, #3
     686:	b2db      	uxtb	r3, r3
     688:	f003 0307 	and.w	r3, r3, #7
     68c:	70fb      	strb	r3, [r7, #3]
     68e:	78fb      	ldrb	r3, [r7, #3]
     690:	687a      	ldr	r2, [r7, #4]
     692:	fa22 f303 	lsr.w	r3, r2, r3
     696:	607b      	str	r3, [r7, #4]
     698:	4b24      	ldr	r3, [pc, #144]	; (72c <CLOCK_GetFllExtRefClkFreq+0xc4>)
     69a:	785b      	ldrb	r3, [r3, #1]
     69c:	b2db      	uxtb	r3, r3
     69e:	091b      	lsrs	r3, r3, #4
     6a0:	b2db      	uxtb	r3, r3
     6a2:	f003 0303 	and.w	r3, r3, #3
     6a6:	70bb      	strb	r3, [r7, #2]
     6a8:	4b20      	ldr	r3, [pc, #128]	; (72c <CLOCK_GetFllExtRefClkFreq+0xc4>)
     6aa:	7b1b      	ldrb	r3, [r3, #12]
     6ac:	b2db      	uxtb	r3, r3
     6ae:	f003 0303 	and.w	r3, r3, #3
     6b2:	707b      	strb	r3, [r7, #1]
     6b4:	78bb      	ldrb	r3, [r7, #2]
     6b6:	2b00      	cmp	r3, #0
     6b8:	d002      	beq.n	6c0 <CLOCK_GetFllExtRefClkFreq+0x58>
     6ba:	787b      	ldrb	r3, [r7, #1]
     6bc:	2b00      	cmp	r3, #0
     6be:	d002      	beq.n	6c6 <CLOCK_GetFllExtRefClkFreq+0x5e>
     6c0:	787b      	ldrb	r3, [r7, #1]
     6c2:	2b02      	cmp	r3, #2
     6c4:	d12b      	bne.n	71e <CLOCK_GetFllExtRefClkFreq+0xb6>
     6c6:	78fb      	ldrb	r3, [r7, #3]
     6c8:	2b07      	cmp	r3, #7
     6ca:	d825      	bhi.n	718 <CLOCK_GetFllExtRefClkFreq+0xb0>
     6cc:	a201      	add	r2, pc, #4	; (adr r2, 6d4 <CLOCK_GetFllExtRefClkFreq+0x6c>)
     6ce:	f852 f023 	ldr.w	pc, [r2, r3, lsl #2]
     6d2:	bf00      	nop
     6d4:	000006f5 	strdeq	r0, [r0], -r5
     6d8:	000006f5 	strdeq	r0, [r0], -r5
     6dc:	000006f5 	strdeq	r0, [r0], -r5
     6e0:	000006f5 	strdeq	r0, [r0], -r5
     6e4:	000006f5 	strdeq	r0, [r0], -r5
     6e8:	000006f5 	strdeq	r0, [r0], -r5
     6ec:	000006fd 	strdeq	r0, [r0], -sp
     6f0:	0000070b 	andeq	r0, r0, fp, lsl #14
     6f4:	687b      	ldr	r3, [r7, #4]
     6f6:	095b      	lsrs	r3, r3, #5
     6f8:	607b      	str	r3, [r7, #4]
     6fa:	e011      	b.n	720 <CLOCK_GetFllExtRefClkFreq+0xb8>
     6fc:	687b      	ldr	r3, [r7, #4]
     6fe:	4a0c      	ldr	r2, [pc, #48]	; (730 <CLOCK_GetFllExtRefClkFreq+0xc8>)
     700:	fba2 2303 	umull	r2, r3, r2, r3
     704:	091b      	lsrs	r3, r3, #4
     706:	607b      	str	r3, [r7, #4]
     708:	e00a      	b.n	720 <CLOCK_GetFllExtRefClkFreq+0xb8>
     70a:	687b      	ldr	r3, [r7, #4]
     70c:	4a09      	ldr	r2, [pc, #36]	; (734 <CLOCK_GetFllExtRefClkFreq+0xcc>)
     70e:	fba2 2303 	umull	r2, r3, r2, r3
     712:	08db      	lsrs	r3, r3, #3
     714:	607b      	str	r3, [r7, #4]
     716:	e003      	b.n	720 <CLOCK_GetFllExtRefClkFreq+0xb8>
     718:	2300      	movs	r3, #0
     71a:	607b      	str	r3, [r7, #4]
     71c:	e000      	b.n	720 <CLOCK_GetFllExtRefClkFreq+0xb8>
     71e:	bf00      	nop
     720:	687b      	ldr	r3, [r7, #4]
     722:	4618      	mov	r0, r3
     724:	3708      	adds	r7, #8
     726:	46bd      	mov	sp, r7
     728:	bd80      	pop	{r7, pc}
     72a:	bf00      	nop
     72c:	40064000 	andmi	r4, r6, r0
     730:	cccccccd 	stclgt	12, cr12, [ip], {205}	; 0xcd
     734:	aaaaaaab 	bge	feaab1e8 <__top_RAM+0xdea9b1e8>

00000738 <CLOCK_GetInternalRefClkSelectFreq>:
     738:	b480      	push	{r7}
     73a:	af00      	add	r7, sp, #0
     73c:	4b0c      	ldr	r3, [pc, #48]	; (770 <CLOCK_GetInternalRefClkSelectFreq+0x38>)
     73e:	799b      	ldrb	r3, [r3, #6]
     740:	b2db      	uxtb	r3, r3
     742:	f003 0301 	and.w	r3, r3, #1
     746:	2b00      	cmp	r3, #0
     748:	d102      	bne.n	750 <CLOCK_GetInternalRefClkSelectFreq+0x18>
     74a:	4b0a      	ldr	r3, [pc, #40]	; (774 <CLOCK_GetInternalRefClkSelectFreq+0x3c>)
     74c:	681b      	ldr	r3, [r3, #0]
     74e:	e009      	b.n	764 <CLOCK_GetInternalRefClkSelectFreq+0x2c>
     750:	4b09      	ldr	r3, [pc, #36]	; (778 <CLOCK_GetInternalRefClkSelectFreq+0x40>)
     752:	681a      	ldr	r2, [r3, #0]
     754:	4b06      	ldr	r3, [pc, #24]	; (770 <CLOCK_GetInternalRefClkSelectFreq+0x38>)
     756:	7a1b      	ldrb	r3, [r3, #8]
     758:	b2db      	uxtb	r3, r3
     75a:	085b      	lsrs	r3, r3, #1
     75c:	f003 0307 	and.w	r3, r3, #7
     760:	fa22 f303 	lsr.w	r3, r2, r3
     764:	4618      	mov	r0, r3
     766:	46bd      	mov	sp, r7
     768:	f85d 7b04 	ldr.w	r7, [sp], #4
     76c:	4770      	bx	lr
     76e:	bf00      	nop
     770:	40064000 	andmi	r4, r6, r0
     774:	20000000 	andcs	r0, r0, r0
     778:	20000004 	andcs	r0, r0, r4

0000077c <CLOCK_GetFllRefClkFreq>:
     77c:	b580      	push	{r7, lr}
     77e:	af00      	add	r7, sp, #0
     780:	4b07      	ldr	r3, [pc, #28]	; (7a0 <CLOCK_GetFllRefClkFreq+0x24>)
     782:	799b      	ldrb	r3, [r3, #6]
     784:	b2db      	uxtb	r3, r3
     786:	f003 0310 	and.w	r3, r3, #16
     78a:	2b00      	cmp	r3, #0
     78c:	d103      	bne.n	796 <CLOCK_GetFllRefClkFreq+0x1a>
     78e:	f7ff ff6b 	bl	668 <CLOCK_GetFllExtRefClkFreq>
     792:	4603      	mov	r3, r0
     794:	e001      	b.n	79a <CLOCK_GetFllRefClkFreq+0x1e>
     796:	4b03      	ldr	r3, [pc, #12]	; (7a4 <CLOCK_GetFllRefClkFreq+0x28>)
     798:	681b      	ldr	r3, [r3, #0]
     79a:	4618      	mov	r0, r3
     79c:	bd80      	pop	{r7, pc}
     79e:	bf00      	nop
     7a0:	40064000 	andmi	r4, r6, r0
     7a4:	20000000 	andcs	r0, r0, r0

000007a8 <CLOCK_GetOscRangeFromFreq>:
     7a8:	b480      	push	{r7}
     7aa:	b085      	sub	sp, #20
     7ac:	af00      	add	r7, sp, #0
     7ae:	6078      	str	r0, [r7, #4]
     7b0:	687b      	ldr	r3, [r7, #4]
     7b2:	f649 0297 	movw	r2, #39063	; 0x9897
     7b6:	4293      	cmp	r3, r2
     7b8:	d802      	bhi.n	7c0 <CLOCK_GetOscRangeFromFreq+0x18>
     7ba:	2300      	movs	r3, #0
     7bc:	73fb      	strb	r3, [r7, #15]
     7be:	e008      	b.n	7d2 <CLOCK_GetOscRangeFromFreq+0x2a>
     7c0:	687b      	ldr	r3, [r7, #4]
     7c2:	4a07      	ldr	r2, [pc, #28]	; (7e0 <CLOCK_GetOscRangeFromFreq+0x38>)
     7c4:	4293      	cmp	r3, r2
     7c6:	d802      	bhi.n	7ce <CLOCK_GetOscRangeFromFreq+0x26>
     7c8:	2301      	movs	r3, #1
     7ca:	73fb      	strb	r3, [r7, #15]
     7cc:	e001      	b.n	7d2 <CLOCK_GetOscRangeFromFreq+0x2a>
     7ce:	2302      	movs	r3, #2
     7d0:	73fb      	strb	r3, [r7, #15]
     7d2:	7bfb      	ldrb	r3, [r7, #15]
     7d4:	4618      	mov	r0, r3
     7d6:	3714      	adds	r7, #20
     7d8:	46bd      	mov	sp, r7
     7da:	f85d 7b04 	ldr.w	r7, [sp], #4
     7de:	4770      	bx	lr
     7e0:	007a1200 	rsbseq	r1, sl, r0, lsl #4

000007e4 <CLOCK_GetCoreSysClkFreq>:
     7e4:	b580      	push	{r7, lr}
     7e6:	af00      	add	r7, sp, #0
     7e8:	f000 f82c 	bl	844 <CLOCK_GetOutClkFreq>
     7ec:	4602      	mov	r2, r0
     7ee:	4b06      	ldr	r3, [pc, #24]	; (808 <CLOCK_GetCoreSysClkFreq+0x24>)
     7f0:	f503 5382 	add.w	r3, r3, #4160	; 0x1040
     7f4:	3304      	adds	r3, #4
     7f6:	681b      	ldr	r3, [r3, #0]
     7f8:	0f1b      	lsrs	r3, r3, #28
     7fa:	f003 030f 	and.w	r3, r3, #15
     7fe:	3301      	adds	r3, #1
     800:	fbb2 f3f3 	udiv	r3, r2, r3
     804:	4618      	mov	r0, r3
     806:	bd80      	pop	{r7, pc}
     808:	40047000 	andmi	r7, r4, r0

0000080c <CLOCK_SetSimConfig>:
     80c:	b580      	push	{r7, lr}
     80e:	b082      	sub	sp, #8
     810:	af00      	add	r7, sp, #0
     812:	6078      	str	r0, [r7, #4]
     814:	490a      	ldr	r1, [pc, #40]	; (840 <CLOCK_SetSimConfig+0x34>)
     816:	687b      	ldr	r3, [r7, #4]
     818:	685a      	ldr	r2, [r3, #4]
     81a:	f501 5382 	add.w	r3, r1, #4160	; 0x1040
     81e:	3304      	adds	r3, #4
     820:	601a      	str	r2, [r3, #0]
     822:	687b      	ldr	r3, [r7, #4]
     824:	781b      	ldrb	r3, [r3, #0]
     826:	4618      	mov	r0, r3
     828:	f7ff fec4 	bl	5b4 <CLOCK_SetPllFllSelClock>
     82c:	687b      	ldr	r3, [r7, #4]
     82e:	785b      	ldrb	r3, [r3, #1]
     830:	4618      	mov	r0, r3
     832:	f7ff fea7 	bl	584 <CLOCK_SetEr32kClock>
     836:	bf00      	nop
     838:	3708      	adds	r7, #8
     83a:	46bd      	mov	sp, r7
     83c:	bd80      	pop	{r7, pc}
     83e:	bf00      	nop
     840:	40047000 	andmi	r7, r4, r0

00000844 <CLOCK_GetOutClkFreq>:
     844:	b580      	push	{r7, lr}
     846:	b082      	sub	sp, #8
     848:	af00      	add	r7, sp, #0
     84a:	4b16      	ldr	r3, [pc, #88]	; (8a4 <CLOCK_GetOutClkFreq+0x60>)
     84c:	799b      	ldrb	r3, [r3, #6]
     84e:	b2db      	uxtb	r3, r3
     850:	089b      	lsrs	r3, r3, #2
     852:	f003 0303 	and.w	r3, r3, #3
     856:	603b      	str	r3, [r7, #0]
     858:	683b      	ldr	r3, [r7, #0]
     85a:	2b03      	cmp	r3, #3
     85c:	d81a      	bhi.n	894 <CLOCK_GetOutClkFreq+0x50>
     85e:	a201      	add	r2, pc, #4	; (adr r2, 864 <CLOCK_GetOutClkFreq+0x20>)
     860:	f852 f023 	ldr.w	pc, [r2, r3, lsl #2]
     864:	0000087d 	andeq	r0, r0, sp, ror r8
     868:	00000885 	andeq	r0, r0, r5, lsl #17
     86c:	0000088d 	andeq	r0, r0, sp, lsl #17
     870:	00000875 	andeq	r0, r0, r5, ror r8
     874:	f000 f856 	bl	924 <CLOCK_GetPll0Freq>
     878:	6078      	str	r0, [r7, #4]
     87a:	e00e      	b.n	89a <CLOCK_GetOutClkFreq+0x56>
     87c:	f000 f814 	bl	8a8 <CLOCK_GetFllFreq>
     880:	6078      	str	r0, [r7, #4]
     882:	e00a      	b.n	89a <CLOCK_GetOutClkFreq+0x56>
     884:	f7ff ff58 	bl	738 <CLOCK_GetInternalRefClkSelectFreq>
     888:	6078      	str	r0, [r7, #4]
     88a:	e006      	b.n	89a <CLOCK_GetOutClkFreq+0x56>
     88c:	f7ff feb0 	bl	5f0 <CLOCK_GetMcgExtClkFreq>
     890:	6078      	str	r0, [r7, #4]
     892:	e002      	b.n	89a <CLOCK_GetOutClkFreq+0x56>
     894:	2300      	movs	r3, #0
     896:	607b      	str	r3, [r7, #4]
     898:	bf00      	nop
     89a:	687b      	ldr	r3, [r7, #4]
     89c:	4618      	mov	r0, r3
     89e:	3708      	adds	r7, #8
     8a0:	46bd      	mov	sp, r7
     8a2:	bd80      	pop	{r7, pc}
     8a4:	40064000 	andmi	r4, r6, r0

000008a8 <CLOCK_GetFllFreq>:
     8a8:	b580      	push	{r7, lr}
     8aa:	b082      	sub	sp, #8
     8ac:	af00      	add	r7, sp, #0
     8ae:	4b1b      	ldr	r3, [pc, #108]	; (91c <CLOCK_GetFllFreq+0x74>)
     8b0:	785b      	ldrb	r3, [r3, #1]
     8b2:	b2db      	uxtb	r3, r3
     8b4:	f003 0302 	and.w	r3, r3, #2
     8b8:	2b00      	cmp	r3, #0
     8ba:	d106      	bne.n	8ca <CLOCK_GetFllFreq+0x22>
     8bc:	4b17      	ldr	r3, [pc, #92]	; (91c <CLOCK_GetFllFreq+0x74>)
     8be:	799b      	ldrb	r3, [r3, #6]
     8c0:	b2db      	uxtb	r3, r3
     8c2:	f003 0320 	and.w	r3, r3, #32
     8c6:	2b00      	cmp	r3, #0
     8c8:	d001      	beq.n	8ce <CLOCK_GetFllFreq+0x26>
     8ca:	2300      	movs	r3, #0
     8cc:	e022      	b.n	914 <CLOCK_GetFllFreq+0x6c>
     8ce:	f7ff ff55 	bl	77c <CLOCK_GetFllRefClkFreq>
     8d2:	6078      	str	r0, [r7, #4]
     8d4:	687b      	ldr	r3, [r7, #4]
     8d6:	2b00      	cmp	r3, #0
     8d8:	d101      	bne.n	8de <CLOCK_GetFllFreq+0x36>
     8da:	687b      	ldr	r3, [r7, #4]
     8dc:	e01a      	b.n	914 <CLOCK_GetFllFreq+0x6c>
     8de:	4b0f      	ldr	r3, [pc, #60]	; (91c <CLOCK_GetFllFreq+0x74>)
     8e0:	78db      	ldrb	r3, [r3, #3]
     8e2:	b2db      	uxtb	r3, r3
     8e4:	095b      	lsrs	r3, r3, #5
     8e6:	b2db      	uxtb	r3, r3
     8e8:	f003 0303 	and.w	r3, r3, #3
     8ec:	70fb      	strb	r3, [r7, #3]
     8ee:	4b0b      	ldr	r3, [pc, #44]	; (91c <CLOCK_GetFllFreq+0x74>)
     8f0:	78db      	ldrb	r3, [r3, #3]
     8f2:	b2db      	uxtb	r3, r3
     8f4:	09db      	lsrs	r3, r3, #7
     8f6:	b2db      	uxtb	r3, r3
     8f8:	f003 0301 	and.w	r3, r3, #1
     8fc:	70bb      	strb	r3, [r7, #2]
     8fe:	78fa      	ldrb	r2, [r7, #3]
     900:	78bb      	ldrb	r3, [r7, #2]
     902:	4907      	ldr	r1, [pc, #28]	; (920 <CLOCK_GetFllFreq+0x78>)
     904:	0052      	lsls	r2, r2, #1
     906:	4413      	add	r3, r2
     908:	f831 3013 	ldrh.w	r3, [r1, r3, lsl #1]
     90c:	461a      	mov	r2, r3
     90e:	687b      	ldr	r3, [r7, #4]
     910:	fb03 f302 	mul.w	r3, r3, r2
     914:	4618      	mov	r0, r3
     916:	3708      	adds	r7, #8
     918:	46bd      	mov	sp, r7
     91a:	bd80      	pop	{r7, pc}
     91c:	40064000 	andmi	r4, r6, r0
     920:	00003344 	andeq	r3, r0, r4, asr #6

00000924 <CLOCK_GetPll0Freq>:
     924:	b580      	push	{r7, lr}
     926:	b082      	sub	sp, #8
     928:	af00      	add	r7, sp, #0
     92a:	4b16      	ldr	r3, [pc, #88]	; (984 <CLOCK_GetPll0Freq+0x60>)
     92c:	799b      	ldrb	r3, [r3, #6]
     92e:	b2db      	uxtb	r3, r3
     930:	f003 0340 	and.w	r3, r3, #64	; 0x40
     934:	2b00      	cmp	r3, #0
     936:	d101      	bne.n	93c <CLOCK_GetPll0Freq+0x18>
     938:	2300      	movs	r3, #0
     93a:	e01e      	b.n	97a <CLOCK_GetPll0Freq+0x56>
     93c:	f002 f942 	bl	2bc4 <CLOCK_GetPll0RefFreq>
     940:	6078      	str	r0, [r7, #4]
     942:	687b      	ldr	r3, [r7, #4]
     944:	2b00      	cmp	r3, #0
     946:	d102      	bne.n	94e <CLOCK_GetPll0Freq+0x2a>
     948:	480f      	ldr	r0, [pc, #60]	; (988 <CLOCK_GetPll0Freq+0x64>)
     94a:	f000 fe33 	bl	15b4 <__assertion_failed>
     94e:	4b0d      	ldr	r3, [pc, #52]	; (984 <CLOCK_GetPll0Freq+0x60>)
     950:	791b      	ldrb	r3, [r3, #4]
     952:	b2db      	uxtb	r3, r3
     954:	f003 031f 	and.w	r3, r3, #31
     958:	3301      	adds	r3, #1
     95a:	687a      	ldr	r2, [r7, #4]
     95c:	fbb2 f3f3 	udiv	r3, r2, r3
     960:	607b      	str	r3, [r7, #4]
     962:	4b08      	ldr	r3, [pc, #32]	; (984 <CLOCK_GetPll0Freq+0x60>)
     964:	795b      	ldrb	r3, [r3, #5]
     966:	b2db      	uxtb	r3, r3
     968:	f003 031f 	and.w	r3, r3, #31
     96c:	f103 0218 	add.w	r2, r3, #24
     970:	687b      	ldr	r3, [r7, #4]
     972:	fb02 f303 	mul.w	r3, r2, r3
     976:	607b      	str	r3, [r7, #4]
     978:	687b      	ldr	r3, [r7, #4]
     97a:	4618      	mov	r0, r3
     97c:	3708      	adds	r7, #8
     97e:	46bd      	mov	sp, r7
     980:	bd80      	pop	{r7, pc}
     982:	bf00      	nop
     984:	40064000 	andmi	r4, r6, r0
     988:	000032a8 	andeq	r3, r0, r8, lsr #5

0000098c <CLOCK_SetExternalRefClkConfig>:
     98c:	b480      	push	{r7}
     98e:	b085      	sub	sp, #20
     990:	af00      	add	r7, sp, #0
     992:	4603      	mov	r3, r0
     994:	71fb      	strb	r3, [r7, #7]
     996:	4b17      	ldr	r3, [pc, #92]	; (9f4 <CLOCK_SetExternalRefClkConfig+0x68>)
     998:	7b1b      	ldrb	r3, [r3, #12]
     99a:	b2db      	uxtb	r3, r3
     99c:	f003 0203 	and.w	r2, r3, #3
     9a0:	79fb      	ldrb	r3, [r7, #7]
     9a2:	429a      	cmp	r2, r3
     9a4:	d002      	beq.n	9ac <CLOCK_SetExternalRefClkConfig+0x20>
     9a6:	2301      	movs	r3, #1
     9a8:	73fb      	strb	r3, [r7, #15]
     9aa:	e001      	b.n	9b0 <CLOCK_SetExternalRefClkConfig+0x24>
     9ac:	2300      	movs	r3, #0
     9ae:	73fb      	strb	r3, [r7, #15]
     9b0:	4b10      	ldr	r3, [pc, #64]	; (9f4 <CLOCK_SetExternalRefClkConfig+0x68>)
     9b2:	7b1b      	ldrb	r3, [r3, #12]
     9b4:	b2db      	uxtb	r3, r3
     9b6:	f023 0303 	bic.w	r3, r3, #3
     9ba:	b2da      	uxtb	r2, r3
     9bc:	79fb      	ldrb	r3, [r7, #7]
     9be:	f003 0303 	and.w	r3, r3, #3
     9c2:	b2db      	uxtb	r3, r3
     9c4:	490b      	ldr	r1, [pc, #44]	; (9f4 <CLOCK_SetExternalRefClkConfig+0x68>)
     9c6:	4313      	orrs	r3, r2
     9c8:	b2db      	uxtb	r3, r3
     9ca:	730b      	strb	r3, [r1, #12]
     9cc:	7bfb      	ldrb	r3, [r7, #15]
     9ce:	2b00      	cmp	r3, #0
     9d0:	d009      	beq.n	9e6 <CLOCK_SetExternalRefClkConfig+0x5a>
     9d2:	f240 53dc 	movw	r3, #1500	; 0x5dc
     9d6:	60bb      	str	r3, [r7, #8]
     9d8:	e000      	b.n	9dc <CLOCK_SetExternalRefClkConfig+0x50>
     9da:	bf00      	nop
     9dc:	68bb      	ldr	r3, [r7, #8]
     9de:	1e5a      	subs	r2, r3, #1
     9e0:	60ba      	str	r2, [r7, #8]
     9e2:	2b00      	cmp	r3, #0
     9e4:	d1f9      	bne.n	9da <CLOCK_SetExternalRefClkConfig+0x4e>
     9e6:	2300      	movs	r3, #0
     9e8:	4618      	mov	r0, r3
     9ea:	3714      	adds	r7, #20
     9ec:	46bd      	mov	sp, r7
     9ee:	f85d 7b04 	ldr.w	r7, [sp], #4
     9f2:	4770      	bx	lr
     9f4:	40064000 	andmi	r4, r6, r0

000009f8 <CLOCK_SetInternalRefClkConfig>:
     9f8:	b480      	push	{r7}
     9fa:	b085      	sub	sp, #20
     9fc:	af00      	add	r7, sp, #0
     9fe:	4603      	mov	r3, r0
     a00:	71fb      	strb	r3, [r7, #7]
     a02:	460b      	mov	r3, r1
     a04:	71bb      	strb	r3, [r7, #6]
     a06:	4613      	mov	r3, r2
     a08:	717b      	strb	r3, [r7, #5]
     a0a:	4b3b      	ldr	r3, [pc, #236]	; (af8 <CLOCK_SetInternalRefClkConfig+0x100>)
     a0c:	799b      	ldrb	r3, [r3, #6]
     a0e:	b2db      	uxtb	r3, r3
     a10:	089b      	lsrs	r3, r3, #2
     a12:	f003 0303 	and.w	r3, r3, #3
     a16:	60fb      	str	r3, [r7, #12]
     a18:	4b37      	ldr	r3, [pc, #220]	; (af8 <CLOCK_SetInternalRefClkConfig+0x100>)
     a1a:	799b      	ldrb	r3, [r3, #6]
     a1c:	b2db      	uxtb	r3, r3
     a1e:	f003 0301 	and.w	r3, r3, #1
     a22:	72fb      	strb	r3, [r7, #11]
     a24:	4b34      	ldr	r3, [pc, #208]	; (af8 <CLOCK_SetInternalRefClkConfig+0x100>)
     a26:	7a1b      	ldrb	r3, [r3, #8]
     a28:	b2db      	uxtb	r3, r3
     a2a:	085b      	lsrs	r3, r3, #1
     a2c:	b2db      	uxtb	r3, r3
     a2e:	f003 0307 	and.w	r3, r3, #7
     a32:	72bb      	strb	r3, [r7, #10]
     a34:	797a      	ldrb	r2, [r7, #5]
     a36:	7abb      	ldrb	r3, [r7, #10]
     a38:	429a      	cmp	r2, r3
     a3a:	d02c      	beq.n	a96 <CLOCK_SetInternalRefClkConfig+0x9e>
     a3c:	7afb      	ldrb	r3, [r7, #11]
     a3e:	2b01      	cmp	r3, #1
     a40:	d119      	bne.n	a76 <CLOCK_SetInternalRefClkConfig+0x7e>
     a42:	68fb      	ldr	r3, [r7, #12]
     a44:	2b01      	cmp	r3, #1
     a46:	d006      	beq.n	a56 <CLOCK_SetInternalRefClkConfig+0x5e>
     a48:	4b2b      	ldr	r3, [pc, #172]	; (af8 <CLOCK_SetInternalRefClkConfig+0x100>)
     a4a:	781b      	ldrb	r3, [r3, #0]
     a4c:	b2db      	uxtb	r3, r3
     a4e:	f003 0302 	and.w	r3, r3, #2
     a52:	2b00      	cmp	r3, #0
     a54:	d00f      	beq.n	a76 <CLOCK_SetInternalRefClkConfig+0x7e>
     a56:	4b28      	ldr	r3, [pc, #160]	; (af8 <CLOCK_SetInternalRefClkConfig+0x100>)
     a58:	785b      	ldrb	r3, [r3, #1]
     a5a:	b2db      	uxtb	r3, r3
     a5c:	4a26      	ldr	r2, [pc, #152]	; (af8 <CLOCK_SetInternalRefClkConfig+0x100>)
     a5e:	f023 0301 	bic.w	r3, r3, #1
     a62:	b2db      	uxtb	r3, r3
     a64:	7053      	strb	r3, [r2, #1]
     a66:	bf00      	nop
     a68:	4b23      	ldr	r3, [pc, #140]	; (af8 <CLOCK_SetInternalRefClkConfig+0x100>)
     a6a:	799b      	ldrb	r3, [r3, #6]
     a6c:	b2db      	uxtb	r3, r3
     a6e:	f003 0301 	and.w	r3, r3, #1
     a72:	2b00      	cmp	r3, #0
     a74:	d1f8      	bne.n	a68 <CLOCK_SetInternalRefClkConfig+0x70>
     a76:	4b20      	ldr	r3, [pc, #128]	; (af8 <CLOCK_SetInternalRefClkConfig+0x100>)
     a78:	7a1b      	ldrb	r3, [r3, #8]
     a7a:	b2db      	uxtb	r3, r3
     a7c:	f023 032f 	bic.w	r3, r3, #47	; 0x2f
     a80:	b2da      	uxtb	r2, r3
     a82:	797b      	ldrb	r3, [r7, #5]
     a84:	005b      	lsls	r3, r3, #1
     a86:	b2db      	uxtb	r3, r3
     a88:	f003 030e 	and.w	r3, r3, #14
     a8c:	b2db      	uxtb	r3, r3
     a8e:	491a      	ldr	r1, [pc, #104]	; (af8 <CLOCK_SetInternalRefClkConfig+0x100>)
     a90:	4313      	orrs	r3, r2
     a92:	b2db      	uxtb	r3, r3
     a94:	720b      	strb	r3, [r1, #8]
     a96:	4b18      	ldr	r3, [pc, #96]	; (af8 <CLOCK_SetInternalRefClkConfig+0x100>)
     a98:	785b      	ldrb	r3, [r3, #1]
     a9a:	b2db      	uxtb	r3, r3
     a9c:	f023 0301 	bic.w	r3, r3, #1
     aa0:	b2da      	uxtb	r2, r3
     aa2:	79bb      	ldrb	r3, [r7, #6]
     aa4:	f003 0301 	and.w	r3, r3, #1
     aa8:	b2db      	uxtb	r3, r3
     aaa:	4913      	ldr	r1, [pc, #76]	; (af8 <CLOCK_SetInternalRefClkConfig+0x100>)
     aac:	4313      	orrs	r3, r2
     aae:	b2db      	uxtb	r3, r3
     ab0:	704b      	strb	r3, [r1, #1]
     ab2:	4b11      	ldr	r3, [pc, #68]	; (af8 <CLOCK_SetInternalRefClkConfig+0x100>)
     ab4:	781b      	ldrb	r3, [r3, #0]
     ab6:	b2db      	uxtb	r3, r3
     ab8:	f023 0303 	bic.w	r3, r3, #3
     abc:	b2da      	uxtb	r2, r3
     abe:	490e      	ldr	r1, [pc, #56]	; (af8 <CLOCK_SetInternalRefClkConfig+0x100>)
     ac0:	79fb      	ldrb	r3, [r7, #7]
     ac2:	4313      	orrs	r3, r2
     ac4:	b2db      	uxtb	r3, r3
     ac6:	700b      	strb	r3, [r1, #0]
     ac8:	68fb      	ldr	r3, [r7, #12]
     aca:	2b01      	cmp	r3, #1
     acc:	d004      	beq.n	ad8 <CLOCK_SetInternalRefClkConfig+0xe0>
     ace:	79fb      	ldrb	r3, [r7, #7]
     ad0:	f003 0302 	and.w	r3, r3, #2
     ad4:	2b00      	cmp	r3, #0
     ad6:	d008      	beq.n	aea <CLOCK_SetInternalRefClkConfig+0xf2>
     ad8:	bf00      	nop
     ada:	4b07      	ldr	r3, [pc, #28]	; (af8 <CLOCK_SetInternalRefClkConfig+0x100>)
     adc:	799b      	ldrb	r3, [r3, #6]
     ade:	b2db      	uxtb	r3, r3
     ae0:	f003 0201 	and.w	r2, r3, #1
     ae4:	79bb      	ldrb	r3, [r7, #6]
     ae6:	429a      	cmp	r2, r3
     ae8:	d1f7      	bne.n	ada <CLOCK_SetInternalRefClkConfig+0xe2>
     aea:	2300      	movs	r3, #0
     aec:	4618      	mov	r0, r3
     aee:	3714      	adds	r7, #20
     af0:	46bd      	mov	sp, r7
     af2:	f85d 7b04 	ldr.w	r7, [sp], #4
     af6:	4770      	bx	lr
     af8:	40064000 	andmi	r4, r6, r0

00000afc <CLOCK_EnablePll0>:
     afc:	b580      	push	{r7, lr}
     afe:	b084      	sub	sp, #16
     b00:	af00      	add	r7, sp, #0
     b02:	6078      	str	r0, [r7, #4]
     b04:	687b      	ldr	r3, [r7, #4]
     b06:	2b00      	cmp	r3, #0
     b08:	d102      	bne.n	b10 <CLOCK_EnablePll0+0x14>
     b0a:	481b      	ldr	r0, [pc, #108]	; (b78 <CLOCK_EnablePll0+0x7c>)
     b0c:	f000 fd52 	bl	15b4 <__assertion_failed>
     b10:	2300      	movs	r3, #0
     b12:	73fb      	strb	r3, [r7, #15]
     b14:	687b      	ldr	r3, [r7, #4]
     b16:	785b      	ldrb	r3, [r3, #1]
     b18:	f003 031f 	and.w	r3, r3, #31
     b1c:	b2da      	uxtb	r2, r3
     b1e:	7bfb      	ldrb	r3, [r7, #15]
     b20:	4313      	orrs	r3, r2
     b22:	73fb      	strb	r3, [r7, #15]
     b24:	4a15      	ldr	r2, [pc, #84]	; (b7c <CLOCK_EnablePll0+0x80>)
     b26:	7bfb      	ldrb	r3, [r7, #15]
     b28:	7113      	strb	r3, [r2, #4]
     b2a:	4b14      	ldr	r3, [pc, #80]	; (b7c <CLOCK_EnablePll0+0x80>)
     b2c:	795b      	ldrb	r3, [r3, #5]
     b2e:	b2db      	uxtb	r3, r3
     b30:	f023 031f 	bic.w	r3, r3, #31
     b34:	b2da      	uxtb	r2, r3
     b36:	687b      	ldr	r3, [r7, #4]
     b38:	789b      	ldrb	r3, [r3, #2]
     b3a:	f003 031f 	and.w	r3, r3, #31
     b3e:	b2db      	uxtb	r3, r3
     b40:	490e      	ldr	r1, [pc, #56]	; (b7c <CLOCK_EnablePll0+0x80>)
     b42:	4313      	orrs	r3, r2
     b44:	b2db      	uxtb	r3, r3
     b46:	714b      	strb	r3, [r1, #5]
     b48:	4b0c      	ldr	r3, [pc, #48]	; (b7c <CLOCK_EnablePll0+0x80>)
     b4a:	791b      	ldrb	r3, [r3, #4]
     b4c:	b2da      	uxtb	r2, r3
     b4e:	687b      	ldr	r3, [r7, #4]
     b50:	781b      	ldrb	r3, [r3, #0]
     b52:	4313      	orrs	r3, r2
     b54:	b2db      	uxtb	r3, r3
     b56:	4a09      	ldr	r2, [pc, #36]	; (b7c <CLOCK_EnablePll0+0x80>)
     b58:	f043 0340 	orr.w	r3, r3, #64	; 0x40
     b5c:	b2db      	uxtb	r3, r3
     b5e:	7113      	strb	r3, [r2, #4]
     b60:	bf00      	nop
     b62:	4b06      	ldr	r3, [pc, #24]	; (b7c <CLOCK_EnablePll0+0x80>)
     b64:	799b      	ldrb	r3, [r3, #6]
     b66:	b2db      	uxtb	r3, r3
     b68:	f003 0340 	and.w	r3, r3, #64	; 0x40
     b6c:	2b00      	cmp	r3, #0
     b6e:	d0f8      	beq.n	b62 <CLOCK_EnablePll0+0x66>
     b70:	bf00      	nop
     b72:	3710      	adds	r7, #16
     b74:	46bd      	mov	sp, r7
     b76:	bd80      	pop	{r7, pc}
     b78:	000032d0 	ldrdeq	r3, [r0], -r0
     b7c:	40064000 	andmi	r4, r6, r0

00000b80 <CLOCK_InitOsc0>:
     b80:	b580      	push	{r7, lr}
     b82:	b084      	sub	sp, #16
     b84:	af00      	add	r7, sp, #0
     b86:	6078      	str	r0, [r7, #4]
     b88:	687b      	ldr	r3, [r7, #4]
     b8a:	681b      	ldr	r3, [r3, #0]
     b8c:	4618      	mov	r0, r3
     b8e:	f7ff fe0b 	bl	7a8 <CLOCK_GetOscRangeFromFreq>
     b92:	4603      	mov	r3, r0
     b94:	73fb      	strb	r3, [r7, #15]
     b96:	687b      	ldr	r3, [r7, #4]
     b98:	791b      	ldrb	r3, [r3, #4]
     b9a:	4619      	mov	r1, r3
     b9c:	4819      	ldr	r0, [pc, #100]	; (c04 <CLOCK_InitOsc0+0x84>)
     b9e:	f001 fff7 	bl	2b90 <OSC_SetCapLoad>
     ba2:	687b      	ldr	r3, [r7, #4]
     ba4:	3306      	adds	r3, #6
     ba6:	4619      	mov	r1, r3
     ba8:	4816      	ldr	r0, [pc, #88]	; (c04 <CLOCK_InitOsc0+0x84>)
     baa:	f001 ffd1 	bl	2b50 <OSC_SetExtRefClkConfig>
     bae:	4b16      	ldr	r3, [pc, #88]	; (c08 <CLOCK_InitOsc0+0x88>)
     bb0:	785b      	ldrb	r3, [r3, #1]
     bb2:	b2db      	uxtb	r3, r3
     bb4:	f023 033c 	bic.w	r3, r3, #60	; 0x3c
     bb8:	b2da      	uxtb	r2, r3
     bba:	7bfb      	ldrb	r3, [r7, #15]
     bbc:	011b      	lsls	r3, r3, #4
     bbe:	b2db      	uxtb	r3, r3
     bc0:	f003 0330 	and.w	r3, r3, #48	; 0x30
     bc4:	b2db      	uxtb	r3, r3
     bc6:	4313      	orrs	r3, r2
     bc8:	b2da      	uxtb	r2, r3
     bca:	687b      	ldr	r3, [r7, #4]
     bcc:	795b      	ldrb	r3, [r3, #5]
     bce:	490e      	ldr	r1, [pc, #56]	; (c08 <CLOCK_InitOsc0+0x88>)
     bd0:	4313      	orrs	r3, r2
     bd2:	b2db      	uxtb	r3, r3
     bd4:	704b      	strb	r3, [r1, #1]
     bd6:	687b      	ldr	r3, [r7, #4]
     bd8:	795b      	ldrb	r3, [r3, #5]
     bda:	2b00      	cmp	r3, #0
     bdc:	d00d      	beq.n	bfa <CLOCK_InitOsc0+0x7a>
     bde:	4b09      	ldr	r3, [pc, #36]	; (c04 <CLOCK_InitOsc0+0x84>)
     be0:	781b      	ldrb	r3, [r3, #0]
     be2:	b2db      	uxtb	r3, r3
     be4:	b25b      	sxtb	r3, r3
     be6:	2b00      	cmp	r3, #0
     be8:	da07      	bge.n	bfa <CLOCK_InitOsc0+0x7a>
     bea:	bf00      	nop
     bec:	4b06      	ldr	r3, [pc, #24]	; (c08 <CLOCK_InitOsc0+0x88>)
     bee:	799b      	ldrb	r3, [r3, #6]
     bf0:	b2db      	uxtb	r3, r3
     bf2:	f003 0302 	and.w	r3, r3, #2
     bf6:	2b00      	cmp	r3, #0
     bf8:	d0f8      	beq.n	bec <CLOCK_InitOsc0+0x6c>
     bfa:	bf00      	nop
     bfc:	3710      	adds	r7, #16
     bfe:	46bd      	mov	sp, r7
     c00:	bd80      	pop	{r7, pc}
     c02:	bf00      	nop
     c04:	40065000 	andmi	r5, r6, r0
     c08:	40064000 	andmi	r4, r6, r0

00000c0c <CLOCK_SetPbeMode>:
     c0c:	b580      	push	{r7, lr}
     c0e:	b082      	sub	sp, #8
     c10:	af00      	add	r7, sp, #0
     c12:	4603      	mov	r3, r0
     c14:	6039      	str	r1, [r7, #0]
     c16:	71fb      	strb	r3, [r7, #7]
     c18:	683b      	ldr	r3, [r7, #0]
     c1a:	2b00      	cmp	r3, #0
     c1c:	d102      	bne.n	c24 <CLOCK_SetPbeMode+0x18>
     c1e:	4823      	ldr	r0, [pc, #140]	; (cac <CLOCK_SetPbeMode+0xa0>)
     c20:	f000 fcc8 	bl	15b4 <__assertion_failed>
     c24:	4b22      	ldr	r3, [pc, #136]	; (cb0 <CLOCK_SetPbeMode+0xa4>)
     c26:	785b      	ldrb	r3, [r3, #1]
     c28:	b2db      	uxtb	r3, r3
     c2a:	4a21      	ldr	r2, [pc, #132]	; (cb0 <CLOCK_SetPbeMode+0xa4>)
     c2c:	f023 0302 	bic.w	r3, r3, #2
     c30:	b2db      	uxtb	r3, r3
     c32:	7053      	strb	r3, [r2, #1]
     c34:	4b1e      	ldr	r3, [pc, #120]	; (cb0 <CLOCK_SetPbeMode+0xa4>)
     c36:	781b      	ldrb	r3, [r3, #0]
     c38:	b2db      	uxtb	r3, r3
     c3a:	f003 033b 	and.w	r3, r3, #59	; 0x3b
     c3e:	b2db      	uxtb	r3, r3
     c40:	4a1b      	ldr	r2, [pc, #108]	; (cb0 <CLOCK_SetPbeMode+0xa4>)
     c42:	f063 037f 	orn	r3, r3, #127	; 0x7f
     c46:	b2db      	uxtb	r3, r3
     c48:	7013      	strb	r3, [r2, #0]
     c4a:	bf00      	nop
     c4c:	4b18      	ldr	r3, [pc, #96]	; (cb0 <CLOCK_SetPbeMode+0xa4>)
     c4e:	799b      	ldrb	r3, [r3, #6]
     c50:	b2db      	uxtb	r3, r3
     c52:	f003 031c 	and.w	r3, r3, #28
     c56:	2b08      	cmp	r3, #8
     c58:	d1f8      	bne.n	c4c <CLOCK_SetPbeMode+0x40>
     c5a:	4b15      	ldr	r3, [pc, #84]	; (cb0 <CLOCK_SetPbeMode+0xa4>)
     c5c:	795b      	ldrb	r3, [r3, #5]
     c5e:	b2db      	uxtb	r3, r3
     c60:	4a13      	ldr	r2, [pc, #76]	; (cb0 <CLOCK_SetPbeMode+0xa4>)
     c62:	f023 0340 	bic.w	r3, r3, #64	; 0x40
     c66:	b2db      	uxtb	r3, r3
     c68:	7153      	strb	r3, [r2, #5]
     c6a:	bf00      	nop
     c6c:	4b10      	ldr	r3, [pc, #64]	; (cb0 <CLOCK_SetPbeMode+0xa4>)
     c6e:	799b      	ldrb	r3, [r3, #6]
     c70:	b2db      	uxtb	r3, r3
     c72:	f003 0320 	and.w	r3, r3, #32
     c76:	2b00      	cmp	r3, #0
     c78:	d1f8      	bne.n	c6c <CLOCK_SetPbeMode+0x60>
     c7a:	6838      	ldr	r0, [r7, #0]
     c7c:	f7ff ff3e 	bl	afc <CLOCK_EnablePll0>
     c80:	4b0b      	ldr	r3, [pc, #44]	; (cb0 <CLOCK_SetPbeMode+0xa4>)
     c82:	795b      	ldrb	r3, [r3, #5]
     c84:	b2db      	uxtb	r3, r3
     c86:	4a0a      	ldr	r2, [pc, #40]	; (cb0 <CLOCK_SetPbeMode+0xa4>)
     c88:	f043 0340 	orr.w	r3, r3, #64	; 0x40
     c8c:	b2db      	uxtb	r3, r3
     c8e:	7153      	strb	r3, [r2, #5]
     c90:	bf00      	nop
     c92:	4b07      	ldr	r3, [pc, #28]	; (cb0 <CLOCK_SetPbeMode+0xa4>)
     c94:	799b      	ldrb	r3, [r3, #6]
     c96:	b2db      	uxtb	r3, r3
     c98:	f003 0320 	and.w	r3, r3, #32
     c9c:	2b00      	cmp	r3, #0
     c9e:	d0f8      	beq.n	c92 <CLOCK_SetPbeMode+0x86>
     ca0:	2300      	movs	r3, #0
     ca2:	4618      	mov	r0, r3
     ca4:	3708      	adds	r7, #8
     ca6:	46bd      	mov	sp, r7
     ca8:	bd80      	pop	{r7, pc}
     caa:	bf00      	nop
     cac:	000032f4 	strdeq	r3, [r0], -r4
     cb0:	40064000 	andmi	r4, r6, r0

00000cb4 <CLOCK_BootToPeeMode>:
     cb4:	b580      	push	{r7, lr}
     cb6:	b082      	sub	sp, #8
     cb8:	af00      	add	r7, sp, #0
     cba:	4603      	mov	r3, r0
     cbc:	603a      	str	r2, [r7, #0]
     cbe:	71fb      	strb	r3, [r7, #7]
     cc0:	460b      	mov	r3, r1
     cc2:	71bb      	strb	r3, [r7, #6]
     cc4:	683b      	ldr	r3, [r7, #0]
     cc6:	2b00      	cmp	r3, #0
     cc8:	d102      	bne.n	cd0 <CLOCK_BootToPeeMode+0x1c>
     cca:	4811      	ldr	r0, [pc, #68]	; (d10 <CLOCK_BootToPeeMode+0x5c>)
     ccc:	f000 fc72 	bl	15b4 <__assertion_failed>
     cd0:	79fb      	ldrb	r3, [r7, #7]
     cd2:	4618      	mov	r0, r3
     cd4:	f7ff fe5a 	bl	98c <CLOCK_SetExternalRefClkConfig>
     cd8:	79bb      	ldrb	r3, [r7, #6]
     cda:	6839      	ldr	r1, [r7, #0]
     cdc:	4618      	mov	r0, r3
     cde:	f7ff ff95 	bl	c0c <CLOCK_SetPbeMode>
     ce2:	4b0c      	ldr	r3, [pc, #48]	; (d14 <CLOCK_BootToPeeMode+0x60>)
     ce4:	781b      	ldrb	r3, [r3, #0]
     ce6:	b2db      	uxtb	r3, r3
     ce8:	4a0a      	ldr	r2, [pc, #40]	; (d14 <CLOCK_BootToPeeMode+0x60>)
     cea:	f003 033f 	and.w	r3, r3, #63	; 0x3f
     cee:	b2db      	uxtb	r3, r3
     cf0:	7013      	strb	r3, [r2, #0]
     cf2:	bf00      	nop
     cf4:	4b07      	ldr	r3, [pc, #28]	; (d14 <CLOCK_BootToPeeMode+0x60>)
     cf6:	799b      	ldrb	r3, [r3, #6]
     cf8:	b2db      	uxtb	r3, r3
     cfa:	089b      	lsrs	r3, r3, #2
     cfc:	f003 0303 	and.w	r3, r3, #3
     d00:	2b03      	cmp	r3, #3
     d02:	d1f7      	bne.n	cf4 <CLOCK_BootToPeeMode+0x40>
     d04:	2300      	movs	r3, #0
     d06:	4618      	mov	r0, r3
     d08:	3708      	adds	r7, #8
     d0a:	46bd      	mov	sp, r7
     d0c:	bd80      	pop	{r7, pc}
     d0e:	bf00      	nop
     d10:	0000331c 	andeq	r3, r0, ip, lsl r3
     d14:	40064000 	andmi	r4, r6, r0

00000d18 <LPUART_GetInstance>:
     d18:	b580      	push	{r7, lr}
     d1a:	b084      	sub	sp, #16
     d1c:	af00      	add	r7, sp, #0
     d1e:	6078      	str	r0, [r7, #4]
     d20:	2300      	movs	r3, #0
     d22:	60fb      	str	r3, [r7, #12]
     d24:	e006      	b.n	d34 <LPUART_GetInstance+0x1c>
     d26:	4a0b      	ldr	r2, [pc, #44]	; (d54 <LPUART_GetInstance+0x3c>)
     d28:	687b      	ldr	r3, [r7, #4]
     d2a:	4293      	cmp	r3, r2
     d2c:	d006      	beq.n	d3c <LPUART_GetInstance+0x24>
     d2e:	68fb      	ldr	r3, [r7, #12]
     d30:	3301      	adds	r3, #1
     d32:	60fb      	str	r3, [r7, #12]
     d34:	68fb      	ldr	r3, [r7, #12]
     d36:	2b00      	cmp	r3, #0
     d38:	d0f5      	beq.n	d26 <LPUART_GetInstance+0xe>
     d3a:	e000      	b.n	d3e <LPUART_GetInstance+0x26>
     d3c:	bf00      	nop
     d3e:	68fb      	ldr	r3, [r7, #12]
     d40:	2b00      	cmp	r3, #0
     d42:	d002      	beq.n	d4a <LPUART_GetInstance+0x32>
     d44:	4804      	ldr	r0, [pc, #16]	; (d58 <LPUART_GetInstance+0x40>)
     d46:	f000 fc35 	bl	15b4 <__assertion_failed>
     d4a:	68fb      	ldr	r3, [r7, #12]
     d4c:	4618      	mov	r0, r3
     d4e:	3710      	adds	r7, #16
     d50:	46bd      	mov	sp, r7
     d52:	bd80      	pop	{r7, pc}
     d54:	4002a000 	andmi	sl, r2, r0
     d58:	00003354 	andeq	r3, r0, r4, asr r3

00000d5c <LPUART_Init>:
     d5c:	b580      	push	{r7, lr}
     d5e:	b08c      	sub	sp, #48	; 0x30
     d60:	af00      	add	r7, sp, #0
     d62:	60f8      	str	r0, [r7, #12]
     d64:	60b9      	str	r1, [r7, #8]
     d66:	607a      	str	r2, [r7, #4]
     d68:	68bb      	ldr	r3, [r7, #8]
     d6a:	2b00      	cmp	r3, #0
     d6c:	d102      	bne.n	d74 <LPUART_Init+0x18>
     d6e:	489a      	ldr	r0, [pc, #616]	; (fd8 <LPUART_Init+0x27c>)
     d70:	f000 fc20 	bl	15b4 <__assertion_failed>
     d74:	68bb      	ldr	r3, [r7, #8]
     d76:	681b      	ldr	r3, [r3, #0]
     d78:	2b00      	cmp	r3, #0
     d7a:	d102      	bne.n	d82 <LPUART_Init+0x26>
     d7c:	4897      	ldr	r0, [pc, #604]	; (fdc <LPUART_Init+0x280>)
     d7e:	f000 fc19 	bl	15b4 <__assertion_failed>
     d82:	68bb      	ldr	r3, [r7, #8]
     d84:	681b      	ldr	r3, [r3, #0]
     d86:	61bb      	str	r3, [r7, #24]
     d88:	2300      	movs	r3, #0
     d8a:	627b      	str	r3, [r7, #36]	; 0x24
     d8c:	2300      	movs	r3, #0
     d8e:	857b      	strh	r3, [r7, #42]	; 0x2a
     d90:	2304      	movs	r3, #4
     d92:	623b      	str	r3, [r7, #32]
     d94:	e046      	b.n	e24 <LPUART_Init+0xc8>
     d96:	68bb      	ldr	r3, [r7, #8]
     d98:	681b      	ldr	r3, [r3, #0]
     d9a:	6a3a      	ldr	r2, [r7, #32]
     d9c:	fb02 f303 	mul.w	r3, r2, r3
     da0:	687a      	ldr	r2, [r7, #4]
     da2:	fbb2 f3f3 	udiv	r3, r2, r3
     da6:	853b      	strh	r3, [r7, #40]	; 0x28
     da8:	8d3b      	ldrh	r3, [r7, #40]	; 0x28
     daa:	2b00      	cmp	r3, #0
     dac:	d101      	bne.n	db2 <LPUART_Init+0x56>
     dae:	2301      	movs	r3, #1
     db0:	853b      	strh	r3, [r7, #40]	; 0x28
     db2:	8d3b      	ldrh	r3, [r7, #40]	; 0x28
     db4:	6a3a      	ldr	r2, [r7, #32]
     db6:	fb02 f303 	mul.w	r3, r2, r3
     dba:	687a      	ldr	r2, [r7, #4]
     dbc:	fbb2 f3f3 	udiv	r3, r2, r3
     dc0:	613b      	str	r3, [r7, #16]
     dc2:	68bb      	ldr	r3, [r7, #8]
     dc4:	681b      	ldr	r3, [r3, #0]
     dc6:	693a      	ldr	r2, [r7, #16]
     dc8:	1ad3      	subs	r3, r2, r3
     dca:	61fb      	str	r3, [r7, #28]
     dcc:	68bb      	ldr	r3, [r7, #8]
     dce:	681a      	ldr	r2, [r3, #0]
     dd0:	8d3b      	ldrh	r3, [r7, #40]	; 0x28
     dd2:	3301      	adds	r3, #1
     dd4:	4619      	mov	r1, r3
     dd6:	6a3b      	ldr	r3, [r7, #32]
     dd8:	fb03 f301 	mul.w	r3, r3, r1
     ddc:	6879      	ldr	r1, [r7, #4]
     dde:	fbb1 f3f3 	udiv	r3, r1, r3
     de2:	1ad3      	subs	r3, r2, r3
     de4:	69fa      	ldr	r2, [r7, #28]
     de6:	429a      	cmp	r2, r3
     de8:	d90f      	bls.n	e0a <LPUART_Init+0xae>
     dea:	68bb      	ldr	r3, [r7, #8]
     dec:	681a      	ldr	r2, [r3, #0]
     dee:	8d3b      	ldrh	r3, [r7, #40]	; 0x28
     df0:	3301      	adds	r3, #1
     df2:	4619      	mov	r1, r3
     df4:	6a3b      	ldr	r3, [r7, #32]
     df6:	fb03 f301 	mul.w	r3, r3, r1
     dfa:	6879      	ldr	r1, [r7, #4]
     dfc:	fbb1 f3f3 	udiv	r3, r1, r3
     e00:	1ad3      	subs	r3, r2, r3
     e02:	61fb      	str	r3, [r7, #28]
     e04:	8d3b      	ldrh	r3, [r7, #40]	; 0x28
     e06:	3301      	adds	r3, #1
     e08:	853b      	strh	r3, [r7, #40]	; 0x28
     e0a:	69fa      	ldr	r2, [r7, #28]
     e0c:	69bb      	ldr	r3, [r7, #24]
     e0e:	429a      	cmp	r2, r3
     e10:	d805      	bhi.n	e1e <LPUART_Init+0xc2>
     e12:	69fb      	ldr	r3, [r7, #28]
     e14:	61bb      	str	r3, [r7, #24]
     e16:	6a3b      	ldr	r3, [r7, #32]
     e18:	627b      	str	r3, [r7, #36]	; 0x24
     e1a:	8d3b      	ldrh	r3, [r7, #40]	; 0x28
     e1c:	857b      	strh	r3, [r7, #42]	; 0x2a
     e1e:	6a3b      	ldr	r3, [r7, #32]
     e20:	3301      	adds	r3, #1
     e22:	623b      	str	r3, [r7, #32]
     e24:	6a3b      	ldr	r3, [r7, #32]
     e26:	2b20      	cmp	r3, #32
     e28:	d9b5      	bls.n	d96 <LPUART_Init+0x3a>
     e2a:	68bb      	ldr	r3, [r7, #8]
     e2c:	681b      	ldr	r3, [r3, #0]
     e2e:	4a6c      	ldr	r2, [pc, #432]	; (fe0 <LPUART_Init+0x284>)
     e30:	fba2 2303 	umull	r2, r3, r2, r3
     e34:	095a      	lsrs	r2, r3, #5
     e36:	4613      	mov	r3, r2
     e38:	005b      	lsls	r3, r3, #1
     e3a:	4413      	add	r3, r2
     e3c:	69ba      	ldr	r2, [r7, #24]
     e3e:	429a      	cmp	r2, r3
     e40:	d902      	bls.n	e48 <LPUART_Init+0xec>
     e42:	f240 5321 	movw	r3, #1313	; 0x521
     e46:	e0c3      	b.n	fd0 <LPUART_Init+0x274>
     e48:	68f8      	ldr	r0, [r7, #12]
     e4a:	f7ff ff65 	bl	d18 <LPUART_GetInstance>
     e4e:	6178      	str	r0, [r7, #20]
     e50:	4b64      	ldr	r3, [pc, #400]	; (fe4 <LPUART_Init+0x288>)
     e52:	4618      	mov	r0, r3
     e54:	f001 febd 	bl	2bd2 <CLOCK_EnableClock>
     e58:	68fb      	ldr	r3, [r7, #12]
     e5a:	689b      	ldr	r3, [r3, #8]
     e5c:	f423 2240 	bic.w	r2, r3, #786432	; 0xc0000
     e60:	68fb      	ldr	r3, [r7, #12]
     e62:	609a      	str	r2, [r3, #8]
     e64:	68fb      	ldr	r3, [r7, #12]
     e66:	681b      	ldr	r3, [r3, #0]
     e68:	62fb      	str	r3, [r7, #44]	; 0x2c
     e6a:	6a7b      	ldr	r3, [r7, #36]	; 0x24
     e6c:	2b03      	cmp	r3, #3
     e6e:	d906      	bls.n	e7e <LPUART_Init+0x122>
     e70:	6a7b      	ldr	r3, [r7, #36]	; 0x24
     e72:	2b07      	cmp	r3, #7
     e74:	d803      	bhi.n	e7e <LPUART_Init+0x122>
     e76:	6afb      	ldr	r3, [r7, #44]	; 0x2c
     e78:	f443 3300 	orr.w	r3, r3, #131072	; 0x20000
     e7c:	62fb      	str	r3, [r7, #44]	; 0x2c
     e7e:	6afb      	ldr	r3, [r7, #44]	; 0x2c
     e80:	f023 53f8 	bic.w	r3, r3, #520093696	; 0x1f000000
     e84:	62fb      	str	r3, [r7, #44]	; 0x2c
     e86:	6a7b      	ldr	r3, [r7, #36]	; 0x24
     e88:	3b01      	subs	r3, #1
     e8a:	061b      	lsls	r3, r3, #24
     e8c:	f003 53f8 	and.w	r3, r3, #520093696	; 0x1f000000
     e90:	6afa      	ldr	r2, [r7, #44]	; 0x2c
     e92:	4313      	orrs	r3, r2
     e94:	62fb      	str	r3, [r7, #44]	; 0x2c
     e96:	6afb      	ldr	r3, [r7, #44]	; 0x2c
     e98:	f423 53ff 	bic.w	r3, r3, #8160	; 0x1fe0
     e9c:	f023 031f 	bic.w	r3, r3, #31
     ea0:	62fb      	str	r3, [r7, #44]	; 0x2c
     ea2:	8d7b      	ldrh	r3, [r7, #42]	; 0x2a
     ea4:	f3c3 020c 	ubfx	r2, r3, #0, #13
     ea8:	6afb      	ldr	r3, [r7, #44]	; 0x2c
     eaa:	431a      	orrs	r2, r3
     eac:	68fb      	ldr	r3, [r7, #12]
     eae:	601a      	str	r2, [r3, #0]
     eb0:	68fb      	ldr	r3, [r7, #12]
     eb2:	681b      	ldr	r3, [r3, #0]
     eb4:	f023 5200 	bic.w	r2, r3, #536870912	; 0x20000000
     eb8:	68fb      	ldr	r3, [r7, #12]
     eba:	601a      	str	r2, [r3, #0]
     ebc:	68fb      	ldr	r3, [r7, #12]
     ebe:	689b      	ldr	r3, [r3, #8]
     ec0:	f423 63e2 	bic.w	r3, r3, #1808	; 0x710
     ec4:	f023 0307 	bic.w	r3, r3, #7
     ec8:	62fb      	str	r3, [r7, #44]	; 0x2c
     eca:	68bb      	ldr	r3, [r7, #8]
     ecc:	791b      	ldrb	r3, [r3, #4]
     ece:	461a      	mov	r2, r3
     ed0:	68bb      	ldr	r3, [r7, #8]
     ed2:	7b5b      	ldrb	r3, [r3, #13]
     ed4:	021b      	lsls	r3, r3, #8
     ed6:	f403 63e0 	and.w	r3, r3, #1792	; 0x700
     eda:	431a      	orrs	r2, r3
     edc:	68bb      	ldr	r3, [r7, #8]
     ede:	7b1b      	ldrb	r3, [r3, #12]
     ee0:	009b      	lsls	r3, r3, #2
     ee2:	f003 0304 	and.w	r3, r3, #4
     ee6:	4313      	orrs	r3, r2
     ee8:	6afa      	ldr	r2, [r7, #44]	; 0x2c
     eea:	4313      	orrs	r3, r2
     eec:	62fb      	str	r3, [r7, #44]	; 0x2c
     eee:	68bb      	ldr	r3, [r7, #8]
     ef0:	791b      	ldrb	r3, [r3, #4]
     ef2:	2b00      	cmp	r3, #0
     ef4:	d003      	beq.n	efe <LPUART_Init+0x1a2>
     ef6:	6afb      	ldr	r3, [r7, #44]	; 0x2c
     ef8:	f043 0310 	orr.w	r3, r3, #16
     efc:	62fb      	str	r3, [r7, #44]	; 0x2c
     efe:	68fb      	ldr	r3, [r7, #12]
     f00:	6afa      	ldr	r2, [r7, #44]	; 0x2c
     f02:	609a      	str	r2, [r3, #8]
     f04:	68fb      	ldr	r3, [r7, #12]
     f06:	681b      	ldr	r3, [r3, #0]
     f08:	f423 5300 	bic.w	r3, r3, #8192	; 0x2000
     f0c:	62fb      	str	r3, [r7, #44]	; 0x2c
     f0e:	68bb      	ldr	r3, [r7, #8]
     f10:	79db      	ldrb	r3, [r3, #7]
     f12:	035b      	lsls	r3, r3, #13
     f14:	f403 5200 	and.w	r2, r3, #8192	; 0x2000
     f18:	6afb      	ldr	r3, [r7, #44]	; 0x2c
     f1a:	431a      	orrs	r2, r3
     f1c:	68fb      	ldr	r3, [r7, #12]
     f1e:	601a      	str	r2, [r3, #0]
     f20:	4b31      	ldr	r3, [pc, #196]	; (fe8 <LPUART_Init+0x28c>)
     f22:	62fb      	str	r3, [r7, #44]	; 0x2c
     f24:	6afb      	ldr	r3, [r7, #44]	; 0x2c
     f26:	f043 4300 	orr.w	r3, r3, #2147483648	; 0x80000000
     f2a:	62fb      	str	r3, [r7, #44]	; 0x2c
     f2c:	6afb      	ldr	r3, [r7, #44]	; 0x2c
     f2e:	f443 4340 	orr.w	r3, r3, #49152	; 0xc000
     f32:	62fb      	str	r3, [r7, #44]	; 0x2c
     f34:	68fb      	ldr	r3, [r7, #12]
     f36:	695a      	ldr	r2, [r3, #20]
     f38:	68bb      	ldr	r3, [r7, #8]
     f3a:	7adb      	ldrb	r3, [r3, #11]
     f3c:	011b      	lsls	r3, r3, #4
     f3e:	f003 0110 	and.w	r1, r3, #16
     f42:	68bb      	ldr	r3, [r7, #8]
     f44:	7a9b      	ldrb	r3, [r3, #10]
     f46:	015b      	lsls	r3, r3, #5
     f48:	f003 0320 	and.w	r3, r3, #32
     f4c:	430b      	orrs	r3, r1
     f4e:	431a      	orrs	r2, r3
     f50:	68fb      	ldr	r3, [r7, #12]
     f52:	615a      	str	r2, [r3, #20]
     f54:	68bb      	ldr	r3, [r7, #8]
     f56:	7a1b      	ldrb	r3, [r3, #8]
     f58:	2b00      	cmp	r3, #0
     f5a:	d005      	beq.n	f68 <LPUART_Init+0x20c>
     f5c:	68fb      	ldr	r3, [r7, #12]
     f5e:	695b      	ldr	r3, [r3, #20]
     f60:	f043 0208 	orr.w	r2, r3, #8
     f64:	68fb      	ldr	r3, [r7, #12]
     f66:	615a      	str	r2, [r3, #20]
     f68:	68bb      	ldr	r3, [r7, #8]
     f6a:	7a5b      	ldrb	r3, [r3, #9]
     f6c:	2b00      	cmp	r3, #0
     f6e:	d005      	beq.n	f7c <LPUART_Init+0x220>
     f70:	68fb      	ldr	r3, [r7, #12]
     f72:	695b      	ldr	r3, [r3, #20]
     f74:	f043 0201 	orr.w	r2, r3, #1
     f78:	68fb      	ldr	r3, [r7, #12]
     f7a:	615a      	str	r2, [r3, #20]
     f7c:	68bb      	ldr	r3, [r7, #8]
     f7e:	799b      	ldrb	r3, [r3, #6]
     f80:	2b00      	cmp	r3, #0
     f82:	d004      	beq.n	f8e <LPUART_Init+0x232>
     f84:	6afb      	ldr	r3, [r7, #44]	; 0x2c
     f86:	f043 5300 	orr.w	r3, r3, #536870912	; 0x20000000
     f8a:	62fb      	str	r3, [r7, #44]	; 0x2c
     f8c:	e003      	b.n	f96 <LPUART_Init+0x23a>
     f8e:	6afb      	ldr	r3, [r7, #44]	; 0x2c
     f90:	f023 5300 	bic.w	r3, r3, #536870912	; 0x20000000
     f94:	62fb      	str	r3, [r7, #44]	; 0x2c
     f96:	68fb      	ldr	r3, [r7, #12]
     f98:	685a      	ldr	r2, [r3, #4]
     f9a:	6afb      	ldr	r3, [r7, #44]	; 0x2c
     f9c:	431a      	orrs	r2, r3
     f9e:	68fb      	ldr	r3, [r7, #12]
     fa0:	605a      	str	r2, [r3, #4]
     fa2:	68fb      	ldr	r3, [r7, #12]
     fa4:	689b      	ldr	r3, [r3, #8]
     fa6:	62fb      	str	r3, [r7, #44]	; 0x2c
     fa8:	68bb      	ldr	r3, [r7, #8]
     faa:	7b9b      	ldrb	r3, [r3, #14]
     fac:	2b00      	cmp	r3, #0
     fae:	d003      	beq.n	fb8 <LPUART_Init+0x25c>
     fb0:	6afb      	ldr	r3, [r7, #44]	; 0x2c
     fb2:	f443 2300 	orr.w	r3, r3, #524288	; 0x80000
     fb6:	62fb      	str	r3, [r7, #44]	; 0x2c
     fb8:	68bb      	ldr	r3, [r7, #8]
     fba:	7bdb      	ldrb	r3, [r3, #15]
     fbc:	2b00      	cmp	r3, #0
     fbe:	d003      	beq.n	fc8 <LPUART_Init+0x26c>
     fc0:	6afb      	ldr	r3, [r7, #44]	; 0x2c
     fc2:	f443 2380 	orr.w	r3, r3, #262144	; 0x40000
     fc6:	62fb      	str	r3, [r7, #44]	; 0x2c
     fc8:	68fb      	ldr	r3, [r7, #12]
     fca:	6afa      	ldr	r2, [r7, #44]	; 0x2c
     fcc:	609a      	str	r2, [r3, #8]
     fce:	2300      	movs	r3, #0
     fd0:	4618      	mov	r0, r3
     fd2:	3730      	adds	r7, #48	; 0x30
     fd4:	46bd      	mov	sp, r7
     fd6:	bd80      	pop	{r7, pc}
     fd8:	00003430 	andeq	r3, r0, r0, lsr r4
     fdc:	00003458 	andeq	r3, r0, r8, asr r4
     fe0:	51eb851f 	mvnpl	r8, pc, lsl r5
     fe4:	103c000a 	eorsne	r0, ip, sl
     fe8:	401f0000 	andsmi	r0, pc, r0

00000fec <LPUART_GetDefaultConfig>:
     fec:	b580      	push	{r7, lr}
     fee:	b082      	sub	sp, #8
     ff0:	af00      	add	r7, sp, #0
     ff2:	6078      	str	r0, [r7, #4]
     ff4:	687b      	ldr	r3, [r7, #4]
     ff6:	2b00      	cmp	r3, #0
     ff8:	d102      	bne.n	1000 <_HeapSize>
     ffa:	4817      	ldr	r0, [pc, #92]	; (1058 <_HeapSize+0x58>)
     ffc:	f000 fada 	bl	15b4 <__assertion_failed>
    1000:	687b      	ldr	r3, [r7, #4]
    1002:	f44f 32e1 	mov.w	r2, #115200	; 0x1c200
    1006:	601a      	str	r2, [r3, #0]
    1008:	687b      	ldr	r3, [r7, #4]
    100a:	2200      	movs	r2, #0
    100c:	711a      	strb	r2, [r3, #4]
    100e:	687b      	ldr	r3, [r7, #4]
    1010:	2200      	movs	r2, #0
    1012:	715a      	strb	r2, [r3, #5]
    1014:	687b      	ldr	r3, [r7, #4]
    1016:	2200      	movs	r2, #0
    1018:	719a      	strb	r2, [r3, #6]
    101a:	687b      	ldr	r3, [r7, #4]
    101c:	2200      	movs	r2, #0
    101e:	71da      	strb	r2, [r3, #7]
    1020:	687b      	ldr	r3, [r7, #4]
    1022:	2200      	movs	r2, #0
    1024:	721a      	strb	r2, [r3, #8]
    1026:	687b      	ldr	r3, [r7, #4]
    1028:	2200      	movs	r2, #0
    102a:	725a      	strb	r2, [r3, #9]
    102c:	687b      	ldr	r3, [r7, #4]
    102e:	2200      	movs	r2, #0
    1030:	72da      	strb	r2, [r3, #11]
    1032:	687b      	ldr	r3, [r7, #4]
    1034:	2200      	movs	r2, #0
    1036:	729a      	strb	r2, [r3, #10]
    1038:	687b      	ldr	r3, [r7, #4]
    103a:	2200      	movs	r2, #0
    103c:	731a      	strb	r2, [r3, #12]
    103e:	687b      	ldr	r3, [r7, #4]
    1040:	2200      	movs	r2, #0
    1042:	735a      	strb	r2, [r3, #13]
    1044:	687b      	ldr	r3, [r7, #4]
    1046:	2200      	movs	r2, #0
    1048:	739a      	strb	r2, [r3, #14]
    104a:	687b      	ldr	r3, [r7, #4]
    104c:	2200      	movs	r2, #0
    104e:	73da      	strb	r2, [r3, #15]
    1050:	bf00      	nop
    1052:	3708      	adds	r7, #8
    1054:	46bd      	mov	sp, r7
    1056:	bd80      	pop	{r7, pc}
    1058:	0000348c 	andeq	r3, r0, ip, lsl #9

0000105c <LPUART0_DriverIRQHandler>:
    105c:	b580      	push	{r7, lr}
    105e:	af00      	add	r7, sp, #0
    1060:	4b05      	ldr	r3, [pc, #20]	; (1078 <LPUART0_DriverIRQHandler+0x1c>)
    1062:	681b      	ldr	r3, [r3, #0]
    1064:	4a05      	ldr	r2, [pc, #20]	; (107c <LPUART0_DriverIRQHandler+0x20>)
    1066:	6812      	ldr	r2, [r2, #0]
    1068:	4611      	mov	r1, r2
    106a:	4805      	ldr	r0, [pc, #20]	; (1080 <LPUART0_DriverIRQHandler+0x24>)
    106c:	4798      	blx	r3
    106e:	f3bf 8f4f 	dsb	sy
    1072:	bf00      	nop
    1074:	bd80      	pop	{r7, pc}
    1076:	bf00      	nop
    1078:	20000020 	andcs	r0, r0, r0, lsr #32
    107c:	2000001c 	andcs	r0, r0, ip, lsl r0
    1080:	4002a000 	andmi	sl, r2, r0

00001084 <UART_GetInstance>:
    1084:	b580      	push	{r7, lr}
    1086:	b084      	sub	sp, #16
    1088:	af00      	add	r7, sp, #0
    108a:	6078      	str	r0, [r7, #4]
    108c:	2303      	movs	r3, #3
    108e:	60bb      	str	r3, [r7, #8]
    1090:	2300      	movs	r3, #0
    1092:	60fb      	str	r3, [r7, #12]
    1094:	e009      	b.n	10aa <UART_GetInstance+0x26>
    1096:	4a0e      	ldr	r2, [pc, #56]	; (10d0 <UART_GetInstance+0x4c>)
    1098:	68fb      	ldr	r3, [r7, #12]
    109a:	f852 3023 	ldr.w	r3, [r2, r3, lsl #2]
    109e:	687a      	ldr	r2, [r7, #4]
    10a0:	429a      	cmp	r2, r3
    10a2:	d007      	beq.n	10b4 <UART_GetInstance+0x30>
    10a4:	68fb      	ldr	r3, [r7, #12]
    10a6:	3301      	adds	r3, #1
    10a8:	60fb      	str	r3, [r7, #12]
    10aa:	68fa      	ldr	r2, [r7, #12]
    10ac:	68bb      	ldr	r3, [r7, #8]
    10ae:	429a      	cmp	r2, r3
    10b0:	d3f1      	bcc.n	1096 <UART_GetInstance+0x12>
    10b2:	e000      	b.n	10b6 <UART_GetInstance+0x32>
    10b4:	bf00      	nop
    10b6:	68fa      	ldr	r2, [r7, #12]
    10b8:	68bb      	ldr	r3, [r7, #8]
    10ba:	429a      	cmp	r2, r3
    10bc:	d302      	bcc.n	10c4 <UART_GetInstance+0x40>
    10be:	4805      	ldr	r0, [pc, #20]	; (10d4 <UART_GetInstance+0x50>)
    10c0:	f000 fa78 	bl	15b4 <__assertion_failed>
    10c4:	68fb      	ldr	r3, [r7, #12]
    10c6:	4618      	mov	r0, r3
    10c8:	3710      	adds	r7, #16
    10ca:	46bd      	mov	sp, r7
    10cc:	bd80      	pop	{r7, pc}
    10ce:	bf00      	nop
    10d0:	00003830 	andeq	r3, r0, r0, lsr r8
    10d4:	00003848 	andeq	r3, r0, r8, asr #16

000010d8 <UART_Init>:
    10d8:	b580      	push	{r7, lr}
    10da:	b088      	sub	sp, #32
    10dc:	af00      	add	r7, sp, #0
    10de:	60f8      	str	r0, [r7, #12]
    10e0:	60b9      	str	r1, [r7, #8]
    10e2:	607a      	str	r2, [r7, #4]
    10e4:	68bb      	ldr	r3, [r7, #8]
    10e6:	2b00      	cmp	r3, #0
    10e8:	d102      	bne.n	10f0 <UART_Init+0x18>
    10ea:	4892      	ldr	r0, [pc, #584]	; (1334 <UART_Init+0x25c>)
    10ec:	f000 fa62 	bl	15b4 <__assertion_failed>
    10f0:	68bb      	ldr	r3, [r7, #8]
    10f2:	681b      	ldr	r3, [r3, #0]
    10f4:	2b00      	cmp	r3, #0
    10f6:	d102      	bne.n	10fe <UART_Init+0x26>
    10f8:	488f      	ldr	r0, [pc, #572]	; (1338 <UART_Init+0x260>)
    10fa:	f000 fa5b 	bl	15b4 <__assertion_failed>
    10fe:	68fb      	ldr	r3, [r7, #12]
    1100:	4a8e      	ldr	r2, [pc, #568]	; (133c <UART_Init+0x264>)
    1102:	4293      	cmp	r3, r2
    1104:	d00e      	beq.n	1124 <UART_Init+0x4c>
    1106:	68fb      	ldr	r3, [r7, #12]
    1108:	4a8d      	ldr	r2, [pc, #564]	; (1340 <UART_Init+0x268>)
    110a:	4293      	cmp	r3, r2
    110c:	d008      	beq.n	1120 <UART_Init+0x48>
    110e:	68fb      	ldr	r3, [r7, #12]
    1110:	4a8c      	ldr	r2, [pc, #560]	; (1344 <UART_Init+0x26c>)
    1112:	4293      	cmp	r3, r2
    1114:	d101      	bne.n	111a <UART_Init+0x42>
    1116:	2301      	movs	r3, #1
    1118:	e005      	b.n	1126 <UART_Init+0x4e>
    111a:	f04f 33ff 	mov.w	r3, #4294967295	; 0xffffffff
    111e:	e002      	b.n	1126 <UART_Init+0x4e>
    1120:	2301      	movs	r3, #1
    1122:	e000      	b.n	1126 <UART_Init+0x4e>
    1124:	2308      	movs	r3, #8
    1126:	68ba      	ldr	r2, [r7, #8]
    1128:	7952      	ldrb	r2, [r2, #5]
    112a:	4293      	cmp	r3, r2
    112c:	da02      	bge.n	1134 <UART_Init+0x5c>
    112e:	4886      	ldr	r0, [pc, #536]	; (1348 <UART_Init+0x270>)
    1130:	f000 fa40 	bl	15b4 <__assertion_failed>
    1134:	68fb      	ldr	r3, [r7, #12]
    1136:	4a81      	ldr	r2, [pc, #516]	; (133c <UART_Init+0x264>)
    1138:	4293      	cmp	r3, r2
    113a:	d00e      	beq.n	115a <UART_Init+0x82>
    113c:	68fb      	ldr	r3, [r7, #12]
    113e:	4a80      	ldr	r2, [pc, #512]	; (1340 <UART_Init+0x268>)
    1140:	4293      	cmp	r3, r2
    1142:	d008      	beq.n	1156 <UART_Init+0x7e>
    1144:	68fb      	ldr	r3, [r7, #12]
    1146:	4a7f      	ldr	r2, [pc, #508]	; (1344 <UART_Init+0x26c>)
    1148:	4293      	cmp	r3, r2
    114a:	d101      	bne.n	1150 <UART_Init+0x78>
    114c:	2301      	movs	r3, #1
    114e:	e005      	b.n	115c <UART_Init+0x84>
    1150:	f04f 33ff 	mov.w	r3, #4294967295	; 0xffffffff
    1154:	e002      	b.n	115c <UART_Init+0x84>
    1156:	2301      	movs	r3, #1
    1158:	e000      	b.n	115c <UART_Init+0x84>
    115a:	2308      	movs	r3, #8
    115c:	68ba      	ldr	r2, [r7, #8]
    115e:	7992      	ldrb	r2, [r2, #6]
    1160:	4293      	cmp	r3, r2
    1162:	da02      	bge.n	116a <UART_Init+0x92>
    1164:	4879      	ldr	r0, [pc, #484]	; (134c <UART_Init+0x274>)
    1166:	f000 fa25 	bl	15b4 <__assertion_failed>
    116a:	2300      	movs	r3, #0
    116c:	83fb      	strh	r3, [r7, #30]
    116e:	2300      	movs	r3, #0
    1170:	777b      	strb	r3, [r7, #29]
    1172:	2300      	movs	r3, #0
    1174:	61bb      	str	r3, [r7, #24]
    1176:	68bb      	ldr	r3, [r7, #8]
    1178:	681b      	ldr	r3, [r3, #0]
    117a:	011b      	lsls	r3, r3, #4
    117c:	687a      	ldr	r2, [r7, #4]
    117e:	fbb2 f3f3 	udiv	r3, r2, r3
    1182:	83fb      	strh	r3, [r7, #30]
    1184:	8bfb      	ldrh	r3, [r7, #30]
    1186:	2b00      	cmp	r3, #0
    1188:	d101      	bne.n	118e <UART_Init+0xb6>
    118a:	2301      	movs	r3, #1
    118c:	83fb      	strh	r3, [r7, #30]
    118e:	2300      	movs	r3, #0
    1190:	617b      	str	r3, [r7, #20]
    1192:	687b      	ldr	r3, [r7, #4]
    1194:	005a      	lsls	r2, r3, #1
    1196:	68bb      	ldr	r3, [r7, #8]
    1198:	681b      	ldr	r3, [r3, #0]
    119a:	fbb2 f3f3 	udiv	r3, r2, r3
    119e:	b29a      	uxth	r2, r3
    11a0:	8bfb      	ldrh	r3, [r7, #30]
    11a2:	015b      	lsls	r3, r3, #5
    11a4:	b29b      	uxth	r3, r3
    11a6:	1ad3      	subs	r3, r2, r3
    11a8:	827b      	strh	r3, [r7, #18]
    11aa:	687b      	ldr	r3, [r7, #4]
    11ac:	005b      	lsls	r3, r3, #1
    11ae:	8bfa      	ldrh	r2, [r7, #30]
    11b0:	0151      	lsls	r1, r2, #5
    11b2:	8a7a      	ldrh	r2, [r7, #18]
    11b4:	440a      	add	r2, r1
    11b6:	fbb3 f3f2 	udiv	r3, r3, r2
    11ba:	617b      	str	r3, [r7, #20]
    11bc:	68bb      	ldr	r3, [r7, #8]
    11be:	681b      	ldr	r3, [r3, #0]
    11c0:	697a      	ldr	r2, [r7, #20]
    11c2:	429a      	cmp	r2, r3
    11c4:	d904      	bls.n	11d0 <UART_Init+0xf8>
    11c6:	68bb      	ldr	r3, [r7, #8]
    11c8:	681b      	ldr	r3, [r3, #0]
    11ca:	697a      	ldr	r2, [r7, #20]
    11cc:	1ad3      	subs	r3, r2, r3
    11ce:	e003      	b.n	11d8 <UART_Init+0x100>
    11d0:	68bb      	ldr	r3, [r7, #8]
    11d2:	681a      	ldr	r2, [r3, #0]
    11d4:	697b      	ldr	r3, [r7, #20]
    11d6:	1ad3      	subs	r3, r2, r3
    11d8:	61bb      	str	r3, [r7, #24]
    11da:	68bb      	ldr	r3, [r7, #8]
    11dc:	681b      	ldr	r3, [r3, #0]
    11de:	4a5c      	ldr	r2, [pc, #368]	; (1350 <UART_Init+0x278>)
    11e0:	fba2 2303 	umull	r2, r3, r2, r3
    11e4:	095a      	lsrs	r2, r3, #5
    11e6:	4613      	mov	r3, r2
    11e8:	005b      	lsls	r3, r3, #1
    11ea:	4413      	add	r3, r2
    11ec:	69ba      	ldr	r2, [r7, #24]
    11ee:	429a      	cmp	r2, r3
    11f0:	d902      	bls.n	11f8 <UART_Init+0x120>
    11f2:	f240 33f5 	movw	r3, #1013	; 0x3f5
    11f6:	e098      	b.n	132a <UART_Init+0x252>
    11f8:	68f8      	ldr	r0, [r7, #12]
    11fa:	f7ff ff43 	bl	1084 <UART_GetInstance>
    11fe:	4602      	mov	r2, r0
    1200:	4b54      	ldr	r3, [pc, #336]	; (1354 <UART_Init+0x27c>)
    1202:	f853 3022 	ldr.w	r3, [r3, r2, lsl #2]
    1206:	4618      	mov	r0, r3
    1208:	f001 fcfd 	bl	2c06 <CLOCK_EnableClock>
    120c:	68fb      	ldr	r3, [r7, #12]
    120e:	78db      	ldrb	r3, [r3, #3]
    1210:	b2db      	uxtb	r3, r3
    1212:	f023 030c 	bic.w	r3, r3, #12
    1216:	b2da      	uxtb	r2, r3
    1218:	68fb      	ldr	r3, [r7, #12]
    121a:	70da      	strb	r2, [r3, #3]
    121c:	68fb      	ldr	r3, [r7, #12]
    121e:	781b      	ldrb	r3, [r3, #0]
    1220:	b2db      	uxtb	r3, r3
    1222:	f023 031f 	bic.w	r3, r3, #31
    1226:	b2da      	uxtb	r2, r3
    1228:	8bfb      	ldrh	r3, [r7, #30]
    122a:	0a1b      	lsrs	r3, r3, #8
    122c:	b29b      	uxth	r3, r3
    122e:	b2db      	uxtb	r3, r3
    1230:	4313      	orrs	r3, r2
    1232:	b2da      	uxtb	r2, r3
    1234:	68fb      	ldr	r3, [r7, #12]
    1236:	701a      	strb	r2, [r3, #0]
    1238:	8bfb      	ldrh	r3, [r7, #30]
    123a:	b2da      	uxtb	r2, r3
    123c:	68fb      	ldr	r3, [r7, #12]
    123e:	705a      	strb	r2, [r3, #1]
    1240:	68fb      	ldr	r3, [r7, #12]
    1242:	7a9b      	ldrb	r3, [r3, #10]
    1244:	b2db      	uxtb	r3, r3
    1246:	f023 031f 	bic.w	r3, r3, #31
    124a:	b2da      	uxtb	r2, r3
    124c:	8a7b      	ldrh	r3, [r7, #18]
    124e:	b2db      	uxtb	r3, r3
    1250:	f003 031f 	and.w	r3, r3, #31
    1254:	b2db      	uxtb	r3, r3
    1256:	4313      	orrs	r3, r2
    1258:	b2da      	uxtb	r2, r3
    125a:	68fb      	ldr	r3, [r7, #12]
    125c:	729a      	strb	r2, [r3, #10]
    125e:	68fb      	ldr	r3, [r7, #12]
    1260:	789b      	ldrb	r3, [r3, #2]
    1262:	b2db      	uxtb	r3, r3
    1264:	f023 0317 	bic.w	r3, r3, #23
    1268:	777b      	strb	r3, [r7, #29]
    126a:	68bb      	ldr	r3, [r7, #8]
    126c:	7a5b      	ldrb	r3, [r3, #9]
    126e:	009b      	lsls	r3, r3, #2
    1270:	b2db      	uxtb	r3, r3
    1272:	f003 0304 	and.w	r3, r3, #4
    1276:	b2da      	uxtb	r2, r3
    1278:	7f7b      	ldrb	r3, [r7, #29]
    127a:	4313      	orrs	r3, r2
    127c:	777b      	strb	r3, [r7, #29]
    127e:	68bb      	ldr	r3, [r7, #8]
    1280:	791b      	ldrb	r3, [r3, #4]
    1282:	2b00      	cmp	r3, #0
    1284:	d007      	beq.n	1296 <UART_Init+0x1be>
    1286:	68bb      	ldr	r3, [r7, #8]
    1288:	791a      	ldrb	r2, [r3, #4]
    128a:	7f7b      	ldrb	r3, [r7, #29]
    128c:	4313      	orrs	r3, r2
    128e:	b2db      	uxtb	r3, r3
    1290:	f043 0310 	orr.w	r3, r3, #16
    1294:	777b      	strb	r3, [r7, #29]
    1296:	68fb      	ldr	r3, [r7, #12]
    1298:	7f7a      	ldrb	r2, [r7, #29]
    129a:	709a      	strb	r2, [r3, #2]
    129c:	68bb      	ldr	r3, [r7, #8]
    129e:	795a      	ldrb	r2, [r3, #5]
    12a0:	68fb      	ldr	r3, [r7, #12]
    12a2:	74da      	strb	r2, [r3, #19]
    12a4:	68bb      	ldr	r3, [r7, #8]
    12a6:	799a      	ldrb	r2, [r3, #6]
    12a8:	68fb      	ldr	r3, [r7, #12]
    12aa:	755a      	strb	r2, [r3, #21]
    12ac:	68fb      	ldr	r3, [r7, #12]
    12ae:	7c1b      	ldrb	r3, [r3, #16]
    12b0:	b2db      	uxtb	r3, r3
    12b2:	f063 0377 	orn	r3, r3, #119	; 0x77
    12b6:	b2da      	uxtb	r2, r3
    12b8:	68fb      	ldr	r3, [r7, #12]
    12ba:	741a      	strb	r2, [r3, #16]
    12bc:	68fb      	ldr	r3, [r7, #12]
    12be:	7c5b      	ldrb	r3, [r3, #17]
    12c0:	b2db      	uxtb	r3, r3
    12c2:	f063 033f 	orn	r3, r3, #63	; 0x3f
    12c6:	b2da      	uxtb	r2, r3
    12c8:	68fb      	ldr	r3, [r7, #12]
    12ca:	745a      	strb	r2, [r3, #17]
    12cc:	68bb      	ldr	r3, [r7, #8]
    12ce:	79db      	ldrb	r3, [r3, #7]
    12d0:	2b00      	cmp	r3, #0
    12d2:	d007      	beq.n	12e4 <UART_Init+0x20c>
    12d4:	68fb      	ldr	r3, [r7, #12]
    12d6:	7b5b      	ldrb	r3, [r3, #13]
    12d8:	b2db      	uxtb	r3, r3
    12da:	f043 0308 	orr.w	r3, r3, #8
    12de:	b2da      	uxtb	r2, r3
    12e0:	68fb      	ldr	r3, [r7, #12]
    12e2:	735a      	strb	r2, [r3, #13]
    12e4:	68bb      	ldr	r3, [r7, #8]
    12e6:	7a1b      	ldrb	r3, [r3, #8]
    12e8:	2b00      	cmp	r3, #0
    12ea:	d007      	beq.n	12fc <UART_Init+0x224>
    12ec:	68fb      	ldr	r3, [r7, #12]
    12ee:	7b5b      	ldrb	r3, [r3, #13]
    12f0:	b2db      	uxtb	r3, r3
    12f2:	f043 0301 	orr.w	r3, r3, #1
    12f6:	b2da      	uxtb	r2, r3
    12f8:	68fb      	ldr	r3, [r7, #12]
    12fa:	735a      	strb	r2, [r3, #13]
    12fc:	68fb      	ldr	r3, [r7, #12]
    12fe:	78db      	ldrb	r3, [r3, #3]
    1300:	777b      	strb	r3, [r7, #29]
    1302:	68bb      	ldr	r3, [r7, #8]
    1304:	7a9b      	ldrb	r3, [r3, #10]
    1306:	2b00      	cmp	r3, #0
    1308:	d003      	beq.n	1312 <UART_Init+0x23a>
    130a:	7f7b      	ldrb	r3, [r7, #29]
    130c:	f043 0308 	orr.w	r3, r3, #8
    1310:	777b      	strb	r3, [r7, #29]
    1312:	68bb      	ldr	r3, [r7, #8]
    1314:	7adb      	ldrb	r3, [r3, #11]
    1316:	2b00      	cmp	r3, #0
    1318:	d003      	beq.n	1322 <UART_Init+0x24a>
    131a:	7f7b      	ldrb	r3, [r7, #29]
    131c:	f043 0304 	orr.w	r3, r3, #4
    1320:	777b      	strb	r3, [r7, #29]
    1322:	68fb      	ldr	r3, [r7, #12]
    1324:	7f7a      	ldrb	r2, [r7, #29]
    1326:	70da      	strb	r2, [r3, #3]
    1328:	2300      	movs	r3, #0
    132a:	4618      	mov	r0, r3
    132c:	3720      	adds	r7, #32
    132e:	46bd      	mov	sp, r7
    1330:	bd80      	pop	{r7, pc}
    1332:	bf00      	nop
    1334:	000038c8 	andeq	r3, r0, r8, asr #17
    1338:	000038ec 	andeq	r3, r0, ip, ror #17
    133c:	4006a000 	andmi	sl, r6, r0
    1340:	4006b000 	andmi	fp, r6, r0
    1344:	4006c000 	andmi	ip, r6, r0
    1348:	00003920 	andeq	r3, r0, r0, lsr #18
    134c:	0000397c 	andeq	r3, r0, ip, ror r9
    1350:	51eb851f 	mvnpl	r8, pc, lsl r5
    1354:	0000383c 	andeq	r3, r0, ip, lsr r8

00001358 <UART_GetDefaultConfig>:
    1358:	b580      	push	{r7, lr}
    135a:	b082      	sub	sp, #8
    135c:	af00      	add	r7, sp, #0
    135e:	6078      	str	r0, [r7, #4]
    1360:	687b      	ldr	r3, [r7, #4]
    1362:	2b00      	cmp	r3, #0
    1364:	d102      	bne.n	136c <UART_GetDefaultConfig+0x14>
    1366:	4811      	ldr	r0, [pc, #68]	; (13ac <UART_GetDefaultConfig+0x54>)
    1368:	f000 f924 	bl	15b4 <__assertion_failed>
    136c:	687b      	ldr	r3, [r7, #4]
    136e:	f44f 32e1 	mov.w	r2, #115200	; 0x1c200
    1372:	601a      	str	r2, [r3, #0]
    1374:	687b      	ldr	r3, [r7, #4]
    1376:	2200      	movs	r2, #0
    1378:	711a      	strb	r2, [r3, #4]
    137a:	687b      	ldr	r3, [r7, #4]
    137c:	2200      	movs	r2, #0
    137e:	715a      	strb	r2, [r3, #5]
    1380:	687b      	ldr	r3, [r7, #4]
    1382:	2201      	movs	r2, #1
    1384:	719a      	strb	r2, [r3, #6]
    1386:	687b      	ldr	r3, [r7, #4]
    1388:	2200      	movs	r2, #0
    138a:	71da      	strb	r2, [r3, #7]
    138c:	687b      	ldr	r3, [r7, #4]
    138e:	2200      	movs	r2, #0
    1390:	721a      	strb	r2, [r3, #8]
    1392:	687b      	ldr	r3, [r7, #4]
    1394:	2200      	movs	r2, #0
    1396:	725a      	strb	r2, [r3, #9]
    1398:	687b      	ldr	r3, [r7, #4]
    139a:	2200      	movs	r2, #0
    139c:	729a      	strb	r2, [r3, #10]
    139e:	687b      	ldr	r3, [r7, #4]
    13a0:	2200      	movs	r2, #0
    13a2:	72da      	strb	r2, [r3, #11]
    13a4:	bf00      	nop
    13a6:	3708      	adds	r7, #8
    13a8:	46bd      	mov	sp, r7
    13aa:	bd80      	pop	{r7, pc}
    13ac:	000039d8 	ldrdeq	r3, [r0], -r8

000013b0 <UART0_DriverIRQHandler>:
    13b0:	b580      	push	{r7, lr}
    13b2:	af00      	add	r7, sp, #0
    13b4:	4b05      	ldr	r3, [pc, #20]	; (13cc <UART0_DriverIRQHandler+0x1c>)
    13b6:	681b      	ldr	r3, [r3, #0]
    13b8:	4a05      	ldr	r2, [pc, #20]	; (13d0 <UART0_DriverIRQHandler+0x20>)
    13ba:	6812      	ldr	r2, [r2, #0]
    13bc:	4611      	mov	r1, r2
    13be:	4805      	ldr	r0, [pc, #20]	; (13d4 <UART0_DriverIRQHandler+0x24>)
    13c0:	4798      	blx	r3
    13c2:	f3bf 8f4f 	dsb	sy
    13c6:	bf00      	nop
    13c8:	bd80      	pop	{r7, pc}
    13ca:	bf00      	nop
    13cc:	20000030 	andcs	r0, r0, r0, lsr r0
    13d0:	20000024 	andcs	r0, r0, r4, lsr #32
    13d4:	4006a000 	andmi	sl, r6, r0

000013d8 <UART1_DriverIRQHandler>:
    13d8:	b580      	push	{r7, lr}
    13da:	af00      	add	r7, sp, #0
    13dc:	4b05      	ldr	r3, [pc, #20]	; (13f4 <UART1_DriverIRQHandler+0x1c>)
    13de:	681b      	ldr	r3, [r3, #0]
    13e0:	4a05      	ldr	r2, [pc, #20]	; (13f8 <UART1_DriverIRQHandler+0x20>)
    13e2:	6852      	ldr	r2, [r2, #4]
    13e4:	4611      	mov	r1, r2
    13e6:	4805      	ldr	r0, [pc, #20]	; (13fc <UART1_DriverIRQHandler+0x24>)
    13e8:	4798      	blx	r3
    13ea:	f3bf 8f4f 	dsb	sy
    13ee:	bf00      	nop
    13f0:	bd80      	pop	{r7, pc}
    13f2:	bf00      	nop
    13f4:	20000030 	andcs	r0, r0, r0, lsr r0
    13f8:	20000024 	andcs	r0, r0, r4, lsr #32
    13fc:	4006b000 	andmi	fp, r6, r0

00001400 <UART2_DriverIRQHandler>:
    1400:	b580      	push	{r7, lr}
    1402:	af00      	add	r7, sp, #0
    1404:	4b05      	ldr	r3, [pc, #20]	; (141c <UART2_DriverIRQHandler+0x1c>)
    1406:	681b      	ldr	r3, [r3, #0]
    1408:	4a05      	ldr	r2, [pc, #20]	; (1420 <UART2_DriverIRQHandler+0x20>)
    140a:	6892      	ldr	r2, [r2, #8]
    140c:	4611      	mov	r1, r2
    140e:	4805      	ldr	r0, [pc, #20]	; (1424 <UART2_DriverIRQHandler+0x24>)
    1410:	4798      	blx	r3
    1412:	f3bf 8f4f 	dsb	sy
    1416:	bf00      	nop
    1418:	bd80      	pop	{r7, pc}
    141a:	bf00      	nop
    141c:	20000030 	andcs	r0, r0, r0, lsr r0
    1420:	20000024 	andcs	r0, r0, r4, lsr #32
    1424:	4006c000 	andmi	ip, r6, r0

00001428 <BOARD_InitDebugConsole>:
    1428:	b580      	push	{r7, lr}
    142a:	b082      	sub	sp, #8
    142c:	af00      	add	r7, sp, #0
    142e:	f7ff f9d9 	bl	7e4 <CLOCK_GetCoreSysClkFreq>
    1432:	6078      	str	r0, [r7, #4]
    1434:	687b      	ldr	r3, [r7, #4]
    1436:	2201      	movs	r2, #1
    1438:	f44f 31e1 	mov.w	r1, #115200	; 0x1c200
    143c:	4803      	ldr	r0, [pc, #12]	; (144c <BOARD_InitDebugConsole+0x24>)
    143e:	f7fe ffe7 	bl	410 <DbgConsole_Init>
    1442:	bf00      	nop
    1444:	3708      	adds	r7, #8
    1446:	46bd      	mov	sp, r7
    1448:	bd80      	pop	{r7, pc}
    144a:	bf00      	nop
    144c:	4006b000 	andmi	fp, r6, r0

00001450 <CLOCK_SetSimSafeDivs>:
    1450:	b480      	push	{r7}
    1452:	af00      	add	r7, sp, #0
    1454:	4b05      	ldr	r3, [pc, #20]	; (146c <CLOCK_SetSimSafeDivs+0x1c>)
    1456:	f503 5382 	add.w	r3, r3, #4160	; 0x1040
    145a:	3304      	adds	r3, #4
    145c:	4a04      	ldr	r2, [pc, #16]	; (1470 <CLOCK_SetSimSafeDivs+0x20>)
    145e:	601a      	str	r2, [r3, #0]
    1460:	bf00      	nop
    1462:	46bd      	mov	sp, r7
    1464:	f85d 7b04 	ldr.w	r7, [sp], #4
    1468:	4770      	bx	lr
    146a:	bf00      	nop
    146c:	40047000 	andmi	r7, r4, r0
    1470:	01230000 			; <UNDEFINED> instruction: 0x01230000

00001474 <CLOCK_SetXtal0Freq>:
    1474:	b480      	push	{r7}
    1476:	b083      	sub	sp, #12
    1478:	af00      	add	r7, sp, #0
    147a:	6078      	str	r0, [r7, #4]
    147c:	4a04      	ldr	r2, [pc, #16]	; (1490 <CLOCK_SetXtal0Freq+0x1c>)
    147e:	687b      	ldr	r3, [r7, #4]
    1480:	6013      	str	r3, [r2, #0]
    1482:	bf00      	nop
    1484:	370c      	adds	r7, #12
    1486:	46bd      	mov	sp, r7
    1488:	f85d 7b04 	ldr.w	r7, [sp], #4
    148c:	4770      	bx	lr
    148e:	bf00      	nop
    1490:	20000014 	andcs	r0, r0, r4, lsl r0

00001494 <CLOCK_CONFIG_SetFllExtRefDiv>:
    1494:	b480      	push	{r7}
    1496:	b083      	sub	sp, #12
    1498:	af00      	add	r7, sp, #0
    149a:	4603      	mov	r3, r0
    149c:	71fb      	strb	r3, [r7, #7]
    149e:	4b0b      	ldr	r3, [pc, #44]	; (14cc <CLOCK_CONFIG_SetFllExtRefDiv+0x38>)
    14a0:	781b      	ldrb	r3, [r3, #0]
    14a2:	b2db      	uxtb	r3, r3
    14a4:	f023 0338 	bic.w	r3, r3, #56	; 0x38
    14a8:	b2da      	uxtb	r2, r3
    14aa:	79fb      	ldrb	r3, [r7, #7]
    14ac:	00db      	lsls	r3, r3, #3
    14ae:	b2db      	uxtb	r3, r3
    14b0:	f003 0338 	and.w	r3, r3, #56	; 0x38
    14b4:	b2db      	uxtb	r3, r3
    14b6:	4905      	ldr	r1, [pc, #20]	; (14cc <CLOCK_CONFIG_SetFllExtRefDiv+0x38>)
    14b8:	4313      	orrs	r3, r2
    14ba:	b2db      	uxtb	r3, r3
    14bc:	700b      	strb	r3, [r1, #0]
    14be:	bf00      	nop
    14c0:	370c      	adds	r7, #12
    14c2:	46bd      	mov	sp, r7
    14c4:	f85d 7b04 	ldr.w	r7, [sp], #4
    14c8:	4770      	bx	lr
    14ca:	bf00      	nop
    14cc:	40064000 	andmi	r4, r6, r0

000014d0 <BOARD_BootClockRUN>:
    14d0:	b580      	push	{r7, lr}
    14d2:	af00      	add	r7, sp, #0
    14d4:	f7ff ffbc 	bl	1450 <CLOCK_SetSimSafeDivs>
    14d8:	480f      	ldr	r0, [pc, #60]	; (1518 <BOARD_BootClockRUN+0x48>)
    14da:	f7ff fb51 	bl	b80 <CLOCK_InitOsc0>
    14de:	4b0f      	ldr	r3, [pc, #60]	; (151c <BOARD_BootClockRUN+0x4c>)
    14e0:	4618      	mov	r0, r3
    14e2:	f7ff ffc7 	bl	1474 <CLOCK_SetXtal0Freq>
    14e6:	2302      	movs	r3, #2
    14e8:	2100      	movs	r1, #0
    14ea:	2200      	movs	r2, #0
    14ec:	4618      	mov	r0, r3
    14ee:	f7ff fa83 	bl	9f8 <CLOCK_SetInternalRefClkConfig>
    14f2:	2300      	movs	r3, #0
    14f4:	4618      	mov	r0, r3
    14f6:	f7ff ffcd 	bl	1494 <CLOCK_CONFIG_SetFllExtRefDiv>
    14fa:	2300      	movs	r3, #0
    14fc:	4a08      	ldr	r2, [pc, #32]	; (1520 <BOARD_BootClockRUN+0x50>)
    14fe:	2100      	movs	r1, #0
    1500:	4618      	mov	r0, r3
    1502:	f7ff fbd7 	bl	cb4 <CLOCK_BootToPeeMode>
    1506:	4807      	ldr	r0, [pc, #28]	; (1524 <BOARD_BootClockRUN+0x54>)
    1508:	f7ff f980 	bl	80c <CLOCK_SetSimConfig>
    150c:	4b06      	ldr	r3, [pc, #24]	; (1528 <BOARD_BootClockRUN+0x58>)
    150e:	4a07      	ldr	r2, [pc, #28]	; (152c <BOARD_BootClockRUN+0x5c>)
    1510:	601a      	str	r2, [r3, #0]
    1512:	bf00      	nop
    1514:	bd80      	pop	{r7, pc}
    1516:	bf00      	nop
    1518:	00003d70 	andeq	r3, r0, r0, ror sp
    151c:	007a1200 	rsbseq	r1, sl, r0, lsl #4
    1520:	00003d64 	andeq	r3, r0, r4, ror #26
    1524:	00003d68 	andeq	r3, r0, r8, ror #26
    1528:	20000008 	andcs	r0, r0, r8
    152c:	04c4b400 	strbeq	fp, [r4], #1024	; 0x400

00001530 <BOARD_InitPins>:
    1530:	b580      	push	{r7, lr}
    1532:	af00      	add	r7, sp, #0
    1534:	480d      	ldr	r0, [pc, #52]	; (156c <BOARD_InitPins+0x3c>)
    1536:	f001 fb98 	bl	2c6a <CLOCK_EnableClock>
    153a:	2203      	movs	r2, #3
    153c:	2100      	movs	r1, #0
    153e:	480c      	ldr	r0, [pc, #48]	; (1570 <BOARD_InitPins+0x40>)
    1540:	f001 fbad 	bl	2c9e <PORT_SetPinMux>
    1544:	2203      	movs	r2, #3
    1546:	2101      	movs	r1, #1
    1548:	4809      	ldr	r0, [pc, #36]	; (1570 <BOARD_InitPins+0x40>)
    154a:	f001 fba8 	bl	2c9e <PORT_SetPinMux>
    154e:	4b09      	ldr	r3, [pc, #36]	; (1574 <BOARD_InitPins+0x44>)
    1550:	f503 5380 	add.w	r3, r3, #4096	; 0x1000
    1554:	3310      	adds	r3, #16
    1556:	681b      	ldr	r3, [r3, #0]
    1558:	4906      	ldr	r1, [pc, #24]	; (1574 <BOARD_InitPins+0x44>)
    155a:	f023 0230 	bic.w	r2, r3, #48	; 0x30
    155e:	f501 5380 	add.w	r3, r1, #4096	; 0x1000
    1562:	3310      	adds	r3, #16
    1564:	601a      	str	r2, [r3, #0]
    1566:	bf00      	nop
    1568:	bd80      	pop	{r7, pc}
    156a:	bf00      	nop
    156c:	1038000d 	eorsne	r0, r8, sp
    1570:	4004d000 	andmi	sp, r4, r0
    1574:	40047000 	andmi	r7, r4, r0

00001578 <SystemInit>:
    1578:	b580      	push	{r7, lr}
    157a:	af00      	add	r7, sp, #0
    157c:	4b0b      	ldr	r3, [pc, #44]	; (15ac <SystemInit+0x34>)	// r3 = &CPUID
    157e:	f8d3 3088 	ldr.w	r3, [r3, #136]	; 0x88				// r3 = CPACR
    1582:	4a0a      	ldr	r2, [pc, #40]	; (15ac <SystemInit+0x34>)
    1584:	f443 0370 	orr.w	r3, r3, #15728640	; 0xf00000		// make sure control registers are on
    1588:	f8c2 3088 	str.w	r3, [r2, #136]	; 0x88				//
    158c:	4b08      	ldr	r3, [pc, #32]	; (15b0 <SystemInit+0x38>)
    158e:	f24c 5220 	movw	r2, #50464	; 0xc520
    1592:	81da      	strh	r2, [r3, #14]
    1594:	4b06      	ldr	r3, [pc, #24]	; (15b0 <SystemInit+0x38>)
    1596:	f64d 1228 	movw	r2, #55592	; 0xd928
    159a:	81da      	strh	r2, [r3, #14]
    159c:	4b04      	ldr	r3, [pc, #16]	; (15b0 <SystemInit+0x38>)
    159e:	f44f 72e9 	mov.w	r2, #466	; 0x1d2
    15a2:	801a      	strh	r2, [r3, #0]
    15a4:	f001 fb98 	bl	2cd8 <SystemInitHook>
    15a8:	bf00      	nop
    15aa:	bd80      	pop	{r7, pc}
    15ac:	e000ed00 	and	lr, r0, r0, lsl #26
    15b0:	40052000 	andmi	r2, r5, r0

000015b4 <__assertion_failed>:
    15b4:	b510      	push	{r4, lr}
    15b6:	490f      	ldr	r1, [pc, #60]	; (15f4 <__assertion_failed+0x40>)
    15b8:	4604      	mov	r4, r0
    15ba:	480f      	ldr	r0, [pc, #60]	; (15f8 <__assertion_failed+0x44>)
    15bc:	f001 fcae 	bl	2f1c <fputs>
    15c0:	490c      	ldr	r1, [pc, #48]	; (15f4 <__assertion_failed+0x40>)
    15c2:	4620      	mov	r0, r4
    15c4:	f001 fcaa 	bl	2f1c <fputs>
    15c8:	490c      	ldr	r1, [pc, #48]	; (15fc <__assertion_failed+0x48>)
    15ca:	f8d1 3080 	ldr.w	r3, [r1, #128]	; 0x80
    15ce:	3b01      	subs	r3, #1
    15d0:	2b00      	cmp	r3, #0
    15d2:	f8c1 3080 	str.w	r3, [r1, #128]	; 0x80
    15d6:	db08      	blt.n	15ea <__assertion_failed+0x36>
    15d8:	6f8b      	ldr	r3, [r1, #120]	; 0x78
    15da:	1c5a      	adds	r2, r3, #1
    15dc:	678a      	str	r2, [r1, #120]	; 0x78
    15de:	220a      	movs	r2, #10
    15e0:	701a      	strb	r2, [r3, #0]
    15e2:	e8bd 4010 	ldmia.w	sp!, {r4, lr}
    15e6:	f000 b80b 	b.w	1600 <__exit>
    15ea:	3178      	adds	r1, #120	; 0x78
    15ec:	200a      	movs	r0, #10
    15ee:	f001 fbb4 	bl	2d5a <__flsbuf>
    15f2:	e7f6      	b.n	15e2 <__assertion_failed+0x2e>
    15f4:	200000ac 	andcs	r0, r0, ip, lsr #1
    15f8:	00003d7c 	andeq	r3, r0, ip, ror sp
    15fc:	20000034 	andcs	r0, r0, r4, lsr r0

00001600 <__exit>:
    1600:	2018      	movs	r0, #24
    1602:	4901      	ldr	r1, [pc, #4]	; (1608 <__exit+0x8>)
    1604:	beab      	bkpt	0x00ab
    1606:	4770      	bx	lr
    1608:	00020026 	andeq	r0, r2, r6, lsr #32

0000160c <__filbuf>:
    160c:	b5f8      	push	{r3, r4, r5, r6, r7, lr}
    160e:	68c3      	ldr	r3, [r0, #12]
    1610:	031e      	lsls	r6, r3, #12
    1612:	4604      	mov	r4, r0
    1614:	d509      	bpl.n	162a <__filbuf+0x1e>
    1616:	6b42      	ldr	r2, [r0, #52]	; 0x34
    1618:	6042      	str	r2, [r0, #4]
    161a:	f423 2300 	bic.w	r3, r3, #524288	; 0x80000
    161e:	6b82      	ldr	r2, [r0, #56]	; 0x38
    1620:	6082      	str	r2, [r0, #8]
    1622:	60c3      	str	r3, [r0, #12]
    1624:	f890 0025 	ldrb.w	r0, [r0, #37]	; 0x25
    1628:	bdf8      	pop	{r3, r4, r5, r6, r7, pc}
    162a:	069d      	lsls	r5, r3, #26
    162c:	d501      	bpl.n	1632 <__filbuf+0x26>
    162e:	f001 fb74 	bl	2d1a <_deferredlazyseek>
    1632:	68e3      	ldr	r3, [r4, #12]
    1634:	f246 02c9 	movw	r2, #24777	; 0x60c9
    1638:	401a      	ands	r2, r3
    163a:	2a01      	cmp	r2, #1
    163c:	d00f      	beq.n	165e <__filbuf+0x52>
    163e:	2200      	movs	r2, #0
    1640:	6062      	str	r2, [r4, #4]
    1642:	f244 0240 	movw	r2, #16448	; 0x4040
    1646:	4213      	tst	r3, r2
    1648:	d076      	beq.n	1738 <__filbuf+0x12c>
    164a:	f423 43a0 	bic.w	r3, r3, #20480	; 0x5000
    164e:	f023 0340 	bic.w	r3, r3, #64	; 0x40
    1652:	f043 0340 	orr.w	r3, r3, #64	; 0x40
    1656:	60e3      	str	r3, [r4, #12]
    1658:	f04f 30ff 	mov.w	r0, #4294967295	; 0xffffffff
    165c:	e7e4      	b.n	1628 <__filbuf+0x1c>
    165e:	4a47      	ldr	r2, [pc, #284]	; (177c <__filbuf+0x170>)
    1660:	4213      	tst	r3, r2
    1662:	d10c      	bne.n	167e <__filbuf+0x72>
    1664:	f44f 7080 	mov.w	r0, #256	; 0x100
    1668:	f000 f926 	bl	18b8 <_Csys_alloc>
    166c:	f44f 7380 	mov.w	r3, #256	; 0x100
    1670:	61e3      	str	r3, [r4, #28]
    1672:	68e3      	ldr	r3, [r4, #12]
    1674:	6120      	str	r0, [r4, #16]
    1676:	f443 6300 	orr.w	r3, r3, #2048	; 0x800
    167a:	6020      	str	r0, [r4, #0]
    167c:	60e3      	str	r3, [r4, #12]
    167e:	6862      	ldr	r2, [r4, #4]
    1680:	68e3      	ldr	r3, [r4, #12]
    1682:	1c50      	adds	r0, r2, #1
    1684:	da0d      	bge.n	16a2 <__filbuf+0x96>
    1686:	f443 5380 	orr.w	r3, r3, #4096	; 0x1000
    168a:	f1c2 22ff 	rsb	r2, r2, #4278255360	; 0xff00ff00
    168e:	60e3      	str	r3, [r4, #12]
    1690:	f502 027f 	add.w	r2, r2, #16711680	; 0xff0000
    1694:	6823      	ldr	r3, [r4, #0]
    1696:	32fe      	adds	r2, #254	; 0xfe
    1698:	6062      	str	r2, [r4, #4]
    169a:	1c5a      	adds	r2, r3, #1
    169c:	6022      	str	r2, [r4, #0]
    169e:	7818      	ldrb	r0, [r3, #0]
    16a0:	e7c2      	b.n	1628 <__filbuf+0x1c>
    16a2:	06d9      	lsls	r1, r3, #27
    16a4:	6967      	ldr	r7, [r4, #20]
    16a6:	d504      	bpl.n	16b2 <__filbuf+0xa6>
    16a8:	03da      	lsls	r2, r3, #15
    16aa:	d53e      	bpl.n	172a <__filbuf+0x11e>
    16ac:	4620      	mov	r0, r4
    16ae:	f001 fbf4 	bl	2e9a <_fflush>
    16b2:	68e2      	ldr	r2, [r4, #12]
    16b4:	69e5      	ldr	r5, [r4, #28]
    16b6:	6926      	ldr	r6, [r4, #16]
    16b8:	6821      	ldr	r1, [r4, #0]
    16ba:	f442 5380 	orr.w	r3, r2, #4096	; 0x1000
    16be:	60e3      	str	r3, [r4, #12]
    16c0:	03d3      	lsls	r3, r2, #15
    16c2:	d54c      	bpl.n	175e <__filbuf+0x152>
    16c4:	6ae3      	ldr	r3, [r4, #44]	; 0x2c
    16c6:	4299      	cmp	r1, r3
    16c8:	bf2c      	ite	cs
    16ca:	ebc6 0601 	rsbcs	r6, r6, r1
    16ce:	ebc6 0603 	rsbcc	r6, r6, r3
    16d2:	1bad      	subs	r5, r5, r6
    16d4:	d133      	bne.n	173e <__filbuf+0x132>
    16d6:	4620      	mov	r0, r4
    16d8:	f001 fbdf 	bl	2e9a <_fflush>
    16dc:	69e5      	ldr	r5, [r4, #28]
    16de:	69e6      	ldr	r6, [r4, #28]
    16e0:	6921      	ldr	r1, [r4, #16]
    16e2:	1b76      	subs	r6, r6, r5
    16e4:	440e      	add	r6, r1
    16e6:	68e3      	ldr	r3, [r4, #12]
    16e8:	f023 0310 	bic.w	r3, r3, #16
    16ec:	60e3      	str	r3, [r4, #12]
    16ee:	462a      	mov	r2, r5
    16f0:	4631      	mov	r1, r6
    16f2:	4638      	mov	r0, r7
    16f4:	f001 fb00 	bl	2cf8 <_Csys_read_>
    16f8:	2800      	cmp	r0, #0
    16fa:	bfbe      	ittt	lt
    16fc:	68e3      	ldrlt	r3, [r4, #12]
    16fe:	f020 4000 	biclt.w	r0, r0, #2147483648	; 0x80000000
    1702:	f443 4380 	orrlt.w	r3, r3, #16384	; 0x4000
    1706:	eba5 0500 	sub.w	r5, r5, r0
    170a:	bfb8      	it	lt
    170c:	60e3      	strlt	r3, [r4, #12]
    170e:	1973      	adds	r3, r6, r5
    1710:	62e3      	str	r3, [r4, #44]	; 0x2c
    1712:	69e3      	ldr	r3, [r4, #28]
    1714:	6323      	str	r3, [r4, #48]	; 0x30
    1716:	68e3      	ldr	r3, [r4, #12]
    1718:	bb35      	cbnz	r5, 1768 <__filbuf+0x15c>
    171a:	f423 5380 	bic.w	r3, r3, #4096	; 0x1000
    171e:	f043 0340 	orr.w	r3, r3, #64	; 0x40
    1722:	60e3      	str	r3, [r4, #12]
    1724:	e9c4 6500 	strd	r6, r5, [r4]
    1728:	e796      	b.n	1658 <__filbuf+0x4c>
    172a:	69a1      	ldr	r1, [r4, #24]
    172c:	4638      	mov	r0, r7
    172e:	f001 fcf7 	bl	3120 <__sys_seek>
    1732:	2800      	cmp	r0, #0
    1734:	dabd      	bge.n	16b2 <__filbuf+0xa6>
    1736:	68e3      	ldr	r3, [r4, #12]
    1738:	f043 0380 	orr.w	r3, r3, #128	; 0x80
    173c:	e78b      	b.n	1656 <__filbuf+0x4a>
    173e:	4b10      	ldr	r3, [pc, #64]	; (1780 <__filbuf+0x174>)
    1740:	4013      	ands	r3, r2
    1742:	2b00      	cmp	r3, #0
    1744:	d1cb      	bne.n	16de <__filbuf+0xd2>
    1746:	69a1      	ldr	r1, [r4, #24]
    1748:	4638      	mov	r0, r7
    174a:	4431      	add	r1, r6
    174c:	f001 fce8 	bl	3120 <__sys_seek>
    1750:	2800      	cmp	r0, #0
    1752:	68e3      	ldr	r3, [r4, #12]
    1754:	dbf0      	blt.n	1738 <__filbuf+0x12c>
    1756:	f443 3300 	orr.w	r3, r3, #131072	; 0x20000
    175a:	60e3      	str	r3, [r4, #12]
    175c:	e7bf      	b.n	16de <__filbuf+0xd2>
    175e:	69a3      	ldr	r3, [r4, #24]
    1760:	1b89      	subs	r1, r1, r6
    1762:	4419      	add	r1, r3
    1764:	61a1      	str	r1, [r4, #24]
    1766:	e7be      	b.n	16e6 <__filbuf+0xda>
    1768:	3d01      	subs	r5, #1
    176a:	1c72      	adds	r2, r6, #1
    176c:	f443 3300 	orr.w	r3, r3, #131072	; 0x20000
    1770:	6065      	str	r5, [r4, #4]
    1772:	6022      	str	r2, [r4, #0]
    1774:	60e3      	str	r3, [r4, #12]
    1776:	7830      	ldrb	r0, [r6, #0]
    1778:	e756      	b.n	1628 <__filbuf+0x1c>
    177a:	bf00      	nop
    177c:	00010f00 	andeq	r0, r1, r0, lsl #30
    1780:	00020010 	andeq	r0, r2, r0, lsl r0

00001784 <_Cwritebuf>:
    1784:	e92d 41f0 	stmdb	sp!, {r4, r5, r6, r7, r8, lr}
    1788:	68d5      	ldr	r5, [r2, #12]
    178a:	6957      	ldr	r7, [r2, #20]
    178c:	02eb      	lsls	r3, r5, #11
    178e:	4680      	mov	r8, r0
    1790:	460e      	mov	r6, r1
    1792:	4614      	mov	r4, r2
    1794:	d505      	bpl.n	17a2 <_Cwritebuf+0x1e>
    1796:	4638      	mov	r0, r7
    1798:	f001 fca6 	bl	30e8 <__sys_flen>
    179c:	f045 0510 	orr.w	r5, r5, #16
    17a0:	61a0      	str	r0, [r4, #24]
    17a2:	4b12      	ldr	r3, [pc, #72]	; (17ec <_Cwritebuf+0x68>)
    17a4:	402b      	ands	r3, r5
    17a6:	b18b      	cbz	r3, 17cc <_Cwritebuf+0x48>
    17a8:	69a1      	ldr	r1, [r4, #24]
    17aa:	4638      	mov	r0, r7
    17ac:	f001 fcb8 	bl	3120 <__sys_seek>
    17b0:	2800      	cmp	r0, #0
    17b2:	da06      	bge.n	17c2 <_Cwritebuf+0x3e>
    17b4:	68e3      	ldr	r3, [r4, #12]
    17b6:	f043 0380 	orr.w	r3, r3, #128	; 0x80
    17ba:	60e3      	str	r3, [r4, #12]
    17bc:	f04f 30ff 	mov.w	r0, #4294967295	; 0xffffffff
    17c0:	e011      	b.n	17e6 <_Cwritebuf+0x62>
    17c2:	f425 3500 	bic.w	r5, r5, #131072	; 0x20000
    17c6:	f025 0510 	bic.w	r5, r5, #16
    17ca:	60e5      	str	r5, [r4, #12]
    17cc:	4632      	mov	r2, r6
    17ce:	4641      	mov	r1, r8
    17d0:	4638      	mov	r0, r7
    17d2:	f001 fcb1 	bl	3138 <__sys_write>
    17d6:	f020 4300 	bic.w	r3, r0, #2147483648	; 0x80000000
    17da:	1af6      	subs	r6, r6, r3
    17dc:	69a3      	ldr	r3, [r4, #24]
    17de:	441e      	add	r6, r3
    17e0:	61a6      	str	r6, [r4, #24]
    17e2:	2800      	cmp	r0, #0
    17e4:	d1e6      	bne.n	17b4 <_Cwritebuf+0x30>
    17e6:	e8bd 81f0 	ldmia.w	sp!, {r4, r5, r6, r7, r8, pc}
    17ea:	bf00      	nop
    17ec:	00020010 	andeq	r0, r2, r0, lsl r0

000017f0 <malloc>:
    17f0:	b5f8      	push	{r3, r4, r5, r6, r7, lr}
    17f2:	4f30      	ldr	r7, [pc, #192]	; (18b4 <malloc+0xc4>)
    17f4:	683c      	ldr	r4, [r7, #0]
    17f6:	2800      	cmp	r0, #0
    17f8:	d151      	bne.n	189e <malloc+0xae>
    17fa:	2000      	movs	r0, #0
    17fc:	bdf8      	pop	{r3, r4, r5, r6, r7, pc}
    17fe:	6823      	ldr	r3, [r4, #0]
    1800:	f1b3 5f80 	cmp.w	r3, #268435456	; 0x10000000
    1804:	d139      	bne.n	187a <malloc+0x8a>
    1806:	e9d4 3101 	ldrd	r3, r1, [r4, #4]
    180a:	b151      	cbz	r1, 1822 <malloc+0x32>
    180c:	680a      	ldr	r2, [r1, #0]
    180e:	f1b2 5f80 	cmp.w	r2, #268435456	; 0x10000000
    1812:	d106      	bne.n	1822 <malloc+0x32>
    1814:	1cda      	adds	r2, r3, #3
    1816:	684b      	ldr	r3, [r1, #4]
    1818:	441a      	add	r2, r3
    181a:	688b      	ldr	r3, [r1, #8]
    181c:	6062      	str	r2, [r4, #4]
    181e:	60a3      	str	r3, [r4, #8]
    1820:	e7f1      	b.n	1806 <malloc+0x16>
    1822:	42ab      	cmp	r3, r5
    1824:	db07      	blt.n	1836 <malloc+0x46>
    1826:	459e      	cmp	lr, r3
    1828:	db05      	blt.n	1836 <malloc+0x46>
    182a:	4620      	mov	r0, r4
    182c:	f04f 5300 	mov.w	r3, #536870912	; 0x20000000
    1830:	f840 3b0c 	str.w	r3, [r0], #12
    1834:	e7e2      	b.n	17fc <malloc+0xc>
    1836:	4563      	cmp	r3, ip
    1838:	d911      	bls.n	185e <malloc+0x6e>
    183a:	4620      	mov	r0, r4
    183c:	f04f 5200 	mov.w	r2, #536870912	; 0x20000000
    1840:	6065      	str	r5, [r4, #4]
    1842:	f840 2b0c 	str.w	r2, [r0], #12
    1846:	1b5b      	subs	r3, r3, r5
    1848:	eb00 0285 	add.w	r2, r0, r5, lsl #2
    184c:	60a2      	str	r2, [r4, #8]
    184e:	3b03      	subs	r3, #3
    1850:	f04f 5480 	mov.w	r4, #268435456	; 0x10000000
    1854:	f840 4025 	str.w	r4, [r0, r5, lsl #2]
    1858:	e9c2 3101 	strd	r3, r1, [r2, #4]
    185c:	e7ce      	b.n	17fc <malloc+0xc>
    185e:	b961      	cbnz	r1, 187a <malloc+0x8a>
    1860:	eba0 0083 	sub.w	r0, r0, r3, lsl #2
    1864:	f000 ff5a 	bl	271c <_sbrk>
    1868:	3001      	adds	r0, #1
    186a:	d0c6      	beq.n	17fa <malloc+0xa>
    186c:	f04f 5300 	mov.w	r3, #536870912	; 0x20000000
    1870:	e9c4 3500 	strd	r3, r5, [r4]
    1874:	f104 000c 	add.w	r0, r4, #12
    1878:	e7c0      	b.n	17fc <malloc+0xc>
    187a:	4626      	mov	r6, r4
    187c:	68a4      	ldr	r4, [r4, #8]
    187e:	2c00      	cmp	r4, #0
    1880:	d1bd      	bne.n	17fe <malloc+0xe>
    1882:	300c      	adds	r0, #12
    1884:	f000 ff4a 	bl	271c <_sbrk>
    1888:	1c43      	adds	r3, r0, #1
    188a:	d0b6      	beq.n	17fa <malloc+0xa>
    188c:	f04f 5300 	mov.w	r3, #536870912	; 0x20000000
    1890:	e9c0 3500 	strd	r3, r5, [r0]
    1894:	6084      	str	r4, [r0, #8]
    1896:	b956      	cbnz	r6, 18ae <malloc+0xbe>
    1898:	6038      	str	r0, [r7, #0]
    189a:	300c      	adds	r0, #12
    189c:	e7ae      	b.n	17fc <malloc+0xc>
    189e:	1cc3      	adds	r3, r0, #3
    18a0:	089d      	lsrs	r5, r3, #2
    18a2:	2600      	movs	r6, #0
    18a4:	f105 0c0a 	add.w	ip, r5, #10
    18a8:	f105 0e03 	add.w	lr, r5, #3
    18ac:	e7e7      	b.n	187e <malloc+0x8e>
    18ae:	60b0      	str	r0, [r6, #8]
    18b0:	e7f3      	b.n	189a <malloc+0xaa>
    18b2:	bf00      	nop
    18b4:	200000ec 	andcs	r0, r0, ip, ror #1

000018b8 <_Csys_alloc>:
    18b8:	b510      	push	{r4, lr}
    18ba:	f7ff ff99 	bl	17f0 <malloc>
    18be:	4604      	mov	r4, r0
    18c0:	b928      	cbnz	r0, 18ce <_Csys_alloc+0x16>
    18c2:	2217      	movs	r2, #23
    18c4:	4903      	ldr	r1, [pc, #12]	; (18d4 <_Csys_alloc+0x1c>)
    18c6:	f001 fc37 	bl	3138 <__sys_write>
    18ca:	f7ff fe99 	bl	1600 <__exit>
    18ce:	4620      	mov	r0, r4
    18d0:	bd10      	pop	{r4, pc}
    18d2:	bf00      	nop
    18d4:	00003d91 	muleq	r0, r1, sp

000018d8 <fseek>:
    18d8:	e92d 43f8 	stmdb	sp!, {r3, r4, r5, r6, r7, r8, r9, lr}
    18dc:	68c6      	ldr	r6, [r0, #12]
    18de:	4b3d      	ldr	r3, [pc, #244]	; (19d4 <fseek+0xfc>)
    18e0:	4033      	ands	r3, r6
    18e2:	4604      	mov	r4, r0
    18e4:	460d      	mov	r5, r1
    18e6:	4690      	mov	r8, r2
    18e8:	b90b      	cbnz	r3, 18ee <fseek+0x16>
    18ea:	2702      	movs	r7, #2
    18ec:	e047      	b.n	197e <fseek+0xa6>
    18ee:	f8d0 9014 	ldr.w	r9, [r0, #20]
    18f2:	4648      	mov	r0, r9
    18f4:	f001 fbfe 	bl	30f4 <__sys_istty>
    18f8:	4607      	mov	r7, r0
    18fa:	2800      	cmp	r0, #0
    18fc:	d1f5      	bne.n	18ea <fseek+0x12>
    18fe:	f1b8 0f01 	cmp.w	r8, #1
    1902:	d02c      	beq.n	195e <fseek+0x86>
    1904:	f1b8 0f02 	cmp.w	r8, #2
    1908:	d02e      	beq.n	1968 <fseek+0x90>
    190a:	f1b8 0f00 	cmp.w	r8, #0
    190e:	d1ec      	bne.n	18ea <fseek+0x12>
    1910:	2d00      	cmp	r5, #0
    1912:	dbea      	blt.n	18ea <fseek+0x12>
    1914:	04b0      	lsls	r0, r6, #18
    1916:	d504      	bpl.n	1922 <fseek+0x4a>
    1918:	6823      	ldr	r3, [r4, #0]
    191a:	6ae2      	ldr	r2, [r4, #44]	; 0x2c
    191c:	429a      	cmp	r2, r3
    191e:	bf38      	it	cc
    1920:	62e3      	strcc	r3, [r4, #44]	; 0x2c
    1922:	69a1      	ldr	r1, [r4, #24]
    1924:	42a9      	cmp	r1, r5
    1926:	dc0e      	bgt.n	1946 <fseek+0x6e>
    1928:	6823      	ldr	r3, [r4, #0]
    192a:	6ae2      	ldr	r2, [r4, #44]	; 0x2c
    192c:	4293      	cmp	r3, r2
    192e:	bf38      	it	cc
    1930:	4613      	movcc	r3, r2
    1932:	6922      	ldr	r2, [r4, #16]
    1934:	1858      	adds	r0, r3, r1
    1936:	1a80      	subs	r0, r0, r2
    1938:	42a8      	cmp	r0, r5
    193a:	db04      	blt.n	1946 <fseek+0x6e>
    193c:	6b20      	ldr	r0, [r4, #48]	; 0x30
    193e:	eb01 0c00 	add.w	ip, r1, r0
    1942:	45ac      	cmp	ip, r5
    1944:	dc36      	bgt.n	19b4 <fseek+0xdc>
    1946:	2300      	movs	r3, #0
    1948:	e9c4 3301 	strd	r3, r3, [r4, #4]
    194c:	f046 0620 	orr.w	r6, r6, #32
    1950:	62a5      	str	r5, [r4, #40]	; 0x28
    1952:	f426 2603 	bic.w	r6, r6, #536576	; 0x83000
    1956:	f026 0640 	bic.w	r6, r6, #64	; 0x40
    195a:	60e6      	str	r6, [r4, #12]
    195c:	e00f      	b.n	197e <fseek+0xa6>
    195e:	4620      	mov	r0, r4
    1960:	f000 f83a 	bl	19d8 <ftell>
    1964:	4405      	add	r5, r0
    1966:	e7d3      	b.n	1910 <fseek+0x38>
    1968:	4648      	mov	r0, r9
    196a:	f001 fbbd 	bl	30e8 <__sys_flen>
    196e:	f1b0 0c00 	subs.w	ip, r0, #0
    1972:	68e2      	ldr	r2, [r4, #12]
    1974:	da06      	bge.n	1984 <fseek+0xac>
    1976:	f042 0280 	orr.w	r2, r2, #128	; 0x80
    197a:	60e2      	str	r2, [r4, #12]
    197c:	2701      	movs	r7, #1
    197e:	4638      	mov	r0, r7
    1980:	e8bd 83f8 	ldmia.w	sp!, {r3, r4, r5, r6, r7, r8, r9, pc}
    1984:	6ae3      	ldr	r3, [r4, #44]	; 0x2c
    1986:	4618      	mov	r0, r3
    1988:	69a3      	ldr	r3, [r4, #24]
    198a:	4619      	mov	r1, r3
    198c:	6823      	ldr	r3, [r4, #0]
    198e:	4283      	cmp	r3, r0
    1990:	bf2c      	ite	cs
    1992:	18c9      	addcs	r1, r1, r3
    1994:	1809      	addcc	r1, r1, r0
    1996:	460b      	mov	r3, r1
    1998:	6921      	ldr	r1, [r4, #16]
    199a:	0692      	lsls	r2, r2, #26
    199c:	eba3 0301 	sub.w	r3, r3, r1
    19a0:	d503      	bpl.n	19aa <fseek+0xd2>
    19a2:	6aa2      	ldr	r2, [r4, #40]	; 0x28
    19a4:	4293      	cmp	r3, r2
    19a6:	bfb8      	it	lt
    19a8:	4613      	movlt	r3, r2
    19aa:	4563      	cmp	r3, ip
    19ac:	bfac      	ite	ge
    19ae:	18ed      	addge	r5, r5, r3
    19b0:	4465      	addlt	r5, ip
    19b2:	e7ad      	b.n	1910 <fseek+0x38>
    19b4:	1a6d      	subs	r5, r5, r1
    19b6:	07b1      	lsls	r1, r6, #30
    19b8:	bf44      	itt	mi
    19ba:	1a28      	submi	r0, r5, r0
    19bc:	60a0      	strmi	r0, [r4, #8]
    19be:	07f1      	lsls	r1, r6, #31
    19c0:	bf44      	itt	mi
    19c2:	1a9b      	submi	r3, r3, r2
    19c4:	1aeb      	submi	r3, r5, r3
    19c6:	4415      	add	r5, r2
    19c8:	bf48      	it	mi
    19ca:	6063      	strmi	r3, [r4, #4]
    19cc:	6025      	str	r5, [r4, #0]
    19ce:	f026 0620 	bic.w	r6, r6, #32
    19d2:	e7be      	b.n	1952 <fseek+0x7a>
    19d4:	00100003 	andseq	r0, r0, r3

000019d8 <ftell>:
    19d8:	68c3      	ldr	r3, [r0, #12]
    19da:	079a      	lsls	r2, r3, #30
    19dc:	d105      	bne.n	19ea <ftell+0x12>
    19de:	4b0e      	ldr	r3, [pc, #56]	; (1a18 <ftell+0x40>)
    19e0:	2221      	movs	r2, #33	; 0x21
    19e2:	601a      	str	r2, [r3, #0]
    19e4:	f04f 30ff 	mov.w	r0, #4294967295	; 0xffffffff
    19e8:	4770      	bx	lr
    19ea:	f003 0220 	and.w	r2, r3, #32
    19ee:	031b      	lsls	r3, r3, #12
    19f0:	d509      	bpl.n	1a06 <ftell+0x2e>
    19f2:	b112      	cbz	r2, 19fa <ftell+0x22>
    19f4:	6a80      	ldr	r0, [r0, #40]	; 0x28
    19f6:	3801      	subs	r0, #1
    19f8:	4770      	bx	lr
    19fa:	6803      	ldr	r3, [r0, #0]
    19fc:	6982      	ldr	r2, [r0, #24]
    19fe:	6900      	ldr	r0, [r0, #16]
    1a00:	4413      	add	r3, r2
    1a02:	1a18      	subs	r0, r3, r0
    1a04:	e7f7      	b.n	19f6 <ftell+0x1e>
    1a06:	b10a      	cbz	r2, 1a0c <ftell+0x34>
    1a08:	6a80      	ldr	r0, [r0, #40]	; 0x28
    1a0a:	4770      	bx	lr
    1a0c:	6803      	ldr	r3, [r0, #0]
    1a0e:	6982      	ldr	r2, [r0, #24]
    1a10:	6900      	ldr	r0, [r0, #16]
    1a12:	4413      	add	r3, r2
    1a14:	1a18      	subs	r0, r3, r0
    1a16:	4770      	bx	lr
    1a18:	200000f0 	strdcs	r0, [r0], -r0	; <UNPREDICTABLE>

00001a1c <_initio>:
    1a1c:	b510      	push	{r4, lr}
    1a1e:	4a17      	ldr	r2, [pc, #92]	; (1a7c <_initio+0x60>)
    1a20:	4917      	ldr	r1, [pc, #92]	; (1a80 <_initio+0x64>)
    1a22:	2000      	movs	r0, #0
    1a24:	f001 fab7 	bl	2f96 <_fdopen>
    1a28:	f44f 7380 	mov.w	r3, #256	; 0x100
    1a2c:	f44f 6280 	mov.w	r2, #1024	; 0x400
    1a30:	2100      	movs	r1, #0
    1a32:	4812      	ldr	r0, [pc, #72]	; (1a7c <_initio+0x60>)
    1a34:	f000 fe52 	bl	26dc <setvbuf>
    1a38:	4a12      	ldr	r2, [pc, #72]	; (1a84 <_initio+0x68>)
    1a3a:	4913      	ldr	r1, [pc, #76]	; (1a88 <_initio+0x6c>)
    1a3c:	2001      	movs	r0, #1
    1a3e:	f001 faaa 	bl	2f96 <_fdopen>
    1a42:	f44f 7380 	mov.w	r3, #256	; 0x100
    1a46:	f44f 6280 	mov.w	r2, #1024	; 0x400
    1a4a:	2100      	movs	r1, #0
    1a4c:	480d      	ldr	r0, [pc, #52]	; (1a84 <_initio+0x68>)
    1a4e:	f000 fe45 	bl	26dc <setvbuf>
    1a52:	4b0e      	ldr	r3, [pc, #56]	; (1a8c <_initio+0x70>)
    1a54:	681b      	ldr	r3, [r3, #0]
    1a56:	2b02      	cmp	r3, #2
    1a58:	dd0e      	ble.n	1a78 <_initio+0x5c>
    1a5a:	4a0d      	ldr	r2, [pc, #52]	; (1a90 <_initio+0x74>)
    1a5c:	490a      	ldr	r1, [pc, #40]	; (1a88 <_initio+0x6c>)
    1a5e:	2002      	movs	r0, #2
    1a60:	f001 fa99 	bl	2f96 <_fdopen>
    1a64:	f44f 7380 	mov.w	r3, #256	; 0x100
    1a68:	f44f 6280 	mov.w	r2, #1024	; 0x400
    1a6c:	2100      	movs	r1, #0
    1a6e:	4808      	ldr	r0, [pc, #32]	; (1a90 <_initio+0x74>)
    1a70:	e8bd 4010 	ldmia.w	sp!, {r4, lr}
    1a74:	f000 be32 	b.w	26dc <setvbuf>
    1a78:	bd10      	pop	{r4, pc}
    1a7a:	bf00      	nop
    1a7c:	20000034 	andcs	r0, r0, r4, lsr r0
    1a80:	00003da9 	andeq	r3, r0, r9, lsr #27
    1a84:	20000070 	andcs	r0, r0, r0, ror r0
    1a88:	00003dab 	andeq	r3, r0, fp, lsr #27
    1a8c:	00003d78 	andeq	r3, r0, r8, ror sp
    1a90:	200000ac 	andcs	r0, r0, ip, lsr #1

00001a94 <__vfprintf>:
    1a94:	e92d 4ff0 	stmdb	sp!, {r4, r5, r6, r7, r8, r9, sl, fp, lr}
    1a98:	b09f      	sub	sp, #124	; 0x7c
    1a9a:	e9cd 230a 	strd	r2, r3, [sp, #40]	; 0x28
    1a9e:	e9dd 3928 	ldrd	r3, r9, [sp, #160]	; 0xa0
    1aa2:	2200      	movs	r2, #0
    1aa4:	4605      	mov	r5, r0
    1aa6:	9205      	str	r2, [sp, #20]
    1aa8:	7818      	ldrb	r0, [r3, #0]
    1aaa:	f103 0801 	add.w	r8, r3, #1
    1aae:	b918      	cbnz	r0, 1ab8 <__vfprintf+0x24>
    1ab0:	9805      	ldr	r0, [sp, #20]
    1ab2:	b01f      	add	sp, #124	; 0x7c
    1ab4:	e8bd 8ff0 	ldmia.w	sp!, {r4, r5, r6, r7, r8, r9, sl, fp, pc}
    1ab8:	2825      	cmp	r0, #37	; 0x25
    1aba:	d019      	beq.n	1af0 <__vfprintf+0x5c>
    1abc:	9b05      	ldr	r3, [sp, #20]
    1abe:	e9dd 670a 	ldrd	r6, r7, [sp, #40]	; 0x28
    1ac2:	4619      	mov	r1, r3
    1ac4:	17da      	asrs	r2, r3, #31
    1ac6:	1c5c      	adds	r4, r3, #1
    1ac8:	42b1      	cmp	r1, r6
    1aca:	4613      	mov	r3, r2
    1acc:	41bb      	sbcs	r3, r7
    1ace:	da08      	bge.n	1ae2 <__vfprintf+0x4e>
    1ad0:	68ab      	ldr	r3, [r5, #8]
    1ad2:	3b01      	subs	r3, #1
    1ad4:	2b00      	cmp	r3, #0
    1ad6:	60ab      	str	r3, [r5, #8]
    1ad8:	db06      	blt.n	1ae8 <__vfprintf+0x54>
    1ada:	682b      	ldr	r3, [r5, #0]
    1adc:	1c5a      	adds	r2, r3, #1
    1ade:	602a      	str	r2, [r5, #0]
    1ae0:	7018      	strb	r0, [r3, #0]
    1ae2:	9405      	str	r4, [sp, #20]
    1ae4:	4643      	mov	r3, r8
    1ae6:	e7df      	b.n	1aa8 <__vfprintf+0x14>
    1ae8:	4629      	mov	r1, r5
    1aea:	f001 f936 	bl	2d5a <__flsbuf>
    1aee:	e7f8      	b.n	1ae2 <__vfprintf+0x4e>
    1af0:	2400      	movs	r4, #0
    1af2:	e009      	b.n	1b08 <__vfprintf+0x74>
    1af4:	2f2d      	cmp	r7, #45	; 0x2d
    1af6:	d004      	beq.n	1b02 <__vfprintf+0x6e>
    1af8:	2f30      	cmp	r7, #48	; 0x30
    1afa:	d10f      	bne.n	1b1c <__vfprintf+0x88>
    1afc:	f444 7400 	orr.w	r4, r4, #512	; 0x200
    1b00:	e001      	b.n	1b06 <__vfprintf+0x72>
    1b02:	f044 0401 	orr.w	r4, r4, #1
    1b06:	46b0      	mov	r8, r6
    1b08:	4646      	mov	r6, r8
    1b0a:	f816 7b01 	ldrb.w	r7, [r6], #1
    1b0e:	2f2b      	cmp	r7, #43	; 0x2b
    1b10:	d012      	beq.n	1b38 <__vfprintf+0xa4>
    1b12:	d8ef      	bhi.n	1af4 <__vfprintf+0x60>
    1b14:	2f20      	cmp	r7, #32
    1b16:	d012      	beq.n	1b3e <__vfprintf+0xaa>
    1b18:	2f23      	cmp	r7, #35	; 0x23
    1b1a:	d013      	beq.n	1b44 <__vfprintf+0xb0>
    1b1c:	2f2a      	cmp	r7, #42	; 0x2a
    1b1e:	d014      	beq.n	1b4a <__vfprintf+0xb6>
    1b20:	2300      	movs	r3, #0
    1b22:	210a      	movs	r1, #10
    1b24:	f1a7 0230 	sub.w	r2, r7, #48	; 0x30
    1b28:	b2d0      	uxtb	r0, r2
    1b2a:	2809      	cmp	r0, #9
    1b2c:	d81b      	bhi.n	1b66 <__vfprintf+0xd2>
    1b2e:	fb01 2303 	mla	r3, r1, r3, r2
    1b32:	f816 7b01 	ldrb.w	r7, [r6], #1
    1b36:	e7f5      	b.n	1b24 <__vfprintf+0x90>
    1b38:	f044 0402 	orr.w	r4, r4, #2
    1b3c:	e7e3      	b.n	1b06 <__vfprintf+0x72>
    1b3e:	f044 0404 	orr.w	r4, r4, #4
    1b42:	e7e0      	b.n	1b06 <__vfprintf+0x72>
    1b44:	f044 0408 	orr.w	r4, r4, #8
    1b48:	e7dd      	b.n	1b06 <__vfprintf+0x72>
    1b4a:	f8d9 3000 	ldr.w	r3, [r9]
    1b4e:	f898 7001 	ldrb.w	r7, [r8, #1]
    1b52:	2b00      	cmp	r3, #0
    1b54:	f109 0204 	add.w	r2, r9, #4
    1b58:	bfbc      	itt	lt
    1b5a:	425b      	neglt	r3, r3
    1b5c:	f084 0401 	eorlt.w	r4, r4, #1
    1b60:	f108 0602 	add.w	r6, r8, #2
    1b64:	4691      	mov	r9, r2
    1b66:	ea23 73e3 	bic.w	r3, r3, r3, asr #31
    1b6a:	2f2e      	cmp	r7, #46	; 0x2e
    1b6c:	930d      	str	r3, [sp, #52]	; 0x34
    1b6e:	d134      	bne.n	1bda <__vfprintf+0x146>
    1b70:	7837      	ldrb	r7, [r6, #0]
    1b72:	2f2a      	cmp	r7, #42	; 0x2a
    1b74:	d00f      	beq.n	1b96 <__vfprintf+0x102>
    1b76:	2300      	movs	r3, #0
    1b78:	3601      	adds	r6, #1
    1b7a:	9306      	str	r3, [sp, #24]
    1b7c:	220a      	movs	r2, #10
    1b7e:	f1a7 0330 	sub.w	r3, r7, #48	; 0x30
    1b82:	b2d9      	uxtb	r1, r3
    1b84:	2909      	cmp	r1, #9
    1b86:	d80d      	bhi.n	1ba4 <__vfprintf+0x110>
    1b88:	9906      	ldr	r1, [sp, #24]
    1b8a:	f816 7b01 	ldrb.w	r7, [r6], #1
    1b8e:	fb02 3301 	mla	r3, r2, r1, r3
    1b92:	9306      	str	r3, [sp, #24]
    1b94:	e7f3      	b.n	1b7e <__vfprintf+0xea>
    1b96:	f8d9 3000 	ldr.w	r3, [r9]
    1b9a:	7877      	ldrb	r7, [r6, #1]
    1b9c:	9306      	str	r3, [sp, #24]
    1b9e:	f109 0904 	add.w	r9, r9, #4
    1ba2:	3602      	adds	r6, #2
    1ba4:	9b06      	ldr	r3, [sp, #24]
    1ba6:	2b00      	cmp	r3, #0
    1ba8:	db17      	blt.n	1bda <__vfprintf+0x146>
    1baa:	f044 0410 	orr.w	r4, r4, #16
    1bae:	2f6c      	cmp	r7, #108	; 0x6c
    1bb0:	d10a      	bne.n	1bc8 <__vfprintf+0x134>
    1bb2:	7837      	ldrb	r7, [r6, #0]
    1bb4:	2f6c      	cmp	r7, #108	; 0x6c
    1bb6:	bf03      	ittte	eq
    1bb8:	7877      	ldrbeq	r7, [r6, #1]
    1bba:	f044 0460 	orreq.w	r4, r4, #96	; 0x60
    1bbe:	3602      	addeq	r6, #2
    1bc0:	3601      	addne	r6, #1
    1bc2:	bf18      	it	ne
    1bc4:	f044 0420 	orrne.w	r4, r4, #32
    1bc8:	2f4c      	cmp	r7, #76	; 0x4c
    1bca:	d001      	beq.n	1bd0 <__vfprintf+0x13c>
    1bcc:	2f71      	cmp	r7, #113	; 0x71
    1bce:	d107      	bne.n	1be0 <__vfprintf+0x14c>
    1bd0:	7837      	ldrb	r7, [r6, #0]
    1bd2:	f044 0460 	orr.w	r4, r4, #96	; 0x60
    1bd6:	3601      	adds	r6, #1
    1bd8:	e00f      	b.n	1bfa <__vfprintf+0x166>
    1bda:	2300      	movs	r3, #0
    1bdc:	9306      	str	r3, [sp, #24]
    1bde:	e7e6      	b.n	1bae <__vfprintf+0x11a>
    1be0:	2f68      	cmp	r7, #104	; 0x68
    1be2:	d11f      	bne.n	1c24 <__vfprintf+0x190>
    1be4:	7837      	ldrb	r7, [r6, #0]
    1be6:	2f68      	cmp	r7, #104	; 0x68
    1be8:	bf03      	ittte	eq
    1bea:	7877      	ldrbeq	r7, [r6, #1]
    1bec:	f444 7480 	orreq.w	r4, r4, #256	; 0x100
    1bf0:	3602      	addeq	r6, #2
    1bf2:	3601      	addne	r6, #1
    1bf4:	bf18      	it	ne
    1bf6:	f044 0480 	orrne.w	r4, r4, #128	; 0x80
    1bfa:	2f67      	cmp	r7, #103	; 0x67
    1bfc:	dc6d      	bgt.n	1cda <__vfprintf+0x246>
    1bfe:	2f65      	cmp	r7, #101	; 0x65
    1c00:	f280 82b4 	bge.w	216c <__vfprintf+0x6d8>
    1c04:	2f47      	cmp	r7, #71	; 0x47
    1c06:	f000 82b1 	beq.w	216c <__vfprintf+0x6d8>
    1c0a:	dc16      	bgt.n	1c3a <__vfprintf+0x1a6>
    1c0c:	2f41      	cmp	r7, #65	; 0x41
    1c0e:	f000 82a7 	beq.w	2160 <__vfprintf+0x6cc>
    1c12:	2f45      	cmp	r7, #69	; 0x45
    1c14:	f000 82aa 	beq.w	216c <__vfprintf+0x6d8>
    1c18:	2f00      	cmp	r7, #0
    1c1a:	f000 8138 	beq.w	1e8e <__vfprintf+0x3fa>
    1c1e:	f8cd 9030 	str.w	r9, [sp, #48]	; 0x30
    1c22:	e0c4      	b.n	1dae <__vfprintf+0x31a>
    1c24:	2f6a      	cmp	r7, #106	; 0x6a
    1c26:	d103      	bne.n	1c30 <__vfprintf+0x19c>
    1c28:	f044 0440 	orr.w	r4, r4, #64	; 0x40
    1c2c:	7837      	ldrb	r7, [r6, #0]
    1c2e:	e7d2      	b.n	1bd6 <__vfprintf+0x142>
    1c30:	2f7a      	cmp	r7, #122	; 0x7a
    1c32:	d0fb      	beq.n	1c2c <__vfprintf+0x198>
    1c34:	2f74      	cmp	r7, #116	; 0x74
    1c36:	d1e0      	bne.n	1bfa <__vfprintf+0x166>
    1c38:	e7f8      	b.n	1c2c <__vfprintf+0x198>
    1c3a:	2f61      	cmp	r7, #97	; 0x61
    1c3c:	f000 8290 	beq.w	2160 <__vfprintf+0x6cc>
    1c40:	dc20      	bgt.n	1c84 <__vfprintf+0x1f0>
    1c42:	2f58      	cmp	r7, #88	; 0x58
    1c44:	d1eb      	bne.n	1c1e <__vfprintf+0x18a>
    1c46:	0661      	lsls	r1, r4, #25
    1c48:	f140 81a7 	bpl.w	1f9a <__vfprintf+0x506>
    1c4c:	f109 0907 	add.w	r9, r9, #7
    1c50:	f029 0907 	bic.w	r9, r9, #7
    1c54:	e9d9 ab00 	ldrd	sl, fp, [r9]
    1c58:	f109 0308 	add.w	r3, r9, #8
    1c5c:	930c      	str	r3, [sp, #48]	; 0x30
    1c5e:	0622      	lsls	r2, r4, #24
    1c60:	f140 81a4 	bpl.w	1fac <__vfprintf+0x518>
    1c64:	fa1f fa8a 	uxth.w	sl, sl
    1c68:	f04f 0b00 	mov.w	fp, #0
    1c6c:	4bb5      	ldr	r3, [pc, #724]	; (1f44 <__vfprintf+0x4b0>)
    1c6e:	4ab6      	ldr	r2, [pc, #728]	; (1f48 <__vfprintf+0x4b4>)
    1c70:	f014 0f08 	tst.w	r4, #8
    1c74:	bf18      	it	ne
    1c76:	461a      	movne	r2, r3
    1c78:	06e0      	lsls	r0, r4, #27
    1c7a:	d501      	bpl.n	1c80 <__vfprintf+0x1ec>
    1c7c:	f424 7400 	bic.w	r4, r4, #512	; 0x200
    1c80:	4bb2      	ldr	r3, [pc, #712]	; (1f4c <__vfprintf+0x4b8>)
    1c82:	e1ce      	b.n	2022 <__vfprintf+0x58e>
    1c84:	2f63      	cmp	r7, #99	; 0x63
    1c86:	f000 808d 	beq.w	1da4 <__vfprintf+0x310>
    1c8a:	2f64      	cmp	r7, #100	; 0x64
    1c8c:	d1c7      	bne.n	1c1e <__vfprintf+0x18a>
    1c8e:	0663      	lsls	r3, r4, #25
    1c90:	f140 824e 	bpl.w	2130 <__vfprintf+0x69c>
    1c94:	f109 0907 	add.w	r9, r9, #7
    1c98:	f029 0907 	bic.w	r9, r9, #7
    1c9c:	e9d9 ab00 	ldrd	sl, fp, [r9]
    1ca0:	f109 0308 	add.w	r3, r9, #8
    1ca4:	930c      	str	r3, [sp, #48]	; 0x30
    1ca6:	0620      	lsls	r0, r4, #24
    1ca8:	f140 824b 	bpl.w	2142 <__vfprintf+0x6ae>
    1cac:	fa0f fa8a 	sxth.w	sl, sl
    1cb0:	ea4f 7bea 	mov.w	fp, sl, asr #31
    1cb4:	f1ba 0f00 	cmp.w	sl, #0
    1cb8:	f17b 0300 	sbcs.w	r3, fp, #0
    1cbc:	f280 8247 	bge.w	214e <__vfprintf+0x6ba>
    1cc0:	f1da 0a00 	rsbs	sl, sl, #0
    1cc4:	4aa2      	ldr	r2, [pc, #648]	; (1f50 <__vfprintf+0x4bc>)
    1cc6:	eb6b 0b4b 	sbc.w	fp, fp, fp, lsl #1
    1cca:	f014 0310 	ands.w	r3, r4, #16
    1cce:	f000 81a8 	beq.w	2022 <__vfprintf+0x58e>
    1cd2:	f424 7400 	bic.w	r4, r4, #512	; 0x200
    1cd6:	2300      	movs	r3, #0
    1cd8:	e1a3      	b.n	2022 <__vfprintf+0x58e>
    1cda:	2f70      	cmp	r7, #112	; 0x70
    1cdc:	f000 8197 	beq.w	200e <__vfprintf+0x57a>
    1ce0:	dc06      	bgt.n	1cf0 <__vfprintf+0x25c>
    1ce2:	2f6e      	cmp	r7, #110	; 0x6e
    1ce4:	f000 80db 	beq.w	1e9e <__vfprintf+0x40a>
    1ce8:	f300 81d5 	bgt.w	2096 <__vfprintf+0x602>
    1cec:	2f69      	cmp	r7, #105	; 0x69
    1cee:	e7cd      	b.n	1c8c <__vfprintf+0x1f8>
    1cf0:	2f75      	cmp	r7, #117	; 0x75
    1cf2:	f000 81f6 	beq.w	20e2 <__vfprintf+0x64e>
    1cf6:	2f78      	cmp	r7, #120	; 0x78
    1cf8:	f000 815e 	beq.w	1fb8 <__vfprintf+0x524>
    1cfc:	2f73      	cmp	r7, #115	; 0x73
    1cfe:	d18e      	bne.n	1c1e <__vfprintf+0x18a>
    1d00:	f109 0304 	add.w	r3, r9, #4
    1d04:	930c      	str	r3, [sp, #48]	; 0x30
    1d06:	f8d9 a000 	ldr.w	sl, [r9]
    1d0a:	4b92      	ldr	r3, [pc, #584]	; (1f54 <__vfprintf+0x4c0>)
    1d0c:	f1ba 0f00 	cmp.w	sl, #0
    1d10:	bf08      	it	eq
    1d12:	469a      	moveq	sl, r3
    1d14:	4650      	mov	r0, sl
    1d16:	f001 f919 	bl	2f4c <strlen>
    1d1a:	4683      	mov	fp, r0
    1d1c:	06e0      	lsls	r0, r4, #27
    1d1e:	d503      	bpl.n	1d28 <__vfprintf+0x294>
    1d20:	9b06      	ldr	r3, [sp, #24]
    1d22:	459b      	cmp	fp, r3
    1d24:	bfa8      	it	ge
    1d26:	469b      	movge	fp, r3
    1d28:	9b0d      	ldr	r3, [sp, #52]	; 0x34
    1d2a:	eba3 070b 	sub.w	r7, r3, fp
    1d2e:	f014 0301 	ands.w	r3, r4, #1
    1d32:	9306      	str	r3, [sp, #24]
    1d34:	d113      	bne.n	1d5e <__vfprintf+0x2ca>
    1d36:	9a05      	ldr	r2, [sp, #20]
    1d38:	f414 7f00 	tst.w	r4, #512	; 0x200
    1d3c:	bf0c      	ite	eq
    1d3e:	2320      	moveq	r3, #32
    1d40:	2330      	movne	r3, #48	; 0x30
    1d42:	4690      	mov	r8, r2
    1d44:	ea4f 79e2 	mov.w	r9, r2, asr #31
    1d48:	463c      	mov	r4, r7
    1d4a:	3c01      	subs	r4, #1
    1d4c:	f140 80c5 	bpl.w	1eda <__vfprintf+0x446>
    1d50:	9a05      	ldr	r2, [sp, #20]
    1d52:	ea27 73e7 	bic.w	r3, r7, r7, asr #31
    1d56:	441a      	add	r2, r3
    1d58:	3f01      	subs	r7, #1
    1d5a:	9205      	str	r2, [sp, #20]
    1d5c:	1aff      	subs	r7, r7, r3
    1d5e:	9b05      	ldr	r3, [sp, #20]
    1d60:	2400      	movs	r4, #0
    1d62:	4698      	mov	r8, r3
    1d64:	ea4f 79e3 	mov.w	r9, r3, asr #31
    1d68:	ebaa 0a03 	sub.w	sl, sl, r3
    1d6c:	455c      	cmp	r4, fp
    1d6e:	f2c0 80cf 	blt.w	1f10 <__vfprintf+0x47c>
    1d72:	9b05      	ldr	r3, [sp, #20]
    1d74:	f1bb 0f00 	cmp.w	fp, #0
    1d78:	bfa8      	it	ge
    1d7a:	445b      	addge	r3, fp
    1d7c:	9305      	str	r3, [sp, #20]
    1d7e:	9b06      	ldr	r3, [sp, #24]
    1d80:	2b00      	cmp	r3, #0
    1d82:	f000 8087 	beq.w	1e94 <__vfprintf+0x400>
    1d86:	9b05      	ldr	r3, [sp, #20]
    1d88:	463c      	mov	r4, r7
    1d8a:	4698      	mov	r8, r3
    1d8c:	ea4f 79e3 	mov.w	r9, r3, asr #31
    1d90:	f04f 0a20 	mov.w	sl, #32
    1d94:	3c01      	subs	r4, #1
    1d96:	f140 80e6 	bpl.w	1f66 <__vfprintf+0x4d2>
    1d9a:	9b05      	ldr	r3, [sp, #20]
    1d9c:	2f00      	cmp	r7, #0
    1d9e:	bfa8      	it	ge
    1da0:	19db      	addge	r3, r3, r7
    1da2:	e039      	b.n	1e18 <__vfprintf+0x384>
    1da4:	f109 0304 	add.w	r3, r9, #4
    1da8:	f8d9 7000 	ldr.w	r7, [r9]
    1dac:	930c      	str	r3, [sp, #48]	; 0x30
    1dae:	9b0d      	ldr	r3, [sp, #52]	; 0x34
    1db0:	f014 0901 	ands.w	r9, r4, #1
    1db4:	f103 38ff 	add.w	r8, r3, #4294967295	; 0xffffffff
    1db8:	d149      	bne.n	1e4e <__vfprintf+0x3ba>
    1dba:	9b05      	ldr	r3, [sp, #20]
    1dbc:	f414 7f00 	tst.w	r4, #512	; 0x200
    1dc0:	bf0c      	ite	eq
    1dc2:	2420      	moveq	r4, #32
    1dc4:	2430      	movne	r4, #48	; 0x30
    1dc6:	469a      	mov	sl, r3
    1dc8:	ea4f 7be3 	mov.w	fp, r3, asr #31
    1dcc:	f1b8 0801 	subs.w	r8, r8, #1
    1dd0:	4652      	mov	r2, sl
    1dd2:	d523      	bpl.n	1e1c <__vfprintf+0x388>
    1dd4:	e9dd 010a 	ldrd	r0, r1, [sp, #40]	; 0x28
    1dd8:	1c53      	adds	r3, r2, #1
    1dda:	9305      	str	r3, [sp, #20]
    1ddc:	4282      	cmp	r2, r0
    1dde:	ea4f 73e2 	mov.w	r3, r2, asr #31
    1de2:	418b      	sbcs	r3, r1
    1de4:	da08      	bge.n	1df8 <__vfprintf+0x364>
    1de6:	68ab      	ldr	r3, [r5, #8]
    1de8:	3b01      	subs	r3, #1
    1dea:	2b00      	cmp	r3, #0
    1dec:	60ab      	str	r3, [r5, #8]
    1dee:	db30      	blt.n	1e52 <__vfprintf+0x3be>
    1df0:	682b      	ldr	r3, [r5, #0]
    1df2:	1c5a      	adds	r2, r3, #1
    1df4:	602a      	str	r2, [r5, #0]
    1df6:	701f      	strb	r7, [r3, #0]
    1df8:	f1b9 0f00 	cmp.w	r9, #0
    1dfc:	d04a      	beq.n	1e94 <__vfprintf+0x400>
    1dfe:	9b05      	ldr	r3, [sp, #20]
    1e00:	4644      	mov	r4, r8
    1e02:	469a      	mov	sl, r3
    1e04:	ea4f 7be3 	mov.w	fp, r3, asr #31
    1e08:	2720      	movs	r7, #32
    1e0a:	3c01      	subs	r4, #1
    1e0c:	d526      	bpl.n	1e5c <__vfprintf+0x3c8>
    1e0e:	9b05      	ldr	r3, [sp, #20]
    1e10:	f1b8 0f00 	cmp.w	r8, #0
    1e14:	bfa8      	it	ge
    1e16:	4443      	addge	r3, r8
    1e18:	9305      	str	r3, [sp, #20]
    1e1a:	e03b      	b.n	1e94 <__vfprintf+0x400>
    1e1c:	e9dd 230a 	ldrd	r2, r3, [sp, #40]	; 0x28
    1e20:	4592      	cmp	sl, r2
    1e22:	eb7b 0303 	sbcs.w	r3, fp, r3
    1e26:	da08      	bge.n	1e3a <__vfprintf+0x3a6>
    1e28:	68ab      	ldr	r3, [r5, #8]
    1e2a:	3b01      	subs	r3, #1
    1e2c:	2b00      	cmp	r3, #0
    1e2e:	60ab      	str	r3, [r5, #8]
    1e30:	db08      	blt.n	1e44 <__vfprintf+0x3b0>
    1e32:	682b      	ldr	r3, [r5, #0]
    1e34:	1c5a      	adds	r2, r3, #1
    1e36:	602a      	str	r2, [r5, #0]
    1e38:	701c      	strb	r4, [r3, #0]
    1e3a:	f11a 0a01 	adds.w	sl, sl, #1
    1e3e:	f14b 0b00 	adc.w	fp, fp, #0
    1e42:	e7c3      	b.n	1dcc <__vfprintf+0x338>
    1e44:	4629      	mov	r1, r5
    1e46:	4620      	mov	r0, r4
    1e48:	f000 ff87 	bl	2d5a <__flsbuf>
    1e4c:	e7f5      	b.n	1e3a <__vfprintf+0x3a6>
    1e4e:	9a05      	ldr	r2, [sp, #20]
    1e50:	e7c0      	b.n	1dd4 <__vfprintf+0x340>
    1e52:	4629      	mov	r1, r5
    1e54:	4638      	mov	r0, r7
    1e56:	f000 ff80 	bl	2d5a <__flsbuf>
    1e5a:	e7cd      	b.n	1df8 <__vfprintf+0x364>
    1e5c:	e9dd 230a 	ldrd	r2, r3, [sp, #40]	; 0x28
    1e60:	4592      	cmp	sl, r2
    1e62:	eb7b 0303 	sbcs.w	r3, fp, r3
    1e66:	da08      	bge.n	1e7a <__vfprintf+0x3e6>
    1e68:	68ab      	ldr	r3, [r5, #8]
    1e6a:	3b01      	subs	r3, #1
    1e6c:	2b00      	cmp	r3, #0
    1e6e:	60ab      	str	r3, [r5, #8]
    1e70:	db08      	blt.n	1e84 <__vfprintf+0x3f0>
    1e72:	682b      	ldr	r3, [r5, #0]
    1e74:	1c5a      	adds	r2, r3, #1
    1e76:	602a      	str	r2, [r5, #0]
    1e78:	701f      	strb	r7, [r3, #0]
    1e7a:	f11a 0a01 	adds.w	sl, sl, #1
    1e7e:	f14b 0b00 	adc.w	fp, fp, #0
    1e82:	e7c2      	b.n	1e0a <__vfprintf+0x376>
    1e84:	4629      	mov	r1, r5
    1e86:	2020      	movs	r0, #32
    1e88:	f000 ff67 	bl	2d5a <__flsbuf>
    1e8c:	e7f5      	b.n	1e7a <__vfprintf+0x3e6>
    1e8e:	3e01      	subs	r6, #1
    1e90:	f8cd 9030 	str.w	r9, [sp, #48]	; 0x30
    1e94:	f8dd 9030 	ldr.w	r9, [sp, #48]	; 0x30
    1e98:	9c05      	ldr	r4, [sp, #20]
    1e9a:	46b0      	mov	r8, r6
    1e9c:	e621      	b.n	1ae2 <__vfprintf+0x4e>
    1e9e:	f109 0304 	add.w	r3, r9, #4
    1ea2:	930c      	str	r3, [sp, #48]	; 0x30
    1ea4:	0661      	lsls	r1, r4, #25
    1ea6:	f8d9 3000 	ldr.w	r3, [r9]
    1eaa:	d505      	bpl.n	1eb8 <__vfprintf+0x424>
    1eac:	9a05      	ldr	r2, [sp, #20]
    1eae:	4610      	mov	r0, r2
    1eb0:	17d1      	asrs	r1, r2, #31
    1eb2:	e9c3 0100 	strd	r0, r1, [r3]
    1eb6:	e7ed      	b.n	1e94 <__vfprintf+0x400>
    1eb8:	06a2      	lsls	r2, r4, #26
    1eba:	d502      	bpl.n	1ec2 <__vfprintf+0x42e>
    1ebc:	9a05      	ldr	r2, [sp, #20]
    1ebe:	601a      	str	r2, [r3, #0]
    1ec0:	e7e8      	b.n	1e94 <__vfprintf+0x400>
    1ec2:	05e7      	lsls	r7, r4, #23
    1ec4:	d503      	bpl.n	1ece <__vfprintf+0x43a>
    1ec6:	f89d 2014 	ldrb.w	r2, [sp, #20]
    1eca:	701a      	strb	r2, [r3, #0]
    1ecc:	e7e2      	b.n	1e94 <__vfprintf+0x400>
    1ece:	0624      	lsls	r4, r4, #24
    1ed0:	d5f4      	bpl.n	1ebc <__vfprintf+0x428>
    1ed2:	f8bd 2014 	ldrh.w	r2, [sp, #20]
    1ed6:	801a      	strh	r2, [r3, #0]
    1ed8:	e7dc      	b.n	1e94 <__vfprintf+0x400>
    1eda:	e9dd 120a 	ldrd	r1, r2, [sp, #40]	; 0x28
    1ede:	4588      	cmp	r8, r1
    1ee0:	eb79 0202 	sbcs.w	r2, r9, r2
    1ee4:	da08      	bge.n	1ef8 <__vfprintf+0x464>
    1ee6:	68aa      	ldr	r2, [r5, #8]
    1ee8:	3a01      	subs	r2, #1
    1eea:	2a00      	cmp	r2, #0
    1eec:	60aa      	str	r2, [r5, #8]
    1eee:	db08      	blt.n	1f02 <__vfprintf+0x46e>
    1ef0:	682a      	ldr	r2, [r5, #0]
    1ef2:	1c51      	adds	r1, r2, #1
    1ef4:	6029      	str	r1, [r5, #0]
    1ef6:	7013      	strb	r3, [r2, #0]
    1ef8:	f118 0801 	adds.w	r8, r8, #1
    1efc:	f149 0900 	adc.w	r9, r9, #0
    1f00:	e723      	b.n	1d4a <__vfprintf+0x2b6>
    1f02:	4618      	mov	r0, r3
    1f04:	4629      	mov	r1, r5
    1f06:	9308      	str	r3, [sp, #32]
    1f08:	f000 ff27 	bl	2d5a <__flsbuf>
    1f0c:	9b08      	ldr	r3, [sp, #32]
    1f0e:	e7f3      	b.n	1ef8 <__vfprintf+0x464>
    1f10:	e9dd 230a 	ldrd	r2, r3, [sp, #40]	; 0x28
    1f14:	4590      	cmp	r8, r2
    1f16:	eb79 0303 	sbcs.w	r3, r9, r3
    1f1a:	da0b      	bge.n	1f34 <__vfprintf+0x4a0>
    1f1c:	68ab      	ldr	r3, [r5, #8]
    1f1e:	3b01      	subs	r3, #1
    1f20:	2b00      	cmp	r3, #0
    1f22:	60ab      	str	r3, [r5, #8]
    1f24:	db18      	blt.n	1f58 <__vfprintf+0x4c4>
    1f26:	682b      	ldr	r3, [r5, #0]
    1f28:	1c5a      	adds	r2, r3, #1
    1f2a:	602a      	str	r2, [r5, #0]
    1f2c:	eb0a 0208 	add.w	r2, sl, r8
    1f30:	7812      	ldrb	r2, [r2, #0]
    1f32:	701a      	strb	r2, [r3, #0]
    1f34:	f118 0801 	adds.w	r8, r8, #1
    1f38:	f104 0401 	add.w	r4, r4, #1
    1f3c:	f149 0900 	adc.w	r9, r9, #0
    1f40:	e714      	b.n	1d6c <__vfprintf+0x2d8>
    1f42:	bf00      	nop
    1f44:	00003db4 			; <UNDEFINED> instruction: 0x00003db4
    1f48:	00003da8 	andeq	r3, r0, r8, lsr #27
    1f4c:	00003dc0 	andeq	r3, r0, r0, asr #27
    1f50:	00003dbc 			; <UNDEFINED> instruction: 0x00003dbc
    1f54:	00003dad 	andeq	r3, r0, sp, lsr #27
    1f58:	eb0a 0308 	add.w	r3, sl, r8
    1f5c:	4629      	mov	r1, r5
    1f5e:	7818      	ldrb	r0, [r3, #0]
    1f60:	f000 fefb 	bl	2d5a <__flsbuf>
    1f64:	e7e6      	b.n	1f34 <__vfprintf+0x4a0>
    1f66:	e9dd 230a 	ldrd	r2, r3, [sp, #40]	; 0x28
    1f6a:	4590      	cmp	r8, r2
    1f6c:	eb79 0303 	sbcs.w	r3, r9, r3
    1f70:	da09      	bge.n	1f86 <__vfprintf+0x4f2>
    1f72:	68ab      	ldr	r3, [r5, #8]
    1f74:	3b01      	subs	r3, #1
    1f76:	2b00      	cmp	r3, #0
    1f78:	60ab      	str	r3, [r5, #8]
    1f7a:	db09      	blt.n	1f90 <__vfprintf+0x4fc>
    1f7c:	682b      	ldr	r3, [r5, #0]
    1f7e:	1c5a      	adds	r2, r3, #1
    1f80:	602a      	str	r2, [r5, #0]
    1f82:	f883 a000 	strb.w	sl, [r3]
    1f86:	f118 0801 	adds.w	r8, r8, #1
    1f8a:	f149 0900 	adc.w	r9, r9, #0
    1f8e:	e701      	b.n	1d94 <__vfprintf+0x300>
    1f90:	4629      	mov	r1, r5
    1f92:	2020      	movs	r0, #32
    1f94:	f000 fee1 	bl	2d5a <__flsbuf>
    1f98:	e7f5      	b.n	1f86 <__vfprintf+0x4f2>
    1f9a:	f109 0304 	add.w	r3, r9, #4
    1f9e:	930c      	str	r3, [sp, #48]	; 0x30
    1fa0:	f8d9 3000 	ldr.w	r3, [r9]
    1fa4:	f04f 0b00 	mov.w	fp, #0
    1fa8:	469a      	mov	sl, r3
    1faa:	e658      	b.n	1c5e <__vfprintf+0x1ca>
    1fac:	05e3      	lsls	r3, r4, #23
    1fae:	f57f ae5d 	bpl.w	1c6c <__vfprintf+0x1d8>
    1fb2:	f00a 0aff 	and.w	sl, sl, #255	; 0xff
    1fb6:	e657      	b.n	1c68 <__vfprintf+0x1d4>
    1fb8:	0661      	lsls	r1, r4, #25
    1fba:	d51a      	bpl.n	1ff2 <__vfprintf+0x55e>
    1fbc:	f109 0907 	add.w	r9, r9, #7
    1fc0:	f029 0907 	bic.w	r9, r9, #7
    1fc4:	e9d9 ab00 	ldrd	sl, fp, [r9]
    1fc8:	f109 0308 	add.w	r3, r9, #8
    1fcc:	930c      	str	r3, [sp, #48]	; 0x30
    1fce:	0622      	lsls	r2, r4, #24
    1fd0:	d518      	bpl.n	2004 <__vfprintf+0x570>
    1fd2:	fa1f fa8a 	uxth.w	sl, sl
    1fd6:	f04f 0b00 	mov.w	fp, #0
    1fda:	4b7f      	ldr	r3, [pc, #508]	; (21d8 <__vfprintf+0x744>)
    1fdc:	4a7f      	ldr	r2, [pc, #508]	; (21dc <__vfprintf+0x748>)
    1fde:	f014 0f08 	tst.w	r4, #8
    1fe2:	bf18      	it	ne
    1fe4:	461a      	movne	r2, r3
    1fe6:	06e0      	lsls	r0, r4, #27
    1fe8:	d501      	bpl.n	1fee <__vfprintf+0x55a>
    1fea:	f424 7400 	bic.w	r4, r4, #512	; 0x200
    1fee:	4b7c      	ldr	r3, [pc, #496]	; (21e0 <__vfprintf+0x74c>)
    1ff0:	e017      	b.n	2022 <__vfprintf+0x58e>
    1ff2:	f109 0304 	add.w	r3, r9, #4
    1ff6:	930c      	str	r3, [sp, #48]	; 0x30
    1ff8:	f8d9 3000 	ldr.w	r3, [r9]
    1ffc:	f04f 0b00 	mov.w	fp, #0
    2000:	469a      	mov	sl, r3
    2002:	e7e4      	b.n	1fce <__vfprintf+0x53a>
    2004:	05e3      	lsls	r3, r4, #23
    2006:	d5e8      	bpl.n	1fda <__vfprintf+0x546>
    2008:	f00a 0aff 	and.w	sl, sl, #255	; 0xff
    200c:	e7e3      	b.n	1fd6 <__vfprintf+0x542>
    200e:	f109 0304 	add.w	r3, r9, #4
    2012:	930c      	str	r3, [sp, #48]	; 0x30
    2014:	f8d9 3000 	ldr.w	r3, [r9]
    2018:	4a6f      	ldr	r2, [pc, #444]	; (21d8 <__vfprintf+0x744>)
    201a:	469a      	mov	sl, r3
    201c:	4b70      	ldr	r3, [pc, #448]	; (21e0 <__vfprintf+0x74c>)
    201e:	f04f 0b00 	mov.w	fp, #0
    2022:	e9dd 890a 	ldrd	r8, r9, [sp, #40]	; 0x28
    2026:	9905      	ldr	r1, [sp, #20]
    2028:	ebb8 0801 	subs.w	r8, r8, r1
    202c:	eb69 79e1 	sbc.w	r9, r9, r1, asr #31
    2030:	9906      	ldr	r1, [sp, #24]
    2032:	e9cd 8908 	strd	r8, r9, [sp, #32]
    2036:	e9cd 1210 	strd	r1, r2, [sp, #64]	; 0x40
    203a:	f04f 32ff 	mov.w	r2, #4294967295	; 0xffffffff
    203e:	e9cd 2212 	strd	r2, r2, [sp, #72]	; 0x48
    2042:	2155      	movs	r1, #85	; 0x55
    2044:	2200      	movs	r2, #0
    2046:	a816      	add	r0, sp, #88	; 0x58
    2048:	5481      	strb	r1, [r0, r2]
    204a:	3201      	adds	r2, #1
    204c:	2a20      	cmp	r2, #32
    204e:	d1fa      	bne.n	2046 <__vfprintf+0x5b2>
    2050:	f414 6f82 	tst.w	r4, #1040	; 0x410
    2054:	bf04      	itt	eq
    2056:	2201      	moveq	r2, #1
    2058:	9210      	streq	r2, [sp, #64]	; 0x40
    205a:	2f67      	cmp	r7, #103	; 0x67
    205c:	f300 80aa 	bgt.w	21b4 <__vfprintf+0x720>
    2060:	2f65      	cmp	r7, #101	; 0x65
    2062:	da08      	bge.n	2076 <__vfprintf+0x5e2>
    2064:	2f47      	cmp	r7, #71	; 0x47
    2066:	d006      	beq.n	2076 <__vfprintf+0x5e2>
    2068:	f300 809a 	bgt.w	21a0 <__vfprintf+0x70c>
    206c:	2f41      	cmp	r7, #65	; 0x41
    206e:	d002      	beq.n	2076 <__vfprintf+0x5e2>
    2070:	2f45      	cmp	r7, #69	; 0x45
    2072:	f040 80a8 	bne.w	21c6 <__vfprintf+0x732>
    2076:	ab13      	add	r3, sp, #76	; 0x4c
    2078:	9303      	str	r3, [sp, #12]
    207a:	ab12      	add	r3, sp, #72	; 0x48
    207c:	9302      	str	r3, [sp, #8]
    207e:	ab10      	add	r3, sp, #64	; 0x40
    2080:	9301      	str	r3, [sp, #4]
    2082:	ab11      	add	r3, sp, #68	; 0x44
    2084:	9300      	str	r3, [sp, #0]
    2086:	4638      	mov	r0, r7
    2088:	4623      	mov	r3, r4
    208a:	aa16      	add	r2, sp, #88	; 0x58
    208c:	a914      	add	r1, sp, #80	; 0x50
    208e:	9f2a      	ldr	r7, [sp, #168]	; 0xa8
    2090:	47b8      	blx	r7
    2092:	9006      	str	r0, [sp, #24]
    2094:	e0be      	b.n	2214 <__vfprintf+0x780>
    2096:	0661      	lsls	r1, r4, #25
    2098:	d515      	bpl.n	20c6 <__vfprintf+0x632>
    209a:	f109 0907 	add.w	r9, r9, #7
    209e:	f029 0907 	bic.w	r9, r9, #7
    20a2:	e9d9 ab00 	ldrd	sl, fp, [r9]
    20a6:	f109 0308 	add.w	r3, r9, #8
    20aa:	930c      	str	r3, [sp, #48]	; 0x30
    20ac:	0622      	lsls	r2, r4, #24
    20ae:	d513      	bpl.n	20d8 <__vfprintf+0x644>
    20b0:	fa1f fa8a 	uxth.w	sl, sl
    20b4:	f04f 0b00 	mov.w	fp, #0
    20b8:	4a48      	ldr	r2, [pc, #288]	; (21dc <__vfprintf+0x748>)
    20ba:	4b4a      	ldr	r3, [pc, #296]	; (21e4 <__vfprintf+0x750>)
    20bc:	f014 0f08 	tst.w	r4, #8
    20c0:	bf18      	it	ne
    20c2:	461a      	movne	r2, r3
    20c4:	e601      	b.n	1cca <__vfprintf+0x236>
    20c6:	f109 0304 	add.w	r3, r9, #4
    20ca:	930c      	str	r3, [sp, #48]	; 0x30
    20cc:	f8d9 3000 	ldr.w	r3, [r9]
    20d0:	f04f 0b00 	mov.w	fp, #0
    20d4:	469a      	mov	sl, r3
    20d6:	e7e9      	b.n	20ac <__vfprintf+0x618>
    20d8:	05e3      	lsls	r3, r4, #23
    20da:	d5ed      	bpl.n	20b8 <__vfprintf+0x624>
    20dc:	f00a 0aff 	and.w	sl, sl, #255	; 0xff
    20e0:	e7e8      	b.n	20b4 <__vfprintf+0x620>
    20e2:	0660      	lsls	r0, r4, #25
    20e4:	d516      	bpl.n	2114 <__vfprintf+0x680>
    20e6:	f109 0907 	add.w	r9, r9, #7
    20ea:	f029 0907 	bic.w	r9, r9, #7
    20ee:	e9d9 ab00 	ldrd	sl, fp, [r9]
    20f2:	f109 0308 	add.w	r3, r9, #8
    20f6:	930c      	str	r3, [sp, #48]	; 0x30
    20f8:	0621      	lsls	r1, r4, #24
    20fa:	d514      	bpl.n	2126 <__vfprintf+0x692>
    20fc:	fa1f fa8a 	uxth.w	sl, sl
    2100:	f04f 0b00 	mov.w	fp, #0
    2104:	f014 0310 	ands.w	r3, r4, #16
    2108:	d002      	beq.n	2110 <__vfprintf+0x67c>
    210a:	f424 7400 	bic.w	r4, r4, #512	; 0x200
    210e:	2300      	movs	r3, #0
    2110:	4a32      	ldr	r2, [pc, #200]	; (21dc <__vfprintf+0x748>)
    2112:	e786      	b.n	2022 <__vfprintf+0x58e>
    2114:	f109 0304 	add.w	r3, r9, #4
    2118:	930c      	str	r3, [sp, #48]	; 0x30
    211a:	f8d9 3000 	ldr.w	r3, [r9]
    211e:	f04f 0b00 	mov.w	fp, #0
    2122:	469a      	mov	sl, r3
    2124:	e7e8      	b.n	20f8 <__vfprintf+0x664>
    2126:	05e2      	lsls	r2, r4, #23
    2128:	d5ec      	bpl.n	2104 <__vfprintf+0x670>
    212a:	f00a 0aff 	and.w	sl, sl, #255	; 0xff
    212e:	e7e7      	b.n	2100 <__vfprintf+0x66c>
    2130:	f109 0304 	add.w	r3, r9, #4
    2134:	930c      	str	r3, [sp, #48]	; 0x30
    2136:	f8d9 3000 	ldr.w	r3, [r9]
    213a:	469a      	mov	sl, r3
    213c:	ea4f 7be3 	mov.w	fp, r3, asr #31
    2140:	e5b1      	b.n	1ca6 <__vfprintf+0x212>
    2142:	05e1      	lsls	r1, r4, #23
    2144:	f57f adb6 	bpl.w	1cb4 <__vfprintf+0x220>
    2148:	fa4f fa8a 	sxtb.w	sl, sl
    214c:	e5b0      	b.n	1cb0 <__vfprintf+0x21c>
    214e:	07a2      	lsls	r2, r4, #30
    2150:	d404      	bmi.n	215c <__vfprintf+0x6c8>
    2152:	f014 0f04 	tst.w	r4, #4
    2156:	4a21      	ldr	r2, [pc, #132]	; (21dc <__vfprintf+0x748>)
    2158:	4b23      	ldr	r3, [pc, #140]	; (21e8 <__vfprintf+0x754>)
    215a:	e7b1      	b.n	20c0 <__vfprintf+0x62c>
    215c:	4a23      	ldr	r2, [pc, #140]	; (21ec <__vfprintf+0x758>)
    215e:	e5b4      	b.n	1cca <__vfprintf+0x236>
    2160:	06e3      	lsls	r3, r4, #27
    2162:	bf5e      	ittt	pl
    2164:	230d      	movpl	r3, #13
    2166:	f044 0410 	orrpl.w	r4, r4, #16
    216a:	9306      	strpl	r3, [sp, #24]
    216c:	f014 0f10 	tst.w	r4, #16
    2170:	f109 0907 	add.w	r9, r9, #7
    2174:	9b06      	ldr	r3, [sp, #24]
    2176:	f029 0907 	bic.w	r9, r9, #7
    217a:	bf08      	it	eq
    217c:	2306      	moveq	r3, #6
    217e:	9306      	str	r3, [sp, #24]
    2180:	f109 0308 	add.w	r3, r9, #8
    2184:	930c      	str	r3, [sp, #48]	; 0x30
    2186:	e9d9 2300 	ldrd	r2, r3, [r9]
    218a:	e9cd 2314 	strd	r2, r3, [sp, #80]	; 0x50
    218e:	2300      	movs	r3, #0
    2190:	f444 6480 	orr.w	r4, r4, #1024	; 0x400
    2194:	f04f 0a00 	mov.w	sl, #0
    2198:	f04f 0b00 	mov.w	fp, #0
    219c:	461a      	mov	r2, r3
    219e:	e740      	b.n	2022 <__vfprintf+0x58e>
    21a0:	2f61      	cmp	r7, #97	; 0x61
    21a2:	f43f af68 	beq.w	2076 <__vfprintf+0x5e2>
    21a6:	2f64      	cmp	r7, #100	; 0x64
    21a8:	f000 810b 	beq.w	23c2 <__vfprintf+0x92e>
    21ac:	2f58      	cmp	r7, #88	; 0x58
    21ae:	d10a      	bne.n	21c6 <__vfprintf+0x732>
    21b0:	2200      	movs	r2, #0
    21b2:	e02b      	b.n	220c <__vfprintf+0x778>
    21b4:	2f70      	cmp	r7, #112	; 0x70
    21b6:	d0fb      	beq.n	21b0 <__vfprintf+0x71c>
    21b8:	dc08      	bgt.n	21cc <__vfprintf+0x738>
    21ba:	2f69      	cmp	r7, #105	; 0x69
    21bc:	f000 8101 	beq.w	23c2 <__vfprintf+0x92e>
    21c0:	2f6f      	cmp	r7, #111	; 0x6f
    21c2:	f000 809b 	beq.w	22fc <__vfprintf+0x868>
    21c6:	2300      	movs	r3, #0
    21c8:	9306      	str	r3, [sp, #24]
    21ca:	e023      	b.n	2214 <__vfprintf+0x780>
    21cc:	2f75      	cmp	r7, #117	; 0x75
    21ce:	f000 80f8 	beq.w	23c2 <__vfprintf+0x92e>
    21d2:	2f78      	cmp	r7, #120	; 0x78
    21d4:	e7eb      	b.n	21ae <__vfprintf+0x71a>
    21d6:	bf00      	nop
    21d8:	00003db7 			; <UNDEFINED> instruction: 0x00003db7
    21dc:	00003da8 	andeq	r3, r0, r8, lsr #27
    21e0:	00003dd1 	ldrdeq	r3, [r0], -r1
    21e4:	00003dba 			; <UNDEFINED> instruction: 0x00003dba
    21e8:	00003d8f 	andeq	r3, r0, pc, lsl #27
    21ec:	00003dbe 			; <UNDEFINED> instruction: 0x00003dbe
    21f0:	f00a 010f 	and.w	r1, sl, #15
    21f4:	a816      	add	r0, sp, #88	; 0x58
    21f6:	5c59      	ldrb	r1, [r3, r1]
    21f8:	5481      	strb	r1, [r0, r2]
    21fa:	ea4f 111a 	mov.w	r1, sl, lsr #4
    21fe:	ea41 710b 	orr.w	r1, r1, fp, lsl #28
    2202:	ea4f 101b 	mov.w	r0, fp, lsr #4
    2206:	468a      	mov	sl, r1
    2208:	4683      	mov	fp, r0
    220a:	3201      	adds	r2, #1
    220c:	ea5a 010b 	orrs.w	r1, sl, fp
    2210:	9206      	str	r2, [sp, #24]
    2212:	d1ed      	bne.n	21f0 <__vfprintf+0x75c>
    2214:	f414 6380 	ands.w	r3, r4, #1024	; 0x400
    2218:	930e      	str	r3, [sp, #56]	; 0x38
    221a:	f000 80d6 	beq.w	23ca <__vfprintf+0x936>
    221e:	2300      	movs	r3, #0
    2220:	9310      	str	r3, [sp, #64]	; 0x40
    2222:	9b12      	ldr	r3, [sp, #72]	; 0x48
    2224:	2b00      	cmp	r3, #0
    2226:	bfc4      	itt	gt
    2228:	f103 33ff 	addgt.w	r3, r3, #4294967295	; 0xffffffff
    222c:	9310      	strgt	r3, [sp, #64]	; 0x40
    222e:	9b13      	ldr	r3, [sp, #76]	; 0x4c
    2230:	2b00      	cmp	r3, #0
    2232:	dd03      	ble.n	223c <__vfprintf+0x7a8>
    2234:	9a10      	ldr	r2, [sp, #64]	; 0x40
    2236:	3b01      	subs	r3, #1
    2238:	4413      	add	r3, r2
    223a:	9310      	str	r3, [sp, #64]	; 0x40
    223c:	9b06      	ldr	r3, [sp, #24]
    223e:	9f10      	ldr	r7, [sp, #64]	; 0x40
    2240:	9811      	ldr	r0, [sp, #68]	; 0x44
    2242:	441f      	add	r7, r3
    2244:	f000 fe82 	bl	2f4c <strlen>
    2248:	9b0d      	ldr	r3, [sp, #52]	; 0x34
    224a:	1bdf      	subs	r7, r3, r7
    224c:	f004 0301 	and.w	r3, r4, #1
    2250:	930d      	str	r3, [sp, #52]	; 0x34
    2252:	f240 2301 	movw	r3, #513	; 0x201
    2256:	421c      	tst	r4, r3
    2258:	eba7 0700 	sub.w	r7, r7, r0
    225c:	f04f 0800 	mov.w	r8, #0
    2260:	f000 80dc 	beq.w	241c <__vfprintf+0x988>
    2264:	46c2      	mov	sl, r8
    2266:	ea4f 7be8 	mov.w	fp, r8, asr #31
    226a:	9b11      	ldr	r3, [sp, #68]	; 0x44
    226c:	1c5a      	adds	r2, r3, #1
    226e:	9211      	str	r2, [sp, #68]	; 0x44
    2270:	f893 9000 	ldrb.w	r9, [r3]
    2274:	f1b9 0f00 	cmp.w	r9, #0
    2278:	f040 80d7 	bne.w	242a <__vfprintf+0x996>
    227c:	9b0d      	ldr	r3, [sp, #52]	; 0x34
    227e:	b983      	cbnz	r3, 22a2 <__vfprintf+0x80e>
    2280:	f414 7f00 	tst.w	r4, #512	; 0x200
    2284:	bf0c      	ite	eq
    2286:	2320      	moveq	r3, #32
    2288:	2330      	movne	r3, #48	; 0x30
    228a:	46c2      	mov	sl, r8
    228c:	ea4f 7be8 	mov.w	fp, r8, asr #31
    2290:	463c      	mov	r4, r7
    2292:	3c01      	subs	r4, #1
    2294:	f140 80e5 	bpl.w	2462 <__vfprintf+0x9ce>
    2298:	ea27 73e7 	bic.w	r3, r7, r7, asr #31
    229c:	1e7a      	subs	r2, r7, #1
    229e:	1ad7      	subs	r7, r2, r3
    22a0:	4498      	add	r8, r3
    22a2:	9b0e      	ldr	r3, [sp, #56]	; 0x38
    22a4:	2b00      	cmp	r3, #0
    22a6:	f000 80f7 	beq.w	2498 <__vfprintf+0xa04>
    22aa:	2430      	movs	r4, #48	; 0x30
    22ac:	9b06      	ldr	r3, [sp, #24]
    22ae:	454b      	cmp	r3, r9
    22b0:	f300 8107 	bgt.w	24c2 <__vfprintf+0xa2e>
    22b4:	9b0d      	ldr	r3, [sp, #52]	; 0x34
    22b6:	b15b      	cbz	r3, 22d0 <__vfprintf+0x83c>
    22b8:	46c2      	mov	sl, r8
    22ba:	ea4f 7be8 	mov.w	fp, r8, asr #31
    22be:	463c      	mov	r4, r7
    22c0:	f04f 0920 	mov.w	r9, #32
    22c4:	3c01      	subs	r4, #1
    22c6:	f140 8197 	bpl.w	25f8 <__vfprintf+0xb64>
    22ca:	2f00      	cmp	r7, #0
    22cc:	bfa8      	it	ge
    22ce:	44b8      	addge	r8, r7
    22d0:	9b05      	ldr	r3, [sp, #20]
    22d2:	4443      	add	r3, r8
    22d4:	e5a0      	b.n	1e18 <__vfprintf+0x384>
    22d6:	f00a 0207 	and.w	r2, sl, #7
    22da:	a916      	add	r1, sp, #88	; 0x58
    22dc:	3230      	adds	r2, #48	; 0x30
    22de:	54ca      	strb	r2, [r1, r3]
    22e0:	ea4f 02da 	mov.w	r2, sl, lsr #3
    22e4:	ea42 724b 	orr.w	r2, r2, fp, lsl #29
    22e8:	ea4f 01db 	mov.w	r1, fp, lsr #3
    22ec:	4692      	mov	sl, r2
    22ee:	468b      	mov	fp, r1
    22f0:	3301      	adds	r3, #1
    22f2:	ea5a 020b 	orrs.w	r2, sl, fp
    22f6:	9306      	str	r3, [sp, #24]
    22f8:	d1ed      	bne.n	22d6 <__vfprintf+0x842>
    22fa:	e78b      	b.n	2214 <__vfprintf+0x780>
    22fc:	2300      	movs	r3, #0
    22fe:	e7f8      	b.n	22f2 <__vfprintf+0x85e>
    2300:	ea4f 029a 	mov.w	r2, sl, lsr #2
    2304:	ea5f 015b 	movs.w	r1, fp, lsr #1
    2308:	ea4f 003a 	mov.w	r0, sl, rrx
    230c:	ea42 728b 	orr.w	r2, r2, fp, lsl #30
    2310:	eb10 0802 	adds.w	r8, r0, r2
    2314:	ea4f 039b 	mov.w	r3, fp, lsr #2
    2318:	eb41 0903 	adc.w	r9, r1, r3
    231c:	ea4f 1218 	mov.w	r2, r8, lsr #4
    2320:	ea42 7209 	orr.w	r2, r2, r9, lsl #28
    2324:	eb18 0002 	adds.w	r0, r8, r2
    2328:	ea4f 1319 	mov.w	r3, r9, lsr #4
    232c:	eb49 0103 	adc.w	r1, r9, r3
    2330:	4689      	mov	r9, r1
    2332:	0a02      	lsrs	r2, r0, #8
    2334:	4649      	mov	r1, r9
    2336:	ea42 6209 	orr.w	r2, r2, r9, lsl #24
    233a:	1880      	adds	r0, r0, r2
    233c:	ea4f 2311 	mov.w	r3, r1, lsr #8
    2340:	eb49 0103 	adc.w	r1, r9, r3
    2344:	ea4f 4810 	mov.w	r8, r0, lsr #16
    2348:	ea48 4801 	orr.w	r8, r8, r1, lsl #16
    234c:	eb18 0200 	adds.w	r2, r8, r0
    2350:	ea4f 4911 	mov.w	r9, r1, lsr #16
    2354:	eb49 0301 	adc.w	r3, r9, r1
    2358:	eb12 0803 	adds.w	r8, r2, r3
    235c:	f04f 0100 	mov.w	r1, #0
    2360:	eb43 0901 	adc.w	r9, r3, r1
    2364:	ea4f 08d8 	mov.w	r8, r8, lsr #3
    2368:	ea48 7849 	orr.w	r8, r8, r9, lsl #29
    236c:	f11a 0206 	adds.w	r2, sl, #6
    2370:	fba8 010c 	umull	r0, r1, r8, ip
    2374:	ea4f 09d9 	mov.w	r9, r9, lsr #3
    2378:	f14b 0300 	adc.w	r3, fp, #0
    237c:	fb0c 1109 	mla	r1, ip, r9, r1
    2380:	1a12      	subs	r2, r2, r0
    2382:	eb63 0301 	sbc.w	r3, r3, r1
    2386:	e9cd 2306 	strd	r2, r3, [sp, #24]
    238a:	9b06      	ldr	r3, [sp, #24]
    238c:	0918      	lsrs	r0, r3, #4
    238e:	9b07      	ldr	r3, [sp, #28]
    2390:	ea40 7003 	orr.w	r0, r0, r3, lsl #28
    2394:	eb10 0208 	adds.w	r2, r0, r8
    2398:	ea4f 1113 	mov.w	r1, r3, lsr #4
    239c:	eb41 0309 	adc.w	r3, r1, r9
    23a0:	f10a 0a30 	add.w	sl, sl, #48	; 0x30
    23a4:	eb02 0182 	add.w	r1, r2, r2, lsl #2
    23a8:	ebaa 0a41 	sub.w	sl, sl, r1, lsl #1
    23ac:	a916      	add	r1, sp, #88	; 0x58
    23ae:	469b      	mov	fp, r3
    23b0:	f801 a007 	strb.w	sl, [r1, r7]
    23b4:	3701      	adds	r7, #1
    23b6:	4692      	mov	sl, r2
    23b8:	ea5a 030b 	orrs.w	r3, sl, fp
    23bc:	9706      	str	r7, [sp, #24]
    23be:	d19f      	bne.n	2300 <__vfprintf+0x86c>
    23c0:	e728      	b.n	2214 <__vfprintf+0x780>
    23c2:	2700      	movs	r7, #0
    23c4:	f04f 0c0a 	mov.w	ip, #10
    23c8:	e7f6      	b.n	23b8 <__vfprintf+0x924>
    23ca:	9a06      	ldr	r2, [sp, #24]
    23cc:	9b10      	ldr	r3, [sp, #64]	; 0x40
    23ce:	1a9b      	subs	r3, r3, r2
    23d0:	9a0e      	ldr	r2, [sp, #56]	; 0x38
    23d2:	bf48      	it	mi
    23d4:	4613      	movmi	r3, r2
    23d6:	e730      	b.n	223a <__vfprintf+0x7a6>
    23d8:	e9dd 2308 	ldrd	r2, r3, [sp, #32]
    23dc:	4590      	cmp	r8, r2
    23de:	eb79 0303 	sbcs.w	r3, r9, r3
    23e2:	da09      	bge.n	23f8 <__vfprintf+0x964>
    23e4:	68ab      	ldr	r3, [r5, #8]
    23e6:	3b01      	subs	r3, #1
    23e8:	2b00      	cmp	r3, #0
    23ea:	60ab      	str	r3, [r5, #8]
    23ec:	db11      	blt.n	2412 <__vfprintf+0x97e>
    23ee:	682b      	ldr	r3, [r5, #0]
    23f0:	1c5a      	adds	r2, r3, #1
    23f2:	602a      	str	r2, [r5, #0]
    23f4:	f883 b000 	strb.w	fp, [r3]
    23f8:	f118 0801 	adds.w	r8, r8, #1
    23fc:	f149 0900 	adc.w	r9, r9, #0
    2400:	ebaa 0308 	sub.w	r3, sl, r8
    2404:	2b00      	cmp	r3, #0
    2406:	dae7      	bge.n	23d8 <__vfprintf+0x944>
    2408:	ea27 78e7 	bic.w	r8, r7, r7, asr #31
    240c:	ebaa 0708 	sub.w	r7, sl, r8
    2410:	e728      	b.n	2264 <__vfprintf+0x7d0>
    2412:	4629      	mov	r1, r5
    2414:	2020      	movs	r0, #32
    2416:	f000 fca0 	bl	2d5a <__flsbuf>
    241a:	e7ed      	b.n	23f8 <__vfprintf+0x964>
    241c:	f04f 0900 	mov.w	r9, #0
    2420:	f107 3aff 	add.w	sl, r7, #4294967295	; 0xffffffff
    2424:	f04f 0b20 	mov.w	fp, #32
    2428:	e7ea      	b.n	2400 <__vfprintf+0x96c>
    242a:	e9dd 2308 	ldrd	r2, r3, [sp, #32]
    242e:	4592      	cmp	sl, r2
    2430:	eb7b 0303 	sbcs.w	r3, fp, r3
    2434:	f108 0801 	add.w	r8, r8, #1
    2438:	da09      	bge.n	244e <__vfprintf+0x9ba>
    243a:	68ab      	ldr	r3, [r5, #8]
    243c:	3b01      	subs	r3, #1
    243e:	2b00      	cmp	r3, #0
    2440:	60ab      	str	r3, [r5, #8]
    2442:	db09      	blt.n	2458 <__vfprintf+0x9c4>
    2444:	682b      	ldr	r3, [r5, #0]
    2446:	1c5a      	adds	r2, r3, #1
    2448:	602a      	str	r2, [r5, #0]
    244a:	f883 9000 	strb.w	r9, [r3]
    244e:	f11a 0a01 	adds.w	sl, sl, #1
    2452:	f14b 0b00 	adc.w	fp, fp, #0
    2456:	e708      	b.n	226a <__vfprintf+0x7d6>
    2458:	4629      	mov	r1, r5
    245a:	4648      	mov	r0, r9
    245c:	f000 fc7d 	bl	2d5a <__flsbuf>
    2460:	e7f5      	b.n	244e <__vfprintf+0x9ba>
    2462:	e9dd 1208 	ldrd	r1, r2, [sp, #32]
    2466:	458a      	cmp	sl, r1
    2468:	eb7b 0202 	sbcs.w	r2, fp, r2
    246c:	da08      	bge.n	2480 <__vfprintf+0x9ec>
    246e:	68aa      	ldr	r2, [r5, #8]
    2470:	3a01      	subs	r2, #1
    2472:	2a00      	cmp	r2, #0
    2474:	60aa      	str	r2, [r5, #8]
    2476:	db08      	blt.n	248a <__vfprintf+0x9f6>
    2478:	682a      	ldr	r2, [r5, #0]
    247a:	1c51      	adds	r1, r2, #1
    247c:	6029      	str	r1, [r5, #0]
    247e:	7013      	strb	r3, [r2, #0]
    2480:	f11a 0a01 	adds.w	sl, sl, #1
    2484:	f14b 0b00 	adc.w	fp, fp, #0
    2488:	e703      	b.n	2292 <__vfprintf+0x7fe>
    248a:	4618      	mov	r0, r3
    248c:	4629      	mov	r1, r5
    248e:	930f      	str	r3, [sp, #60]	; 0x3c
    2490:	f000 fc63 	bl	2d5a <__flsbuf>
    2494:	9b0f      	ldr	r3, [sp, #60]	; 0x3c
    2496:	e7f3      	b.n	2480 <__vfprintf+0x9ec>
    2498:	46c2      	mov	sl, r8
    249a:	ea4f 7be8 	mov.w	fp, r8, asr #31
    249e:	2430      	movs	r4, #48	; 0x30
    24a0:	9b10      	ldr	r3, [sp, #64]	; 0x40
    24a2:	3b01      	subs	r3, #1
    24a4:	2b00      	cmp	r3, #0
    24a6:	9310      	str	r3, [sp, #64]	; 0x40
    24a8:	da6d      	bge.n	2586 <__vfprintf+0xaf2>
    24aa:	9c06      	ldr	r4, [sp, #24]
    24ac:	46c2      	mov	sl, r8
    24ae:	ea4f 7be8 	mov.w	fp, r8, asr #31
    24b2:	2c00      	cmp	r4, #0
    24b4:	f300 8082 	bgt.w	25bc <__vfprintf+0xb28>
    24b8:	9b06      	ldr	r3, [sp, #24]
    24ba:	2b00      	cmp	r3, #0
    24bc:	bfa8      	it	ge
    24be:	4498      	addge	r8, r3
    24c0:	e6f8      	b.n	22b4 <__vfprintf+0x820>
    24c2:	ab16      	add	r3, sp, #88	; 0x58
    24c4:	46c2      	mov	sl, r8
    24c6:	f813 0009 	ldrb.w	r0, [r3, r9]
    24ca:	283c      	cmp	r0, #60	; 0x3c
    24cc:	ea4f 7be8 	mov.w	fp, r8, asr #31
    24d0:	d031      	beq.n	2536 <__vfprintf+0xaa2>
    24d2:	283e      	cmp	r0, #62	; 0x3e
    24d4:	d141      	bne.n	255a <__vfprintf+0xac6>
    24d6:	9b13      	ldr	r3, [sp, #76]	; 0x4c
    24d8:	3b01      	subs	r3, #1
    24da:	2b00      	cmp	r3, #0
    24dc:	9313      	str	r3, [sp, #76]	; 0x4c
    24de:	db2f      	blt.n	2540 <__vfprintf+0xaac>
    24e0:	e9dd 2308 	ldrd	r2, r3, [sp, #32]
    24e4:	4592      	cmp	sl, r2
    24e6:	eb7b 0303 	sbcs.w	r3, fp, r3
    24ea:	f108 0801 	add.w	r8, r8, #1
    24ee:	da08      	bge.n	2502 <__vfprintf+0xa6e>
    24f0:	68ab      	ldr	r3, [r5, #8]
    24f2:	3b01      	subs	r3, #1
    24f4:	2b00      	cmp	r3, #0
    24f6:	60ab      	str	r3, [r5, #8]
    24f8:	db2a      	blt.n	2550 <__vfprintf+0xabc>
    24fa:	682b      	ldr	r3, [r5, #0]
    24fc:	1c5a      	adds	r2, r3, #1
    24fe:	602a      	str	r2, [r5, #0]
    2500:	701c      	strb	r4, [r3, #0]
    2502:	f11a 0a01 	adds.w	sl, sl, #1
    2506:	f14b 0b00 	adc.w	fp, fp, #0
    250a:	e7e4      	b.n	24d6 <__vfprintf+0xa42>
    250c:	e9dd 2308 	ldrd	r2, r3, [sp, #32]
    2510:	4592      	cmp	sl, r2
    2512:	eb7b 0303 	sbcs.w	r3, fp, r3
    2516:	f108 0801 	add.w	r8, r8, #1
    251a:	da08      	bge.n	252e <__vfprintf+0xa9a>
    251c:	68ab      	ldr	r3, [r5, #8]
    251e:	3b01      	subs	r3, #1
    2520:	2b00      	cmp	r3, #0
    2522:	60ab      	str	r3, [r5, #8]
    2524:	db0f      	blt.n	2546 <__vfprintf+0xab2>
    2526:	682b      	ldr	r3, [r5, #0]
    2528:	1c5a      	adds	r2, r3, #1
    252a:	602a      	str	r2, [r5, #0]
    252c:	701c      	strb	r4, [r3, #0]
    252e:	f11a 0a01 	adds.w	sl, sl, #1
    2532:	f14b 0b00 	adc.w	fp, fp, #0
    2536:	9b12      	ldr	r3, [sp, #72]	; 0x48
    2538:	3b01      	subs	r3, #1
    253a:	2b00      	cmp	r3, #0
    253c:	9312      	str	r3, [sp, #72]	; 0x48
    253e:	dae5      	bge.n	250c <__vfprintf+0xa78>
    2540:	f109 0901 	add.w	r9, r9, #1
    2544:	e6b2      	b.n	22ac <__vfprintf+0x818>
    2546:	4629      	mov	r1, r5
    2548:	2030      	movs	r0, #48	; 0x30
    254a:	f000 fc06 	bl	2d5a <__flsbuf>
    254e:	e7ee      	b.n	252e <__vfprintf+0xa9a>
    2550:	4629      	mov	r1, r5
    2552:	2030      	movs	r0, #48	; 0x30
    2554:	f000 fc01 	bl	2d5a <__flsbuf>
    2558:	e7d3      	b.n	2502 <__vfprintf+0xa6e>
    255a:	e9dd 2308 	ldrd	r2, r3, [sp, #32]
    255e:	4592      	cmp	sl, r2
    2560:	eb7b 0303 	sbcs.w	r3, fp, r3
    2564:	f108 0801 	add.w	r8, r8, #1
    2568:	daea      	bge.n	2540 <__vfprintf+0xaac>
    256a:	68ab      	ldr	r3, [r5, #8]
    256c:	3b01      	subs	r3, #1
    256e:	2b00      	cmp	r3, #0
    2570:	60ab      	str	r3, [r5, #8]
    2572:	db04      	blt.n	257e <__vfprintf+0xaea>
    2574:	682b      	ldr	r3, [r5, #0]
    2576:	1c5a      	adds	r2, r3, #1
    2578:	602a      	str	r2, [r5, #0]
    257a:	7018      	strb	r0, [r3, #0]
    257c:	e7e0      	b.n	2540 <__vfprintf+0xaac>
    257e:	4629      	mov	r1, r5
    2580:	f000 fbeb 	bl	2d5a <__flsbuf>
    2584:	e7dc      	b.n	2540 <__vfprintf+0xaac>
    2586:	e9dd 2308 	ldrd	r2, r3, [sp, #32]
    258a:	4592      	cmp	sl, r2
    258c:	eb7b 0303 	sbcs.w	r3, fp, r3
    2590:	f108 0801 	add.w	r8, r8, #1
    2594:	da08      	bge.n	25a8 <__vfprintf+0xb14>
    2596:	68ab      	ldr	r3, [r5, #8]
    2598:	3b01      	subs	r3, #1
    259a:	2b00      	cmp	r3, #0
    259c:	60ab      	str	r3, [r5, #8]
    259e:	db08      	blt.n	25b2 <__vfprintf+0xb1e>
    25a0:	682b      	ldr	r3, [r5, #0]
    25a2:	1c5a      	adds	r2, r3, #1
    25a4:	602a      	str	r2, [r5, #0]
    25a6:	701c      	strb	r4, [r3, #0]
    25a8:	f11a 0a01 	adds.w	sl, sl, #1
    25ac:	f14b 0b00 	adc.w	fp, fp, #0
    25b0:	e776      	b.n	24a0 <__vfprintf+0xa0c>
    25b2:	4629      	mov	r1, r5
    25b4:	2030      	movs	r0, #48	; 0x30
    25b6:	f000 fbd0 	bl	2d5a <__flsbuf>
    25ba:	e7f5      	b.n	25a8 <__vfprintf+0xb14>
    25bc:	e9dd 2308 	ldrd	r2, r3, [sp, #32]
    25c0:	4592      	cmp	sl, r2
    25c2:	eb7b 0303 	sbcs.w	r3, fp, r3
    25c6:	da0c      	bge.n	25e2 <__vfprintf+0xb4e>
    25c8:	68ab      	ldr	r3, [r5, #8]
    25ca:	aa16      	add	r2, sp, #88	; 0x58
    25cc:	3b01      	subs	r3, #1
    25ce:	4422      	add	r2, r4
    25d0:	2b00      	cmp	r3, #0
    25d2:	60ab      	str	r3, [r5, #8]
    25d4:	f812 0c01 	ldrb.w	r0, [r2, #-1]
    25d8:	db0a      	blt.n	25f0 <__vfprintf+0xb5c>
    25da:	682b      	ldr	r3, [r5, #0]
    25dc:	1c5a      	adds	r2, r3, #1
    25de:	602a      	str	r2, [r5, #0]
    25e0:	7018      	strb	r0, [r3, #0]
    25e2:	f11a 0a01 	adds.w	sl, sl, #1
    25e6:	f104 34ff 	add.w	r4, r4, #4294967295	; 0xffffffff
    25ea:	f14b 0b00 	adc.w	fp, fp, #0
    25ee:	e760      	b.n	24b2 <__vfprintf+0xa1e>
    25f0:	4629      	mov	r1, r5
    25f2:	f000 fbb2 	bl	2d5a <__flsbuf>
    25f6:	e7f4      	b.n	25e2 <__vfprintf+0xb4e>
    25f8:	e9dd 2308 	ldrd	r2, r3, [sp, #32]
    25fc:	4592      	cmp	sl, r2
    25fe:	eb7b 0303 	sbcs.w	r3, fp, r3
    2602:	da09      	bge.n	2618 <__vfprintf+0xb84>
    2604:	68ab      	ldr	r3, [r5, #8]
    2606:	3b01      	subs	r3, #1
    2608:	2b00      	cmp	r3, #0
    260a:	60ab      	str	r3, [r5, #8]
    260c:	db09      	blt.n	2622 <__vfprintf+0xb8e>
    260e:	682b      	ldr	r3, [r5, #0]
    2610:	1c5a      	adds	r2, r3, #1
    2612:	602a      	str	r2, [r5, #0]
    2614:	f883 9000 	strb.w	r9, [r3]
    2618:	f11a 0a01 	adds.w	sl, sl, #1
    261c:	f14b 0b00 	adc.w	fp, fp, #0
    2620:	e650      	b.n	22c4 <__vfprintf+0x830>
    2622:	4629      	mov	r1, r5
    2624:	2020      	movs	r0, #32
    2626:	f000 fb98 	bl	2d5a <__flsbuf>
    262a:	e7f5      	b.n	2618 <__vfprintf+0xb84>

0000262c <_vsnprintf>:
    262c:	b5f0      	push	{r4, r5, r6, r7, lr}
    262e:	b095      	sub	sp, #84	; 0x54
    2630:	4604      	mov	r4, r0
    2632:	460d      	mov	r5, r1
    2634:	4616      	mov	r6, r2
    2636:	2100      	movs	r1, #0
    2638:	223c      	movs	r2, #60	; 0x3c
    263a:	a805      	add	r0, sp, #20
    263c:	461f      	mov	r7, r3
    263e:	f000 fb59 	bl	2cf4 <memset>
    2642:	230a      	movs	r3, #10
    2644:	9308      	str	r3, [sp, #32]
    2646:	f06f 4300 	mvn.w	r3, #2147483648	; 0x80000000
    264a:	9307      	str	r3, [sp, #28]
    264c:	4b0d      	ldr	r3, [pc, #52]	; (2684 <_vsnprintf+0x58>)
    264e:	9405      	str	r4, [sp, #20]
    2650:	2400      	movs	r4, #0
    2652:	e9cd 7301 	strd	r7, r3, [sp, #4]
    2656:	1e6a      	subs	r2, r5, #1
    2658:	4623      	mov	r3, r4
    265a:	9600      	str	r6, [sp, #0]
    265c:	a805      	add	r0, sp, #20
    265e:	f7ff fa19 	bl	1a94 <__vfprintf>
    2662:	9b07      	ldr	r3, [sp, #28]
    2664:	3b01      	subs	r3, #1
    2666:	42a3      	cmp	r3, r4
    2668:	4605      	mov	r5, r0
    266a:	9307      	str	r3, [sp, #28]
    266c:	db04      	blt.n	2678 <_vsnprintf+0x4c>
    266e:	9b05      	ldr	r3, [sp, #20]
    2670:	701c      	strb	r4, [r3, #0]
    2672:	4628      	mov	r0, r5
    2674:	b015      	add	sp, #84	; 0x54
    2676:	bdf0      	pop	{r4, r5, r6, r7, pc}
    2678:	a905      	add	r1, sp, #20
    267a:	4620      	mov	r0, r4
    267c:	f000 fb6d 	bl	2d5a <__flsbuf>
    2680:	e7f7      	b.n	2672 <_vsnprintf+0x46>
    2682:	bf00      	nop
    2684:	00002f49 	andeq	r2, r0, r9, asr #30

00002688 <_printf>:
    2688:	b40f      	push	{r0, r1, r2, r3}
    268a:	b573      	push	{r0, r1, r4, r5, r6, lr}
    268c:	ab06      	add	r3, sp, #24
    268e:	2101      	movs	r1, #1
    2690:	f853 6b04 	ldr.w	r6, [r3], #4
    2694:	9301      	str	r3, [sp, #4]
    2696:	4632      	mov	r2, r6
    2698:	4668      	mov	r0, sp
    269a:	f7ff ffc7 	bl	262c <_vsnprintf>
    269e:	1e04      	subs	r4, r0, #0
    26a0:	dd13      	ble.n	26ca <_printf+0x42>
    26a2:	1c65      	adds	r5, r4, #1
    26a4:	4628      	mov	r0, r5
    26a6:	f7ff f8a3 	bl	17f0 <malloc>
    26aa:	9000      	str	r0, [sp, #0]
    26ac:	b168      	cbz	r0, 26ca <_printf+0x42>
    26ae:	9b01      	ldr	r3, [sp, #4]
    26b0:	4632      	mov	r2, r6
    26b2:	4629      	mov	r1, r5
    26b4:	f7ff ffba 	bl	262c <_vsnprintf>
    26b8:	4b07      	ldr	r3, [pc, #28]	; (26d8 <_printf+0x50>)
    26ba:	9900      	ldr	r1, [sp, #0]
    26bc:	6d18      	ldr	r0, [r3, #80]	; 0x50
    26be:	4622      	mov	r2, r4
    26c0:	f000 fd3a 	bl	3138 <__sys_write>
    26c4:	9800      	ldr	r0, [sp, #0]
    26c6:	f000 fc11 	bl	2eec <free>
    26ca:	4620      	mov	r0, r4
    26cc:	b002      	add	sp, #8
    26ce:	e8bd 4070 	ldmia.w	sp!, {r4, r5, r6, lr}
    26d2:	b004      	add	sp, #16
    26d4:	4770      	bx	lr
    26d6:	bf00      	nop
    26d8:	20000034 	andcs	r0, r0, r4, lsr r0

000026dc <setvbuf>:
    26dc:	b570      	push	{r4, r5, r6, lr}
    26de:	68c4      	ldr	r4, [r0, #12]
    26e0:	07a5      	lsls	r5, r4, #30
    26e2:	d00c      	beq.n	26fe <setvbuf+0x22>
    26e4:	f5b2 7f00 	cmp.w	r2, #512	; 0x200
    26e8:	d005      	beq.n	26f6 <setvbuf+0x1a>
    26ea:	f5b2 6f80 	cmp.w	r2, #1024	; 0x400
    26ee:	d008      	beq.n	2702 <setvbuf+0x26>
    26f0:	f5b2 7f80 	cmp.w	r2, #256	; 0x100
    26f4:	d103      	bne.n	26fe <setvbuf+0x22>
    26f6:	4d08      	ldr	r5, [pc, #32]	; (2718 <setvbuf+0x3c>)
    26f8:	1e5e      	subs	r6, r3, #1
    26fa:	42ae      	cmp	r6, r5
    26fc:	d904      	bls.n	2708 <setvbuf+0x2c>
    26fe:	2001      	movs	r0, #1
    2700:	e008      	b.n	2714 <setvbuf+0x38>
    2702:	f100 0124 	add.w	r1, r0, #36	; 0x24
    2706:	2301      	movs	r3, #1
    2708:	4314      	orrs	r4, r2
    270a:	6101      	str	r1, [r0, #16]
    270c:	6001      	str	r1, [r0, #0]
    270e:	61c3      	str	r3, [r0, #28]
    2710:	60c4      	str	r4, [r0, #12]
    2712:	2000      	movs	r0, #0
    2714:	bd70      	pop	{r4, r5, r6, pc}
    2716:	bf00      	nop
    2718:	00fffffe 	ldrshteq	pc, [pc], #254	; <UNPREDICTABLE>

0000271c <_sbrk>:
    271c:	b570      	push	{r4, r5, r6, lr}
    271e:	4d0b      	ldr	r5, [pc, #44]	; (274c <_sbrk+0x30>)
    2720:	682b      	ldr	r3, [r5, #0]
    2722:	b90b      	cbnz	r3, 2728 <_sbrk+0xc>
    2724:	4b0a      	ldr	r3, [pc, #40]	; (2750 <_sbrk+0x34>)
    2726:	602b      	str	r3, [r5, #0]
    2728:	1cc4      	adds	r4, r0, #3
    272a:	682e      	ldr	r6, [r5, #0]
    272c:	f024 0403 	bic.w	r4, r4, #3
    2730:	4434      	add	r4, r6
    2732:	4620      	mov	r0, r4
    2734:	f000 f832 	bl	279c <__check_heap_overflow>
    2738:	b910      	cbnz	r0, 2740 <_sbrk+0x24>
    273a:	602c      	str	r4, [r5, #0]
    273c:	4630      	mov	r0, r6
    273e:	bd70      	pop	{r4, r5, r6, pc}
    2740:	4b04      	ldr	r3, [pc, #16]	; (2754 <_sbrk+0x38>)
    2742:	220c      	movs	r2, #12
    2744:	601a      	str	r2, [r3, #0]
    2746:	f04f 36ff 	mov.w	r6, #4294967295	; 0xffffffff
    274a:	e7f7      	b.n	273c <_sbrk+0x20>
    274c:	200000e8 	andcs	r0, r0, r8, ror #1
    2750:	200000f4 	strdcs	r0, [r0], -r4
    2754:	200000f0 	strdcs	r0, [r0], -r0	; <UNPREDICTABLE>

00002758 <fflush>:
    2758:	b5f7      	push	{r0, r1, r2, r4, r5, r6, r7, lr}
    275a:	4604      	mov	r4, r0
    275c:	b198      	cbz	r0, 2786 <fflush+0x2e>
    275e:	b003      	add	sp, #12
    2760:	e8bd 40f0 	ldmia.w	sp!, {r4, r5, r6, r7, lr}
    2764:	f000 bc81 	b.w	306a <_do_fflush>
    2768:	fb07 6004 	mla	r0, r7, r4, r6
    276c:	f000 fc7d 	bl	306a <_do_fflush>
    2770:	2800      	cmp	r0, #0
    2772:	bf18      	it	ne
    2774:	f04f 35ff 	movne.w	r5, #4294967295	; 0xffffffff
    2778:	3401      	adds	r4, #1
    277a:	9b01      	ldr	r3, [sp, #4]
    277c:	42a3      	cmp	r3, r4
    277e:	dcf3      	bgt.n	2768 <fflush+0x10>
    2780:	4628      	mov	r0, r5
    2782:	b003      	add	sp, #12
    2784:	bdf0      	pop	{r4, r5, r6, r7, pc}
    2786:	4b03      	ldr	r3, [pc, #12]	; (2794 <fflush+0x3c>)
    2788:	4e03      	ldr	r6, [pc, #12]	; (2798 <fflush+0x40>)
    278a:	681b      	ldr	r3, [r3, #0]
    278c:	9301      	str	r3, [sp, #4]
    278e:	4605      	mov	r5, r0
    2790:	273c      	movs	r7, #60	; 0x3c
    2792:	e7f2      	b.n	277a <fflush+0x22>
    2794:	00003d78 	andeq	r3, r0, r8, ror sp
    2798:	20000034 	andcs	r0, r0, r4, lsr r0

0000279c <__check_heap_overflow>:
    279c:	4b04      	ldr	r3, [pc, #16]	; (27b0 <__check_heap_overflow+0x14>)
    279e:	b123      	cbz	r3, 27aa <__check_heap_overflow+0xe>
    27a0:	4298      	cmp	r0, r3
    27a2:	bf34      	ite	cc
    27a4:	2000      	movcc	r0, #0
    27a6:	2001      	movcs	r0, #1
    27a8:	4770      	bx	lr
    27aa:	4618      	mov	r0, r3
    27ac:	4770      	bx	lr
    27ae:	bf00      	nop
    27b0:	200010f4 	strdcs	r1, [r0], -r4

000027b4 <UART_EnableTx>:
    27b4:	b480      	push	{r7}
    27b6:	b083      	sub	sp, #12
    27b8:	af00      	add	r7, sp, #0
    27ba:	6078      	str	r0, [r7, #4]
    27bc:	460b      	mov	r3, r1
    27be:	70fb      	strb	r3, [r7, #3]
    27c0:	78fb      	ldrb	r3, [r7, #3]
    27c2:	2b00      	cmp	r3, #0
    27c4:	d008      	beq.n	27d8 <UART_EnableTx+0x24>
    27c6:	687b      	ldr	r3, [r7, #4]
    27c8:	78db      	ldrb	r3, [r3, #3]
    27ca:	b2db      	uxtb	r3, r3
    27cc:	f043 0308 	orr.w	r3, r3, #8
    27d0:	b2da      	uxtb	r2, r3
    27d2:	687b      	ldr	r3, [r7, #4]
    27d4:	70da      	strb	r2, [r3, #3]
    27d6:	e007      	b.n	27e8 <UART_EnableTx+0x34>
    27d8:	687b      	ldr	r3, [r7, #4]
    27da:	78db      	ldrb	r3, [r3, #3]
    27dc:	b2db      	uxtb	r3, r3
    27de:	f023 0308 	bic.w	r3, r3, #8
    27e2:	b2da      	uxtb	r2, r3
    27e4:	687b      	ldr	r3, [r7, #4]
    27e6:	70da      	strb	r2, [r3, #3]
    27e8:	bf00      	nop
    27ea:	370c      	adds	r7, #12
    27ec:	46bd      	mov	sp, r7
    27ee:	f85d 7b04 	ldr.w	r7, [sp], #4
    27f2:	4770      	bx	lr

000027f4 <UART_EnableRx>:
    27f4:	b480      	push	{r7}
    27f6:	b083      	sub	sp, #12
    27f8:	af00      	add	r7, sp, #0
    27fa:	6078      	str	r0, [r7, #4]
    27fc:	460b      	mov	r3, r1
    27fe:	70fb      	strb	r3, [r7, #3]
    2800:	78fb      	ldrb	r3, [r7, #3]
    2802:	2b00      	cmp	r3, #0
    2804:	d008      	beq.n	2818 <UART_EnableRx+0x24>
    2806:	687b      	ldr	r3, [r7, #4]
    2808:	78db      	ldrb	r3, [r3, #3]
    280a:	b2db      	uxtb	r3, r3
    280c:	f043 0304 	orr.w	r3, r3, #4
    2810:	b2da      	uxtb	r2, r3
    2812:	687b      	ldr	r3, [r7, #4]
    2814:	70da      	strb	r2, [r3, #3]
    2816:	e007      	b.n	2828 <UART_EnableRx+0x34>
    2818:	687b      	ldr	r3, [r7, #4]
    281a:	78db      	ldrb	r3, [r3, #3]
    281c:	b2db      	uxtb	r3, r3
    281e:	f023 0304 	bic.w	r3, r3, #4
    2822:	b2da      	uxtb	r2, r3
    2824:	687b      	ldr	r3, [r7, #4]
    2826:	70da      	strb	r2, [r3, #3]
    2828:	bf00      	nop
    282a:	370c      	adds	r7, #12
    282c:	46bd      	mov	sp, r7
    282e:	f85d 7b04 	ldr.w	r7, [sp], #4
    2832:	4770      	bx	lr

00002834 <LPUART_EnableTx>:
    2834:	b480      	push	{r7}
    2836:	b083      	sub	sp, #12
    2838:	af00      	add	r7, sp, #0
    283a:	6078      	str	r0, [r7, #4]
    283c:	460b      	mov	r3, r1
    283e:	70fb      	strb	r3, [r7, #3]
    2840:	78fb      	ldrb	r3, [r7, #3]
    2842:	2b00      	cmp	r3, #0
    2844:	d006      	beq.n	2854 <LPUART_EnableTx+0x20>
    2846:	687b      	ldr	r3, [r7, #4]
    2848:	689b      	ldr	r3, [r3, #8]
    284a:	f443 2200 	orr.w	r2, r3, #524288	; 0x80000
    284e:	687b      	ldr	r3, [r7, #4]
    2850:	609a      	str	r2, [r3, #8]
    2852:	e005      	b.n	2860 <LPUART_EnableTx+0x2c>
    2854:	687b      	ldr	r3, [r7, #4]
    2856:	689b      	ldr	r3, [r3, #8]
    2858:	f423 2200 	bic.w	r2, r3, #524288	; 0x80000
    285c:	687b      	ldr	r3, [r7, #4]
    285e:	609a      	str	r2, [r3, #8]
    2860:	bf00      	nop
    2862:	370c      	adds	r7, #12
    2864:	46bd      	mov	sp, r7
    2866:	f85d 7b04 	ldr.w	r7, [sp], #4
    286a:	4770      	bx	lr

0000286c <LPUART_EnableRx>:
    286c:	b480      	push	{r7}
    286e:	b083      	sub	sp, #12
    2870:	af00      	add	r7, sp, #0
    2872:	6078      	str	r0, [r7, #4]
    2874:	460b      	mov	r3, r1
    2876:	70fb      	strb	r3, [r7, #3]
    2878:	78fb      	ldrb	r3, [r7, #3]
    287a:	2b00      	cmp	r3, #0
    287c:	d006      	beq.n	288c <LPUART_EnableRx+0x20>
    287e:	687b      	ldr	r3, [r7, #4]
    2880:	689b      	ldr	r3, [r3, #8]
    2882:	f443 2280 	orr.w	r2, r3, #262144	; 0x40000
    2886:	687b      	ldr	r3, [r7, #4]
    2888:	609a      	str	r2, [r3, #8]
    288a:	e005      	b.n	2898 <LPUART_EnableRx+0x2c>
    288c:	687b      	ldr	r3, [r7, #4]
    288e:	689b      	ldr	r3, [r3, #8]
    2890:	f423 2280 	bic.w	r2, r3, #262144	; 0x40000
    2894:	687b      	ldr	r3, [r7, #4]
    2896:	609a      	str	r2, [r3, #8]
    2898:	bf00      	nop
    289a:	370c      	adds	r7, #12
    289c:	46bd      	mov	sp, r7
    289e:	f85d 7b04 	ldr.w	r7, [sp], #4
    28a2:	4770      	bx	lr

000028a4 <LOG_Init>:
    28a4:	b580      	push	{r7, lr}
    28a6:	b086      	sub	sp, #24
    28a8:	af00      	add	r7, sp, #0
    28aa:	60f8      	str	r0, [r7, #12]
    28ac:	607a      	str	r2, [r7, #4]
    28ae:	603b      	str	r3, [r7, #0]
    28b0:	460b      	mov	r3, r1
    28b2:	72fb      	strb	r3, [r7, #11]
    28b4:	68fb      	ldr	r3, [r7, #12]
    28b6:	613b      	str	r3, [r7, #16]
    28b8:	7afb      	ldrb	r3, [r7, #11]
    28ba:	753b      	strb	r3, [r7, #20]
    28bc:	f107 0010 	add.w	r0, r7, #16
    28c0:	2300      	movs	r3, #0
    28c2:	683a      	ldr	r2, [r7, #0]
    28c4:	6879      	ldr	r1, [r7, #4]
    28c6:	f7fd fdbf 	bl	448 <IO_Init>
    28ca:	2300      	movs	r3, #0
    28cc:	4618      	mov	r0, r3
    28ce:	3718      	adds	r7, #24
    28d0:	46bd      	mov	sp, r7
    28d2:	bd80      	pop	{r7, pc}

000028d4 <DMA0_IRQHandler>:
    28d4:	b508      	push	{r3, lr}
    28d6:	f7fd fca2 	bl	21e <ADC0_DriverIRQHandler>
    28da:	bd08      	pop	{r3, pc}

000028dc <DMA1_IRQHandler>:
    28dc:	b508      	push	{r3, lr}
    28de:	f7fd fc9e 	bl	21e <ADC0_DriverIRQHandler>
    28e2:	bd08      	pop	{r3, pc}

000028e4 <DMA2_IRQHandler>:
    28e4:	b508      	push	{r3, lr}
    28e6:	f7fd fc9a 	bl	21e <ADC0_DriverIRQHandler>
    28ea:	bd08      	pop	{r3, pc}

000028ec <DMA3_IRQHandler>:
    28ec:	b508      	push	{r3, lr}
    28ee:	f7fd fc96 	bl	21e <ADC0_DriverIRQHandler>
    28f2:	bd08      	pop	{r3, pc}

000028f4 <DMA4_IRQHandler>:
    28f4:	b508      	push	{r3, lr}
    28f6:	f7fd fc92 	bl	21e <ADC0_DriverIRQHandler>
    28fa:	bd08      	pop	{r3, pc}

000028fc <DMA5_IRQHandler>:
    28fc:	b508      	push	{r3, lr}
    28fe:	f7fd fc8e 	bl	21e <ADC0_DriverIRQHandler>
    2902:	bd08      	pop	{r3, pc}

00002904 <DMA6_IRQHandler>:
    2904:	b508      	push	{r3, lr}
    2906:	f7fd fc8a 	bl	21e <ADC0_DriverIRQHandler>
    290a:	bd08      	pop	{r3, pc}

0000290c <DMA7_IRQHandler>:
    290c:	b508      	push	{r3, lr}
    290e:	f7fd fc86 	bl	21e <ADC0_DriverIRQHandler>
    2912:	bd08      	pop	{r3, pc}

00002914 <DMA8_IRQHandler>:
    2914:	b508      	push	{r3, lr}
    2916:	f7fd fc82 	bl	21e <ADC0_DriverIRQHandler>
    291a:	bd08      	pop	{r3, pc}

0000291c <DMA9_IRQHandler>:
    291c:	b508      	push	{r3, lr}
    291e:	f7fd fc7e 	bl	21e <ADC0_DriverIRQHandler>
    2922:	bd08      	pop	{r3, pc}

00002924 <DMA10_IRQHandler>:
    2924:	b508      	push	{r3, lr}
    2926:	f7fd fc7a 	bl	21e <ADC0_DriverIRQHandler>
    292a:	bd08      	pop	{r3, pc}

0000292c <DMA11_IRQHandler>:
    292c:	b508      	push	{r3, lr}
    292e:	f7fd fc76 	bl	21e <ADC0_DriverIRQHandler>
    2932:	bd08      	pop	{r3, pc}

00002934 <DMA12_IRQHandler>:
    2934:	b508      	push	{r3, lr}
    2936:	f7fd fc72 	bl	21e <ADC0_DriverIRQHandler>
    293a:	bd08      	pop	{r3, pc}

0000293c <DMA13_IRQHandler>:
    293c:	b508      	push	{r3, lr}
    293e:	f7fd fc6e 	bl	21e <ADC0_DriverIRQHandler>
    2942:	bd08      	pop	{r3, pc}

00002944 <DMA14_IRQHandler>:
    2944:	b508      	push	{r3, lr}
    2946:	f7fd fc6a 	bl	21e <ADC0_DriverIRQHandler>
    294a:	bd08      	pop	{r3, pc}

0000294c <DMA15_IRQHandler>:
    294c:	b508      	push	{r3, lr}
    294e:	f7fd fc66 	bl	21e <ADC0_DriverIRQHandler>
    2952:	bd08      	pop	{r3, pc}

00002954 <DMA_Error_IRQHandler>:
    2954:	b508      	push	{r3, lr}
    2956:	f7fd fc62 	bl	21e <ADC0_DriverIRQHandler>
    295a:	bd08      	pop	{r3, pc}

0000295c <MCM_IRQHandler>:
    295c:	b508      	push	{r3, lr}
    295e:	f7fd fc5e 	bl	21e <ADC0_DriverIRQHandler>
    2962:	bd08      	pop	{r3, pc}

00002964 <FTF_IRQHandler>:
    2964:	b508      	push	{r3, lr}
    2966:	f7fd fc5a 	bl	21e <ADC0_DriverIRQHandler>
    296a:	bd08      	pop	{r3, pc}

0000296c <Read_Collision_IRQHandler>:
    296c:	b508      	push	{r3, lr}
    296e:	f7fd fc56 	bl	21e <ADC0_DriverIRQHandler>
    2972:	bd08      	pop	{r3, pc}

00002974 <LVD_LVW_IRQHandler>:
    2974:	b508      	push	{r3, lr}
    2976:	f7fd fc52 	bl	21e <ADC0_DriverIRQHandler>
    297a:	bd08      	pop	{r3, pc}

0000297c <LLWU_IRQHandler>:
    297c:	b508      	push	{r3, lr}
    297e:	f7fd fc4e 	bl	21e <ADC0_DriverIRQHandler>
    2982:	bd08      	pop	{r3, pc}

00002984 <WDOG_EWM_IRQHandler>:
    2984:	b508      	push	{r3, lr}
    2986:	f7fd fc4a 	bl	21e <ADC0_DriverIRQHandler>
    298a:	bd08      	pop	{r3, pc}

0000298c <RNG_IRQHandler>:
    298c:	b508      	push	{r3, lr}
    298e:	f7fd fc46 	bl	21e <ADC0_DriverIRQHandler>
    2992:	bd08      	pop	{r3, pc}

00002994 <I2C0_IRQHandler>:
    2994:	b508      	push	{r3, lr}
    2996:	f7fd fc42 	bl	21e <ADC0_DriverIRQHandler>
    299a:	bd08      	pop	{r3, pc}

0000299c <I2C1_IRQHandler>:
    299c:	b508      	push	{r3, lr}
    299e:	f7fd fc3e 	bl	21e <ADC0_DriverIRQHandler>
    29a2:	bd08      	pop	{r3, pc}

000029a4 <SPI0_IRQHandler>:
    29a4:	b508      	push	{r3, lr}
    29a6:	f7fd fc3a 	bl	21e <ADC0_DriverIRQHandler>
    29aa:	bd08      	pop	{r3, pc}

000029ac <SPI1_IRQHandler>:
    29ac:	b508      	push	{r3, lr}
    29ae:	f7fd fc36 	bl	21e <ADC0_DriverIRQHandler>
    29b2:	bd08      	pop	{r3, pc}

000029b4 <I2S0_Tx_IRQHandler>:
    29b4:	b508      	push	{r3, lr}
    29b6:	f7fd fc32 	bl	21e <ADC0_DriverIRQHandler>
    29ba:	bd08      	pop	{r3, pc}

000029bc <I2S0_Rx_IRQHandler>:
    29bc:	b508      	push	{r3, lr}
    29be:	f7fd fc2e 	bl	21e <ADC0_DriverIRQHandler>
    29c2:	bd08      	pop	{r3, pc}

000029c4 <LPUART0_IRQHandler>:
    29c4:	b508      	push	{r3, lr}
    29c6:	f7fe fb49 	bl	105c <LPUART0_DriverIRQHandler>
    29ca:	bd08      	pop	{r3, pc}

000029cc <UART0_RX_TX_IRQHandler>:
    29cc:	b508      	push	{r3, lr}
    29ce:	f000 f934 	bl	2c3a <UART0_RX_TX_DriverIRQHandler>
    29d2:	bd08      	pop	{r3, pc}

000029d4 <UART0_ERR_IRQHandler>:
    29d4:	b508      	push	{r3, lr}
    29d6:	f7fd fc22 	bl	21e <ADC0_DriverIRQHandler>
    29da:	bd08      	pop	{r3, pc}

000029dc <UART1_RX_TX_IRQHandler>:
    29dc:	b508      	push	{r3, lr}
    29de:	f000 f934 	bl	2c4a <UART1_RX_TX_DriverIRQHandler>
    29e2:	bd08      	pop	{r3, pc}

000029e4 <UART1_ERR_IRQHandler>:
    29e4:	b508      	push	{r3, lr}
    29e6:	f7fd fc1a 	bl	21e <ADC0_DriverIRQHandler>
    29ea:	bd08      	pop	{r3, pc}

000029ec <UART2_RX_TX_IRQHandler>:
    29ec:	b508      	push	{r3, lr}
    29ee:	f000 f934 	bl	2c5a <UART2_RX_TX_DriverIRQHandler>
    29f2:	bd08      	pop	{r3, pc}

000029f4 <UART2_ERR_IRQHandler>:
    29f4:	b508      	push	{r3, lr}
    29f6:	f7fd fc12 	bl	21e <ADC0_DriverIRQHandler>
    29fa:	bd08      	pop	{r3, pc}

000029fc <Reserved53_IRQHandler>:
    29fc:	b508      	push	{r3, lr}
    29fe:	f7fd fc0e 	bl	21e <ADC0_DriverIRQHandler>
    2a02:	bd08      	pop	{r3, pc}

00002a04 <Reserved54_IRQHandler>:
    2a04:	b508      	push	{r3, lr}
    2a06:	f7fd fc0a 	bl	21e <ADC0_DriverIRQHandler>
    2a0a:	bd08      	pop	{r3, pc}

00002a0c <ADC0_IRQHandler>:
    2a0c:	b508      	push	{r3, lr}
    2a0e:	f7fd fc06 	bl	21e <ADC0_DriverIRQHandler>
    2a12:	bd08      	pop	{r3, pc}

00002a14 <CMP0_IRQHandler>:
    2a14:	b508      	push	{r3, lr}
    2a16:	f7fd fc02 	bl	21e <ADC0_DriverIRQHandler>
    2a1a:	bd08      	pop	{r3, pc}

00002a1c <CMP1_IRQHandler>:
    2a1c:	b508      	push	{r3, lr}
    2a1e:	f7fd fbfe 	bl	21e <ADC0_DriverIRQHandler>
    2a22:	bd08      	pop	{r3, pc}

00002a24 <FTM0_IRQHandler>:
    2a24:	b508      	push	{r3, lr}
    2a26:	f7fd fbfa 	bl	21e <ADC0_DriverIRQHandler>
    2a2a:	bd08      	pop	{r3, pc}

00002a2c <FTM1_IRQHandler>:
    2a2c:	b508      	push	{r3, lr}
    2a2e:	f7fd fbf6 	bl	21e <ADC0_DriverIRQHandler>
    2a32:	bd08      	pop	{r3, pc}

00002a34 <FTM2_IRQHandler>:
    2a34:	b508      	push	{r3, lr}
    2a36:	f7fd fbf2 	bl	21e <ADC0_DriverIRQHandler>
    2a3a:	bd08      	pop	{r3, pc}

00002a3c <Reserved61_IRQHandler>:
    2a3c:	b508      	push	{r3, lr}
    2a3e:	f7fd fbee 	bl	21e <ADC0_DriverIRQHandler>
    2a42:	bd08      	pop	{r3, pc}

00002a44 <RTC_IRQHandler>:
    2a44:	b508      	push	{r3, lr}
    2a46:	f7fd fbea 	bl	21e <ADC0_DriverIRQHandler>
    2a4a:	bd08      	pop	{r3, pc}

00002a4c <RTC_Seconds_IRQHandler>:
    2a4c:	b508      	push	{r3, lr}
    2a4e:	f7fd fbe6 	bl	21e <ADC0_DriverIRQHandler>
    2a52:	bd08      	pop	{r3, pc}

00002a54 <PIT0_IRQHandler>:
    2a54:	b508      	push	{r3, lr}
    2a56:	f7fd fbe2 	bl	21e <ADC0_DriverIRQHandler>
    2a5a:	bd08      	pop	{r3, pc}

00002a5c <PIT1_IRQHandler>:
    2a5c:	b508      	push	{r3, lr}
    2a5e:	f7fd fbde 	bl	21e <ADC0_DriverIRQHandler>
    2a62:	bd08      	pop	{r3, pc}

00002a64 <PIT2_IRQHandler>:
    2a64:	b508      	push	{r3, lr}
    2a66:	f7fd fbda 	bl	21e <ADC0_DriverIRQHandler>
    2a6a:	bd08      	pop	{r3, pc}

00002a6c <PIT3_IRQHandler>:
    2a6c:	b508      	push	{r3, lr}
    2a6e:	f7fd fbd6 	bl	21e <ADC0_DriverIRQHandler>
    2a72:	bd08      	pop	{r3, pc}

00002a74 <PDB0_IRQHandler>:
    2a74:	b508      	push	{r3, lr}
    2a76:	f7fd fbd2 	bl	21e <ADC0_DriverIRQHandler>
    2a7a:	bd08      	pop	{r3, pc}

00002a7c <USB0_IRQHandler>:
    2a7c:	b508      	push	{r3, lr}
    2a7e:	f7fd fbce 	bl	21e <ADC0_DriverIRQHandler>
    2a82:	bd08      	pop	{r3, pc}

00002a84 <Reserved70_IRQHandler>:
    2a84:	b508      	push	{r3, lr}
    2a86:	f7fd fbca 	bl	21e <ADC0_DriverIRQHandler>
    2a8a:	bd08      	pop	{r3, pc}

00002a8c <Reserved71_IRQHandler>:
    2a8c:	b508      	push	{r3, lr}
    2a8e:	f7fd fbc6 	bl	21e <ADC0_DriverIRQHandler>
    2a92:	bd08      	pop	{r3, pc}

00002a94 <DAC0_IRQHandler>:
    2a94:	b508      	push	{r3, lr}
    2a96:	f7fd fbc2 	bl	21e <ADC0_DriverIRQHandler>
    2a9a:	bd08      	pop	{r3, pc}

00002a9c <MCG_IRQHandler>:
    2a9c:	b508      	push	{r3, lr}
    2a9e:	f7fd fbbe 	bl	21e <ADC0_DriverIRQHandler>
    2aa2:	bd08      	pop	{r3, pc}

00002aa4 <LPTMR0_IRQHandler>:
    2aa4:	b508      	push	{r3, lr}
    2aa6:	f7fd fbba 	bl	21e <ADC0_DriverIRQHandler>
    2aaa:	bd08      	pop	{r3, pc}

00002aac <PORTA_IRQHandler>:
    2aac:	b508      	push	{r3, lr}
    2aae:	f7fd fbb6 	bl	21e <ADC0_DriverIRQHandler>
    2ab2:	bd08      	pop	{r3, pc}

00002ab4 <PORTB_IRQHandler>:
    2ab4:	b508      	push	{r3, lr}
    2ab6:	f7fd fbb2 	bl	21e <ADC0_DriverIRQHandler>
    2aba:	bd08      	pop	{r3, pc}

00002abc <PORTC_IRQHandler>:
    2abc:	b508      	push	{r3, lr}
    2abe:	f7fd fbae 	bl	21e <ADC0_DriverIRQHandler>
    2ac2:	bd08      	pop	{r3, pc}

00002ac4 <PORTD_IRQHandler>:
    2ac4:	b508      	push	{r3, lr}
    2ac6:	f7fd fbaa 	bl	21e <ADC0_DriverIRQHandler>
    2aca:	bd08      	pop	{r3, pc}

00002acc <PORTE_IRQHandler>:
    2acc:	b508      	push	{r3, lr}
    2ace:	f7fd fba6 	bl	21e <ADC0_DriverIRQHandler>
    2ad2:	bd08      	pop	{r3, pc}

00002ad4 <SWI_IRQHandler>:
    2ad4:	b508      	push	{r3, lr}
    2ad6:	f7fd fba2 	bl	21e <ADC0_DriverIRQHandler>
    2ada:	bd08      	pop	{r3, pc}

00002adc <Reserved81_IRQHandler>:
    2adc:	b508      	push	{r3, lr}
    2ade:	f7fd fb9e 	bl	21e <ADC0_DriverIRQHandler>
    2ae2:	bd08      	pop	{r3, pc}

00002ae4 <Reserved82_IRQHandler>:
    2ae4:	b508      	push	{r3, lr}
    2ae6:	f7fd fb9a 	bl	21e <ADC0_DriverIRQHandler>
    2aea:	bd08      	pop	{r3, pc}

00002aec <Reserved83_IRQHandler>:
    2aec:	b508      	push	{r3, lr}
    2aee:	f7fd fb96 	bl	21e <ADC0_DriverIRQHandler>
    2af2:	bd08      	pop	{r3, pc}

00002af4 <Reserved84_IRQHandler>:
    2af4:	b508      	push	{r3, lr}
    2af6:	f7fd fb92 	bl	21e <ADC0_DriverIRQHandler>
    2afa:	bd08      	pop	{r3, pc}

00002afc <Reserved85_IRQHandler>:
    2afc:	b508      	push	{r3, lr}
    2afe:	f7fd fb8e 	bl	21e <ADC0_DriverIRQHandler>
    2b02:	bd08      	pop	{r3, pc}

00002b04 <Reserved86_IRQHandler>:
    2b04:	b508      	push	{r3, lr}
    2b06:	f7fd fb8a 	bl	21e <ADC0_DriverIRQHandler>
    2b0a:	bd08      	pop	{r3, pc}

00002b0c <FTM3_IRQHandler>:
    2b0c:	b508      	push	{r3, lr}
    2b0e:	f7fd fb86 	bl	21e <ADC0_DriverIRQHandler>
    2b12:	bd08      	pop	{r3, pc}

00002b14 <DAC1_IRQHandler>:
    2b14:	b508      	push	{r3, lr}
    2b16:	f7fd fb82 	bl	21e <ADC0_DriverIRQHandler>
    2b1a:	bd08      	pop	{r3, pc}

00002b1c <ADC1_IRQHandler>:
    2b1c:	b508      	push	{r3, lr}
    2b1e:	f7fd fb7e 	bl	21e <ADC0_DriverIRQHandler>
    2b22:	bd08      	pop	{r3, pc}

00002b24 <HardFault_Handler>:
    2b24:	2004      	movs	r0, #4
    2b26:	4671      	mov	r1, lr
    2b28:	4208      	tst	r0, r1
    2b2a:	d002      	beq.n	2b32 <_MSP>
    2b2c:	f3ef 8009 	mrs	r0, PSP
    2b30:	e001      	b.n	2b36 <_process>

00002b32 <_MSP>:
    2b32:	f3ef 8008 	mrs	r0, MSP

00002b36 <_process>:
    2b36:	6981      	ldr	r1, [r0, #24]
    2b38:	880a      	ldrh	r2, [r1, #0]
    2b3a:	f64b 63ab 	movw	r3, #48811	; 0xbeab
    2b3e:	429a      	cmp	r2, r3
    2b40:	d000      	beq.n	2b44 <_semihost_return>
    2b42:	e7fe      	b.n	2b42 <_process+0xc>

00002b44 <_semihost_return>:
    2b44:	3102      	adds	r1, #2
    2b46:	6181      	str	r1, [r0, #24]
    2b48:	2120      	movs	r1, #32
    2b4a:	6001      	str	r1, [r0, #0]
    2b4c:	4770      	bx	lr
    2b4e:	bf00      	nop

00002b50 <OSC_SetExtRefClkConfig>:
    2b50:	b480      	push	{r7}
    2b52:	b085      	sub	sp, #20
    2b54:	af00      	add	r7, sp, #0
    2b56:	6078      	str	r0, [r7, #4]
    2b58:	6039      	str	r1, [r7, #0]
    2b5a:	687b      	ldr	r3, [r7, #4]
    2b5c:	781b      	ldrb	r3, [r3, #0]
    2b5e:	73fb      	strb	r3, [r7, #15]
    2b60:	7bfb      	ldrb	r3, [r7, #15]
    2b62:	f003 035f 	and.w	r3, r3, #95	; 0x5f
    2b66:	73fb      	strb	r3, [r7, #15]
    2b68:	683b      	ldr	r3, [r7, #0]
    2b6a:	781a      	ldrb	r2, [r3, #0]
    2b6c:	7bfb      	ldrb	r3, [r7, #15]
    2b6e:	4313      	orrs	r3, r2
    2b70:	73fb      	strb	r3, [r7, #15]
    2b72:	687b      	ldr	r3, [r7, #4]
    2b74:	7bfa      	ldrb	r2, [r7, #15]
    2b76:	701a      	strb	r2, [r3, #0]
    2b78:	683b      	ldr	r3, [r7, #0]
    2b7a:	785b      	ldrb	r3, [r3, #1]
    2b7c:	019b      	lsls	r3, r3, #6
    2b7e:	b2da      	uxtb	r2, r3
    2b80:	687b      	ldr	r3, [r7, #4]
    2b82:	709a      	strb	r2, [r3, #2]
    2b84:	bf00      	nop
    2b86:	3714      	adds	r7, #20
    2b88:	46bd      	mov	sp, r7
    2b8a:	f85d 7b04 	ldr.w	r7, [sp], #4
    2b8e:	4770      	bx	lr

00002b90 <OSC_SetCapLoad>:
    2b90:	b480      	push	{r7}
    2b92:	b085      	sub	sp, #20
    2b94:	af00      	add	r7, sp, #0
    2b96:	6078      	str	r0, [r7, #4]
    2b98:	460b      	mov	r3, r1
    2b9a:	70fb      	strb	r3, [r7, #3]
    2b9c:	687b      	ldr	r3, [r7, #4]
    2b9e:	781b      	ldrb	r3, [r3, #0]
    2ba0:	73fb      	strb	r3, [r7, #15]
    2ba2:	7bfb      	ldrb	r3, [r7, #15]
    2ba4:	f023 030f 	bic.w	r3, r3, #15
    2ba8:	73fb      	strb	r3, [r7, #15]
    2baa:	7bfa      	ldrb	r2, [r7, #15]
    2bac:	78fb      	ldrb	r3, [r7, #3]
    2bae:	4313      	orrs	r3, r2
    2bb0:	73fb      	strb	r3, [r7, #15]
    2bb2:	687b      	ldr	r3, [r7, #4]
    2bb4:	7bfa      	ldrb	r2, [r7, #15]
    2bb6:	701a      	strb	r2, [r3, #0]
    2bb8:	bf00      	nop
    2bba:	3714      	adds	r7, #20
    2bbc:	46bd      	mov	sp, r7
    2bbe:	f85d 7b04 	ldr.w	r7, [sp], #4
    2bc2:	4770      	bx	lr

00002bc4 <CLOCK_GetPll0RefFreq>:
    2bc4:	b580      	push	{r7, lr}
    2bc6:	af00      	add	r7, sp, #0
    2bc8:	f7fd fd12 	bl	5f0 <CLOCK_GetMcgExtClkFreq>
    2bcc:	4603      	mov	r3, r0
    2bce:	4618      	mov	r0, r3
    2bd0:	bd80      	pop	{r7, pc}

00002bd2 <CLOCK_EnableClock>:
    2bd2:	b480      	push	{r7}
    2bd4:	b085      	sub	sp, #20
    2bd6:	af00      	add	r7, sp, #0
    2bd8:	6078      	str	r0, [r7, #4]
    2bda:	687b      	ldr	r3, [r7, #4]
    2bdc:	0c1b      	lsrs	r3, r3, #16
    2bde:	f103 4380 	add.w	r3, r3, #1073741824	; 0x40000000
    2be2:	f503 238e 	add.w	r3, r3, #290816	; 0x47000
    2be6:	60fb      	str	r3, [r7, #12]
    2be8:	68fb      	ldr	r3, [r7, #12]
    2bea:	6819      	ldr	r1, [r3, #0]
    2bec:	687b      	ldr	r3, [r7, #4]
    2bee:	b29b      	uxth	r3, r3
    2bf0:	2201      	movs	r2, #1
    2bf2:	409a      	lsls	r2, r3
    2bf4:	68fb      	ldr	r3, [r7, #12]
    2bf6:	430a      	orrs	r2, r1
    2bf8:	601a      	str	r2, [r3, #0]
    2bfa:	bf00      	nop
    2bfc:	3714      	adds	r7, #20
    2bfe:	46bd      	mov	sp, r7
    2c00:	f85d 7b04 	ldr.w	r7, [sp], #4
    2c04:	4770      	bx	lr

00002c06 <CLOCK_EnableClock>:
    2c06:	b480      	push	{r7}
    2c08:	b085      	sub	sp, #20
    2c0a:	af00      	add	r7, sp, #0
    2c0c:	6078      	str	r0, [r7, #4]
    2c0e:	687b      	ldr	r3, [r7, #4]
    2c10:	0c1b      	lsrs	r3, r3, #16
    2c12:	f103 4380 	add.w	r3, r3, #1073741824	; 0x40000000
    2c16:	f503 238e 	add.w	r3, r3, #290816	; 0x47000
    2c1a:	60fb      	str	r3, [r7, #12]
    2c1c:	68fb      	ldr	r3, [r7, #12]
    2c1e:	6819      	ldr	r1, [r3, #0]
    2c20:	687b      	ldr	r3, [r7, #4]
    2c22:	b29b      	uxth	r3, r3
    2c24:	2201      	movs	r2, #1
    2c26:	409a      	lsls	r2, r3
    2c28:	68fb      	ldr	r3, [r7, #12]
    2c2a:	430a      	orrs	r2, r1
    2c2c:	601a      	str	r2, [r3, #0]
    2c2e:	bf00      	nop
    2c30:	3714      	adds	r7, #20
    2c32:	46bd      	mov	sp, r7
    2c34:	f85d 7b04 	ldr.w	r7, [sp], #4
    2c38:	4770      	bx	lr

00002c3a <UART0_RX_TX_DriverIRQHandler>:
    2c3a:	b580      	push	{r7, lr}
    2c3c:	af00      	add	r7, sp, #0
    2c3e:	f7fe fbb7 	bl	13b0 <UART0_DriverIRQHandler>
    2c42:	f3bf 8f4f 	dsb	sy
    2c46:	bf00      	nop
    2c48:	bd80      	pop	{r7, pc}

00002c4a <UART1_RX_TX_DriverIRQHandler>:
    2c4a:	b580      	push	{r7, lr}
    2c4c:	af00      	add	r7, sp, #0
    2c4e:	f7fe fbc3 	bl	13d8 <UART1_DriverIRQHandler>
    2c52:	f3bf 8f4f 	dsb	sy
    2c56:	bf00      	nop
    2c58:	bd80      	pop	{r7, pc}

00002c5a <UART2_RX_TX_DriverIRQHandler>:
    2c5a:	b580      	push	{r7, lr}
    2c5c:	af00      	add	r7, sp, #0
    2c5e:	f7fe fbcf 	bl	1400 <UART2_DriverIRQHandler>
    2c62:	f3bf 8f4f 	dsb	sy
    2c66:	bf00      	nop
    2c68:	bd80      	pop	{r7, pc}

00002c6a <CLOCK_EnableClock>:
    2c6a:	b480      	push	{r7}
    2c6c:	b085      	sub	sp, #20
    2c6e:	af00      	add	r7, sp, #0
    2c70:	6078      	str	r0, [r7, #4]
    2c72:	687b      	ldr	r3, [r7, #4]
    2c74:	0c1b      	lsrs	r3, r3, #16
    2c76:	f103 4380 	add.w	r3, r3, #1073741824	; 0x40000000
    2c7a:	f503 238e 	add.w	r3, r3, #290816	; 0x47000
    2c7e:	60fb      	str	r3, [r7, #12]
    2c80:	68fb      	ldr	r3, [r7, #12]
    2c82:	6819      	ldr	r1, [r3, #0]
    2c84:	687b      	ldr	r3, [r7, #4]
    2c86:	b29b      	uxth	r3, r3
    2c88:	2201      	movs	r2, #1
    2c8a:	409a      	lsls	r2, r3
    2c8c:	68fb      	ldr	r3, [r7, #12]
    2c8e:	430a      	orrs	r2, r1
    2c90:	601a      	str	r2, [r3, #0]
    2c92:	bf00      	nop
    2c94:	3714      	adds	r7, #20
    2c96:	46bd      	mov	sp, r7
    2c98:	f85d 7b04 	ldr.w	r7, [sp], #4
    2c9c:	4770      	bx	lr

00002c9e <PORT_SetPinMux>:
    2c9e:	b480      	push	{r7}
    2ca0:	b085      	sub	sp, #20
    2ca2:	af00      	add	r7, sp, #0
    2ca4:	60f8      	str	r0, [r7, #12]
    2ca6:	60b9      	str	r1, [r7, #8]
    2ca8:	4613      	mov	r3, r2
    2caa:	71fb      	strb	r3, [r7, #7]
    2cac:	68fb      	ldr	r3, [r7, #12]
    2cae:	68ba      	ldr	r2, [r7, #8]
    2cb0:	f853 3022 	ldr.w	r3, [r3, r2, lsl #2]
    2cb4:	f423 62e0 	bic.w	r2, r3, #1792	; 0x700
    2cb8:	79fb      	ldrb	r3, [r7, #7]
    2cba:	021b      	lsls	r3, r3, #8
    2cbc:	f403 63e0 	and.w	r3, r3, #1792	; 0x700
    2cc0:	ea42 0103 	orr.w	r1, r2, r3
    2cc4:	68fb      	ldr	r3, [r7, #12]
    2cc6:	68ba      	ldr	r2, [r7, #8]
    2cc8:	f843 1022 	str.w	r1, [r3, r2, lsl #2]
    2ccc:	bf00      	nop
    2cce:	3714      	adds	r7, #20
    2cd0:	46bd      	mov	sp, r7
    2cd2:	f85d 7b04 	ldr.w	r7, [sp], #4
    2cd6:	4770      	bx	lr

00002cd8 <SystemInitHook>:
    2cd8:	b480      	push	{r7}
    2cda:	af00      	add	r7, sp, #0
    2cdc:	bf00      	nop
    2cde:	46bd      	mov	sp, r7
    2ce0:	f85d 7b04 	ldr.w	r7, [sp], #4
    2ce4:	4770      	bx	lr

00002ce6 <__main>:
    2ce6:	b508      	push	{r3, lr}
    2ce8:	f7fe fe98 	bl	1a1c <_initio>
    2cec:	e8bd 4008 	ldmia.w	sp!, {r3, lr}
    2cf0:	f7fd bc08 	b.w	504 <main>

00002cf4 <memset>:
    2cf4:	f000 b9d9 	b.w	30aa <__aeabi_lowlevel_memset>

00002cf8 <_Csys_read_>:
    2cf8:	b538      	push	{r3, r4, r5, lr}
    2cfa:	460d      	mov	r5, r1
    2cfc:	4604      	mov	r4, r0
    2cfe:	b908      	cbnz	r0, 2d04 <_Csys_read_+0xc>
    2d00:	2a01      	cmp	r2, #1
    2d02:	d005      	beq.n	2d10 <_Csys_read_+0x18>
    2d04:	4629      	mov	r1, r5
    2d06:	4620      	mov	r0, r4
    2d08:	e8bd 4038 	ldmia.w	sp!, {r3, r4, r5, lr}
    2d0c:	f000 b9f8 	b.w	3100 <__sys_read>
    2d10:	f000 f9fc 	bl	310c <__readc>
    2d14:	7028      	strb	r0, [r5, #0]
    2d16:	4620      	mov	r0, r4
    2d18:	bd38      	pop	{r3, r4, r5, pc}

00002d1a <_deferredlazyseek>:
    2d1a:	68c3      	ldr	r3, [r0, #12]
    2d1c:	6982      	ldr	r2, [r0, #24]
    2d1e:	f023 0320 	bic.w	r3, r3, #32
    2d22:	b510      	push	{r4, lr}
    2d24:	60c3      	str	r3, [r0, #12]
    2d26:	6a83      	ldr	r3, [r0, #40]	; 0x28
    2d28:	429a      	cmp	r2, r3
    2d2a:	4604      	mov	r4, r0
    2d2c:	d00e      	beq.n	2d4c <_deferredlazyseek+0x32>
    2d2e:	f000 f8b4 	bl	2e9a <_fflush>
    2d32:	68e3      	ldr	r3, [r4, #12]
    2d34:	f423 5340 	bic.w	r3, r3, #12288	; 0x3000
    2d38:	f023 0310 	bic.w	r3, r3, #16
    2d3c:	f043 0310 	orr.w	r3, r3, #16
    2d40:	60e3      	str	r3, [r4, #12]
    2d42:	6aa3      	ldr	r3, [r4, #40]	; 0x28
    2d44:	61a3      	str	r3, [r4, #24]
    2d46:	6923      	ldr	r3, [r4, #16]
    2d48:	62e3      	str	r3, [r4, #44]	; 0x2c
    2d4a:	6023      	str	r3, [r4, #0]
    2d4c:	68e3      	ldr	r3, [r4, #12]
    2d4e:	f423 4380 	bic.w	r3, r3, #16384	; 0x4000
    2d52:	f023 0340 	bic.w	r3, r3, #64	; 0x40
    2d56:	60e3      	str	r3, [r4, #12]
    2d58:	bd10      	pop	{r4, pc}

00002d5a <__flsbuf>:
    2d5a:	68cb      	ldr	r3, [r1, #12]
    2d5c:	f423 2200 	bic.w	r2, r3, #524288	; 0x80000
    2d60:	b570      	push	{r4, r5, r6, lr}
    2d62:	460c      	mov	r4, r1
    2d64:	60ca      	str	r2, [r1, #12]
    2d66:	0699      	lsls	r1, r3, #26
    2d68:	4605      	mov	r5, r0
    2d6a:	d502      	bpl.n	2d72 <__flsbuf+0x18>
    2d6c:	4620      	mov	r0, r4
    2d6e:	f7ff ffd4 	bl	2d1a <_deferredlazyseek>
    2d72:	e9d4 3602 	ldrd	r3, r6, [r4, #8]
    2d76:	1c5a      	adds	r2, r3, #1
    2d78:	da10      	bge.n	2d9c <__flsbuf+0x42>
    2d7a:	05b0      	lsls	r0, r6, #22
    2d7c:	d40e      	bmi.n	2d9c <__flsbuf+0x42>
    2d7e:	f1c3 23ff 	rsb	r3, r3, #4278255360	; 0xff00ff00
    2d82:	f503 037f 	add.w	r3, r3, #16711680	; 0xff0000
    2d86:	33fe      	adds	r3, #254	; 0xfe
    2d88:	60a3      	str	r3, [r4, #8]
    2d8a:	6823      	ldr	r3, [r4, #0]
    2d8c:	f446 3690 	orr.w	r6, r6, #73728	; 0x12000
    2d90:	1c5a      	adds	r2, r3, #1
    2d92:	60e6      	str	r6, [r4, #12]
    2d94:	6022      	str	r2, [r4, #0]
    2d96:	701d      	strb	r5, [r3, #0]
    2d98:	b2e8      	uxtb	r0, r5
    2d9a:	bd70      	pop	{r4, r5, r6, pc}
    2d9c:	f241 028a 	movw	r2, #4234	; 0x108a
    2da0:	4032      	ands	r2, r6
    2da2:	2a02      	cmp	r2, #2
    2da4:	d007      	beq.n	2db6 <__flsbuf+0x5c>
    2da6:	2300      	movs	r3, #0
    2da8:	f046 0680 	orr.w	r6, r6, #128	; 0x80
    2dac:	60a3      	str	r3, [r4, #8]
    2dae:	60e6      	str	r6, [r4, #12]
    2db0:	f04f 30ff 	mov.w	r0, #4294967295	; 0xffffffff
    2db4:	e7f1      	b.n	2d9a <__flsbuf+0x40>
    2db6:	f24a 0310 	movw	r3, #40976	; 0xa010
    2dba:	4033      	ands	r3, r6
    2dbc:	f5b3 4f00 	cmp.w	r3, #32768	; 0x8000
    2dc0:	d10a      	bne.n	2dd8 <__flsbuf+0x7e>
    2dc2:	2100      	movs	r1, #0
    2dc4:	4620      	mov	r0, r4
    2dc6:	f7fe fd87 	bl	18d8 <fseek>
    2dca:	68e3      	ldr	r3, [r4, #12]
    2dcc:	0699      	lsls	r1, r3, #26
    2dce:	d502      	bpl.n	2dd6 <__flsbuf+0x7c>
    2dd0:	4620      	mov	r0, r4
    2dd2:	f7ff ffa2 	bl	2d1a <_deferredlazyseek>
    2dd6:	68e6      	ldr	r6, [r4, #12]
    2dd8:	f446 3390 	orr.w	r3, r6, #73728	; 0x12000
    2ddc:	f416 6f70 	tst.w	r6, #3840	; 0xf00
    2de0:	60e3      	str	r3, [r4, #12]
    2de2:	d10e      	bne.n	2e02 <__flsbuf+0xa8>
    2de4:	6960      	ldr	r0, [r4, #20]
    2de6:	f000 f985 	bl	30f4 <__sys_istty>
    2dea:	b300      	cbz	r0, 2e2e <__flsbuf+0xd4>
    2dec:	0572      	lsls	r2, r6, #21
    2dee:	d51e      	bpl.n	2e2e <__flsbuf+0xd4>
    2df0:	f104 0324 	add.w	r3, r4, #36	; 0x24
    2df4:	6123      	str	r3, [r4, #16]
    2df6:	6023      	str	r3, [r4, #0]
    2df8:	2301      	movs	r3, #1
    2dfa:	61e3      	str	r3, [r4, #28]
    2dfc:	f446 3392 	orr.w	r3, r6, #74752	; 0x12400
    2e00:	60e3      	str	r3, [r4, #12]
    2e02:	f413 6f10 	tst.w	r3, #2304	; 0x900
    2e06:	6821      	ldr	r1, [r4, #0]
    2e08:	6926      	ldr	r6, [r4, #16]
    2e0a:	d026      	beq.n	2e5a <__flsbuf+0x100>
    2e0c:	6ae3      	ldr	r3, [r4, #44]	; 0x2c
    2e0e:	4299      	cmp	r1, r3
    2e10:	bf2c      	ite	cs
    2e12:	ebc6 0101 	rsbcs	r1, r6, r1
    2e16:	ebc6 0103 	rsbcc	r1, r6, r3
    2e1a:	b9b9      	cbnz	r1, 2e4c <__flsbuf+0xf2>
    2e1c:	1c73      	adds	r3, r6, #1
    2e1e:	62e3      	str	r3, [r4, #44]	; 0x2c
    2e20:	6023      	str	r3, [r4, #0]
    2e22:	69e3      	ldr	r3, [r4, #28]
    2e24:	6323      	str	r3, [r4, #48]	; 0x30
    2e26:	1e5a      	subs	r2, r3, #1
    2e28:	60a2      	str	r2, [r4, #8]
    2e2a:	7035      	strb	r5, [r6, #0]
    2e2c:	e7b4      	b.n	2d98 <__flsbuf+0x3e>
    2e2e:	f44f 7080 	mov.w	r0, #256	; 0x100
    2e32:	f7fe fd41 	bl	18b8 <_Csys_alloc>
    2e36:	f44f 7380 	mov.w	r3, #256	; 0x100
    2e3a:	68e2      	ldr	r2, [r4, #12]
    2e3c:	61e3      	str	r3, [r4, #28]
    2e3e:	f446 3394 	orr.w	r3, r6, #75776	; 0x12800
    2e42:	431a      	orrs	r2, r3
    2e44:	6120      	str	r0, [r4, #16]
    2e46:	6020      	str	r0, [r4, #0]
    2e48:	60e2      	str	r2, [r4, #12]
    2e4a:	e7da      	b.n	2e02 <__flsbuf+0xa8>
    2e4c:	4622      	mov	r2, r4
    2e4e:	4630      	mov	r0, r6
    2e50:	f7fe fc98 	bl	1784 <_Cwritebuf>
    2e54:	2800      	cmp	r0, #0
    2e56:	d0e1      	beq.n	2e1c <__flsbuf+0xc2>
    2e58:	e7aa      	b.n	2db0 <__flsbuf+0x56>
    2e5a:	1c4a      	adds	r2, r1, #1
    2e5c:	b2ed      	uxtb	r5, r5
    2e5e:	6022      	str	r2, [r4, #0]
    2e60:	700d      	strb	r5, [r1, #0]
    2e62:	6ae2      	ldr	r2, [r4, #44]	; 0x2c
    2e64:	6821      	ldr	r1, [r4, #0]
    2e66:	4291      	cmp	r1, r2
    2e68:	bf2c      	ite	cs
    2e6a:	ebc6 0101 	rsbcs	r1, r6, r1
    2e6e:	ebc6 0102 	rsbcc	r1, r6, r2
    2e72:	69e2      	ldr	r2, [r4, #28]
    2e74:	6322      	str	r2, [r4, #48]	; 0x30
    2e76:	055b      	lsls	r3, r3, #21
    2e78:	d403      	bmi.n	2e82 <__flsbuf+0x128>
    2e7a:	2d0a      	cmp	r5, #10
    2e7c:	d001      	beq.n	2e82 <__flsbuf+0x128>
    2e7e:	428a      	cmp	r2, r1
    2e80:	dc09      	bgt.n	2e96 <__flsbuf+0x13c>
    2e82:	2300      	movs	r3, #0
    2e84:	62e6      	str	r6, [r4, #44]	; 0x2c
    2e86:	6026      	str	r6, [r4, #0]
    2e88:	60a3      	str	r3, [r4, #8]
    2e8a:	4622      	mov	r2, r4
    2e8c:	4630      	mov	r0, r6
    2e8e:	f7fe fc79 	bl	1784 <_Cwritebuf>
    2e92:	2800      	cmp	r0, #0
    2e94:	d18c      	bne.n	2db0 <__flsbuf+0x56>
    2e96:	4628      	mov	r0, r5
    2e98:	e77f      	b.n	2d9a <__flsbuf+0x40>

00002e9a <_fflush>:
    2e9a:	b538      	push	{r3, r4, r5, lr}
    2e9c:	6801      	ldr	r1, [r0, #0]
    2e9e:	6905      	ldr	r5, [r0, #16]
    2ea0:	6ac3      	ldr	r3, [r0, #44]	; 0x2c
    2ea2:	4604      	mov	r4, r0
    2ea4:	68c0      	ldr	r0, [r0, #12]
    2ea6:	f420 2200 	bic.w	r2, r0, #524288	; 0x80000
    2eaa:	60e2      	str	r2, [r4, #12]
    2eac:	f000 0282 	and.w	r2, r0, #130	; 0x82
    2eb0:	2a02      	cmp	r2, #2
    2eb2:	d002      	beq.n	2eba <_fflush+0x20>
    2eb4:	f04f 30ff 	mov.w	r0, #4294967295	; 0xffffffff
    2eb8:	bd38      	pop	{r3, r4, r5, pc}
    2eba:	f410 3080 	ands.w	r0, r0, #65536	; 0x10000
    2ebe:	d0fb      	beq.n	2eb8 <_fflush+0x1e>
    2ec0:	4299      	cmp	r1, r3
    2ec2:	bf38      	it	cc
    2ec4:	4619      	movcc	r1, r3
    2ec6:	428d      	cmp	r5, r1
    2ec8:	d108      	bne.n	2edc <_fflush+0x42>
    2eca:	68e3      	ldr	r3, [r4, #12]
    2ecc:	62e5      	str	r5, [r4, #44]	; 0x2c
    2ece:	2000      	movs	r0, #0
    2ed0:	f423 3380 	bic.w	r3, r3, #65536	; 0x10000
    2ed4:	6025      	str	r5, [r4, #0]
    2ed6:	60a0      	str	r0, [r4, #8]
    2ed8:	60e3      	str	r3, [r4, #12]
    2eda:	e7ed      	b.n	2eb8 <_fflush+0x1e>
    2edc:	4622      	mov	r2, r4
    2ede:	1b49      	subs	r1, r1, r5
    2ee0:	4628      	mov	r0, r5
    2ee2:	f7fe fc4f 	bl	1784 <_Cwritebuf>
    2ee6:	2800      	cmp	r0, #0
    2ee8:	d0ef      	beq.n	2eca <_fflush+0x30>
    2eea:	e7e3      	b.n	2eb4 <_fflush+0x1a>

00002eec <free>:
    2eec:	b1a8      	cbz	r0, 2f1a <free+0x2e>
    2eee:	f04f 5380 	mov.w	r3, #268435456	; 0x10000000
    2ef2:	f840 3c0c 	str.w	r3, [r0, #-12]
    2ef6:	f850 2c04 	ldr.w	r2, [r0, #-4]
    2efa:	b172      	cbz	r2, 2f1a <free+0x2e>
    2efc:	6813      	ldr	r3, [r2, #0]
    2efe:	f1b3 5f80 	cmp.w	r3, #268435456	; 0x10000000
    2f02:	d10a      	bne.n	2f1a <free+0x2e>
    2f04:	f850 3c08 	ldr.w	r3, [r0, #-8]
    2f08:	6851      	ldr	r1, [r2, #4]
    2f0a:	3303      	adds	r3, #3
    2f0c:	440b      	add	r3, r1
    2f0e:	f840 3c08 	str.w	r3, [r0, #-8]
    2f12:	6893      	ldr	r3, [r2, #8]
    2f14:	f840 3c04 	str.w	r3, [r0, #-4]
    2f18:	e7ed      	b.n	2ef6 <free+0xa>
    2f1a:	4770      	bx	lr

00002f1c <fputs>:
    2f1c:	b538      	push	{r3, r4, r5, lr}
    2f1e:	4605      	mov	r5, r0
    2f20:	460c      	mov	r4, r1
    2f22:	f815 0b01 	ldrb.w	r0, [r5], #1
    2f26:	b170      	cbz	r0, 2f46 <fputs+0x2a>
    2f28:	68a3      	ldr	r3, [r4, #8]
    2f2a:	3b01      	subs	r3, #1
    2f2c:	2b00      	cmp	r3, #0
    2f2e:	60a3      	str	r3, [r4, #8]
    2f30:	db04      	blt.n	2f3c <fputs+0x20>
    2f32:	6823      	ldr	r3, [r4, #0]
    2f34:	1c5a      	adds	r2, r3, #1
    2f36:	6022      	str	r2, [r4, #0]
    2f38:	7018      	strb	r0, [r3, #0]
    2f3a:	e7f2      	b.n	2f22 <fputs+0x6>
    2f3c:	4621      	mov	r1, r4
    2f3e:	f7ff ff0c 	bl	2d5a <__flsbuf>
    2f42:	1c43      	adds	r3, r0, #1
    2f44:	d1ed      	bne.n	2f22 <fputs+0x6>
    2f46:	bd38      	pop	{r3, r4, r5, pc}

00002f48 <no_fp_display>:
    2f48:	2000      	movs	r0, #0
    2f4a:	4770      	bx	lr

00002f4c <strlen>:
    2f4c:	b510      	push	{r4, lr}
    2f4e:	1c42      	adds	r2, r0, #1
    2f50:	0783      	lsls	r3, r0, #30
    2f52:	d116      	bne.n	2f82 <strlen+0x36>
    2f54:	4603      	mov	r3, r0
    2f56:	f850 1b04 	ldr.w	r1, [r0], #4
    2f5a:	f1a1 3401 	sub.w	r4, r1, #16843009	; 0x1010101
    2f5e:	ea24 0401 	bic.w	r4, r4, r1
    2f62:	f014 3f80 	tst.w	r4, #2155905152	; 0x80808080
    2f66:	d0f5      	beq.n	2f54 <strlen+0x8>
    2f68:	f011 0fff 	tst.w	r1, #255	; 0xff
    2f6c:	d011      	beq.n	2f92 <strlen+0x46>
    2f6e:	f411 4f7f 	tst.w	r1, #65280	; 0xff00
    2f72:	d00c      	beq.n	2f8e <strlen+0x42>
    2f74:	f411 0f7f 	tst.w	r1, #16711680	; 0xff0000
    2f78:	bf14      	ite	ne
    2f7a:	4603      	movne	r3, r0
    2f7c:	3303      	addeq	r3, #3
    2f7e:	1a98      	subs	r0, r3, r2
    2f80:	e004      	b.n	2f8c <strlen+0x40>
    2f82:	f810 3b01 	ldrb.w	r3, [r0], #1
    2f86:	2b00      	cmp	r3, #0
    2f88:	d1e2      	bne.n	2f50 <strlen+0x4>
    2f8a:	1a80      	subs	r0, r0, r2
    2f8c:	bd10      	pop	{r4, pc}
    2f8e:	3302      	adds	r3, #2
    2f90:	e7f5      	b.n	2f7e <strlen+0x32>
    2f92:	3301      	adds	r3, #1
    2f94:	e7f3      	b.n	2f7e <strlen+0x32>

00002f96 <_fdopen>:
    2f96:	b570      	push	{r4, r5, r6, lr}
    2f98:	460d      	mov	r5, r1
    2f9a:	4606      	mov	r6, r0
    2f9c:	4610      	mov	r0, r2
    2f9e:	4614      	mov	r4, r2
    2fa0:	f000 f82d 	bl	2ffe <fclose>
    2fa4:	782b      	ldrb	r3, [r5, #0]
    2fa6:	2b72      	cmp	r3, #114	; 0x72
    2fa8:	d01a      	beq.n	2fe0 <_fdopen+0x4a>
    2faa:	2b77      	cmp	r3, #119	; 0x77
    2fac:	d005      	beq.n	2fba <_fdopen+0x24>
    2fae:	2b61      	cmp	r3, #97	; 0x61
    2fb0:	d123      	bne.n	2ffa <_fdopen+0x64>
    2fb2:	2308      	movs	r3, #8
    2fb4:	f248 0202 	movw	r2, #32770	; 0x8002
    2fb8:	e001      	b.n	2fbe <_fdopen+0x28>
    2fba:	2304      	movs	r3, #4
    2fbc:	2202      	movs	r2, #2
    2fbe:	f815 1f01 	ldrb.w	r1, [r5, #1]!
    2fc2:	292b      	cmp	r1, #43	; 0x2b
    2fc4:	d00f      	beq.n	2fe6 <_fdopen+0x50>
    2fc6:	2962      	cmp	r1, #98	; 0x62
    2fc8:	d012      	beq.n	2ff0 <_fdopen+0x5a>
    2fca:	071b      	lsls	r3, r3, #28
    2fcc:	60e2      	str	r2, [r4, #12]
    2fce:	6166      	str	r6, [r4, #20]
    2fd0:	d504      	bpl.n	2fdc <_fdopen+0x46>
    2fd2:	2202      	movs	r2, #2
    2fd4:	2100      	movs	r1, #0
    2fd6:	4620      	mov	r0, r4
    2fd8:	f7fe fc7e 	bl	18d8 <fseek>
    2fdc:	4620      	mov	r0, r4
    2fde:	bd70      	pop	{r4, r5, r6, pc}
    2fe0:	2300      	movs	r3, #0
    2fe2:	2201      	movs	r2, #1
    2fe4:	e7eb      	b.n	2fbe <_fdopen+0x28>
    2fe6:	f042 0203 	orr.w	r2, r2, #3
    2fea:	f043 0302 	orr.w	r3, r3, #2
    2fee:	e7e6      	b.n	2fbe <_fdopen+0x28>
    2ff0:	f042 0204 	orr.w	r2, r2, #4
    2ff4:	f043 0301 	orr.w	r3, r3, #1
    2ff8:	e7e1      	b.n	2fbe <_fdopen+0x28>
    2ffa:	2400      	movs	r4, #0
    2ffc:	e7ee      	b.n	2fdc <_fdopen+0x46>

00002ffe <fclose>:
    2ffe:	b5f0      	push	{r4, r5, r6, r7, lr}
    3000:	68c4      	ldr	r4, [r0, #12]
    3002:	07a1      	lsls	r1, r4, #30
    3004:	b089      	sub	sp, #36	; 0x24
    3006:	4605      	mov	r5, r0
    3008:	d022      	beq.n	3050 <fclose+0x52>
    300a:	0722      	lsls	r2, r4, #28
    300c:	d418      	bmi.n	3040 <fclose+0x42>
    300e:	e9d0 6704 	ldrd	r6, r7, [r0, #16]
    3012:	f7ff fba1 	bl	2758 <fflush>
    3016:	4638      	mov	r0, r7
    3018:	f000 f860 	bl	30dc <__sys_close>
    301c:	0523      	lsls	r3, r4, #20
    301e:	d502      	bpl.n	3026 <fclose+0x28>
    3020:	4630      	mov	r0, r6
    3022:	f7ff ff63 	bl	2eec <free>
    3026:	0da4      	lsrs	r4, r4, #22
    3028:	05a4      	lsls	r4, r4, #22
    302a:	f114 4fa5 	cmn.w	r4, #1384120320	; 0x52800000
    302e:	d107      	bne.n	3040 <fclose+0x42>
    3030:	2220      	movs	r2, #32
    3032:	6a29      	ldr	r1, [r5, #32]
    3034:	4668      	mov	r0, sp
    3036:	f000 f879 	bl	312c <__sys_tmpnam>
    303a:	4668      	mov	r0, sp
    303c:	f000 f80b 	bl	3056 <remove>
    3040:	223c      	movs	r2, #60	; 0x3c
    3042:	2100      	movs	r1, #0
    3044:	4628      	mov	r0, r5
    3046:	f7ff fe55 	bl	2cf4 <memset>
    304a:	2000      	movs	r0, #0
    304c:	b009      	add	sp, #36	; 0x24
    304e:	bdf0      	pop	{r4, r5, r6, r7, pc}
    3050:	f04f 30ff 	mov.w	r0, #4294967295	; 0xffffffff
    3054:	e7fa      	b.n	304c <fclose+0x4e>

00003056 <remove>:
    3056:	b510      	push	{r4, lr}
    3058:	4604      	mov	r4, r0
    305a:	f7ff ff77 	bl	2f4c <strlen>
    305e:	4601      	mov	r1, r0
    3060:	4620      	mov	r0, r4
    3062:	e8bd 4010 	ldmia.w	sp!, {r4, lr}
    3066:	f000 b855 	b.w	3114 <__sys_remove>

0000306a <_do_fflush>:
    306a:	68c3      	ldr	r3, [r0, #12]
    306c:	b570      	push	{r4, r5, r6, lr}
    306e:	f013 0603 	ands.w	r6, r3, #3
    3072:	4604      	mov	r4, r0
    3074:	d011      	beq.n	309a <_do_fflush+0x30>
    3076:	069b      	lsls	r3, r3, #26
    3078:	d511      	bpl.n	309e <_do_fflush+0x34>
    307a:	6a85      	ldr	r5, [r0, #40]	; 0x28
    307c:	f7ff fe4d 	bl	2d1a <_deferredlazyseek>
    3080:	68e3      	ldr	r3, [r4, #12]
    3082:	f423 5340 	bic.w	r3, r3, #12288	; 0x3000
    3086:	60e3      	str	r3, [r4, #12]
    3088:	4620      	mov	r0, r4
    308a:	f7ff ff06 	bl	2e9a <_fflush>
    308e:	2200      	movs	r2, #0
    3090:	4606      	mov	r6, r0
    3092:	4629      	mov	r1, r5
    3094:	4620      	mov	r0, r4
    3096:	f7fe fc1f 	bl	18d8 <fseek>
    309a:	4630      	mov	r0, r6
    309c:	bd70      	pop	{r4, r5, r6, pc}
    309e:	6983      	ldr	r3, [r0, #24]
    30a0:	6805      	ldr	r5, [r0, #0]
    30a2:	441d      	add	r5, r3
    30a4:	6903      	ldr	r3, [r0, #16]
    30a6:	1aed      	subs	r5, r5, r3
    30a8:	e7ea      	b.n	3080 <_do_fflush+0x16>

000030aa <__aeabi_lowlevel_memset>:
    30aa:	4603      	mov	r3, r0
    30ac:	f013 0f03 	tst.w	r3, #3
    30b0:	d10e      	bne.n	30d0 <memset1a>
    30b2:	f001 01ff 	and.w	r1, r1, #255	; 0xff
    30b6:	ea41 2101 	orr.w	r1, r1, r1, lsl #8
    30ba:	ea41 4101 	orr.w	r1, r1, r1, lsl #16

000030be <__bhs_memset4>:
    30be:	3a04      	subs	r2, #4

000030c0 <memset4>:
    30c0:	bf24      	itt	cs
    30c2:	f843 1b04 	strcs.w	r1, [r3], #4
    30c6:	f1b2 0204 	subscs.w	r2, r2, #4
    30ca:	d2f9      	bcs.n	30c0 <memset4>

000030cc <memset1>:
    30cc:	f102 0204 	add.w	r2, r2, #4

000030d0 <memset1a>:
    30d0:	3a01      	subs	r2, #1
    30d2:	bf24      	itt	cs
    30d4:	f803 1b01 	strbcs.w	r1, [r3], #1
    30d8:	e7fa      	bcs.n	30d0 <memset1a>
    30da:	4770      	bx	lr

000030dc <__sys_close>:
    30dc:	b403      	push	{r0, r1}
    30de:	4669      	mov	r1, sp
    30e0:	2002      	movs	r0, #2
    30e2:	beab      	bkpt	0x00ab
    30e4:	b002      	add	sp, #8
    30e6:	4770      	bx	lr

000030e8 <__sys_flen>:
    30e8:	b403      	push	{r0, r1}
    30ea:	4669      	mov	r1, sp
    30ec:	200c      	movs	r0, #12
    30ee:	beab      	bkpt	0x00ab
    30f0:	b002      	add	sp, #8
    30f2:	4770      	bx	lr

000030f4 <__sys_istty>:
    30f4:	b403      	push	{r0, r1}
    30f6:	4669      	mov	r1, sp
    30f8:	2009      	movs	r0, #9
    30fa:	beab      	bkpt	0x00ab
    30fc:	b002      	add	sp, #8
    30fe:	4770      	bx	lr

00003100 <__sys_read>:
    3100:	b40f      	push	{r0, r1, r2, r3}
    3102:	4669      	mov	r1, sp
    3104:	2006      	movs	r0, #6
    3106:	beab      	bkpt	0x00ab
    3108:	b004      	add	sp, #16
    310a:	4770      	bx	lr

0000310c <__readc>:
    310c:	2007      	movs	r0, #7
    310e:	2100      	movs	r1, #0
    3110:	beab      	bkpt	0x00ab
    3112:	4770      	bx	lr

00003114 <__sys_remove>:
    3114:	b403      	push	{r0, r1}
    3116:	4669      	mov	r1, sp
    3118:	200e      	movs	r0, #14
    311a:	beab      	bkpt	0x00ab
    311c:	b002      	add	sp, #8
    311e:	4770      	bx	lr

00003120 <__sys_seek>:
    3120:	b403      	push	{r0, r1}
    3122:	4669      	mov	r1, sp
    3124:	200a      	movs	r0, #10
    3126:	beab      	bkpt	0x00ab
    3128:	b002      	add	sp, #8
    312a:	4770      	bx	lr

0000312c <__sys_tmpnam>:
    312c:	b40f      	push	{r0, r1, r2, r3}
    312e:	4669      	mov	r1, sp
    3130:	200d      	movs	r0, #13
    3132:	beab      	bkpt	0x00ab
    3134:	b004      	add	sp, #16
    3136:	4770      	bx	lr

00003138 <__sys_write>:
    3138:	b40f      	push	{r0, r1, r2, r3}
    313a:	4669      	mov	r1, sp
    313c:	2005      	movs	r0, #5
    313e:	beab      	bkpt	0x00ab
    3140:	b004      	add	sp, #16
    3142:	4770      	bx	lr
    3144:	752f2e2e 	strvc	r2, [pc, #-3630]!	; 231e <__vfprintf+0x88a>
    3148:	696c6974 	stmdbvs	ip!, {r2, r4, r5, r6, r8, fp, sp, lr}^
    314c:	73656974 	cmnvc	r5, #116, 18	; 0x1d0000
    3150:	6c73662f 	ldclvs	6, cr6, [r3], #-188	; 0xffffff44
    3154:	6265645f 	rsbvs	r6, r5, #1593835520	; 0x5f000000
    3158:	635f6775 	cmpvs	pc, #30670848	; 0x1d40000
    315c:	6f736e6f 	svcvs	0x00736e6f
    3160:	632e656c 			; <UNDEFINED> instruction: 0x632e656c
    3164:	3530313a 	ldrcc	r3, [r0, #-314]!	; 0xfffffec6
    3168:	64203a20 	strtvs	r3, [r0], #-2592	; 0xfffff5e0
    316c:	63697665 	cmnvs	r9, #105906176	; 0x6500000
    3170:	3d212065 	stccc	0, cr2, [r1, #-404]!	; 0xfffffe6c
    3174:	42454420 	submi	r4, r5, #32, 8	; 0x20000000
    3178:	435f4755 	cmpmi	pc, #22282240	; 0x1540000
    317c:	4f534e4f 	svcmi	0x00534e4f
    3180:	445f454c 	ldrbmi	r4, [pc], #-1356	; 3188 <__sys_write+0x50>
    3184:	43495645 	movtmi	r5, #38469	; 0x9645
    3188:	59545f45 	ldmdbpl	r4, {r0, r2, r6, r8, r9, sl, fp, ip, lr}^
    318c:	4e5f4550 	mrcmi	5, 2, r4, cr15, cr0, {2}
    3190:	00454e4f 	subeq	r4, r5, pc, asr #28
    3194:	752f2e2e 	strvc	r2, [pc, #-3630]!	; 236e <__vfprintf+0x8da>
    3198:	696c6974 	stmdbvs	ip!, {r2, r4, r5, r6, r8, fp, sp, lr}^
    319c:	73656974 	cmnvc	r5, #116, 18	; 0x1d0000
    31a0:	6c73662f 	ldclvs	6, cr6, [r3], #-188	; 0xffffff44
    31a4:	2e6f695f 			; <UNDEFINED> instruction: 0x2e6f695f
    31a8:	35323a63 	ldrcc	r3, [r2, #-2659]!	; 0xfffff59d
    31ac:	203a2035 	eorscs	r2, sl, r5, lsr r0
    31b0:	4c4c554e 	cfstr64mi	mvdx5, [ip], {78}	; 0x4e
    31b4:	203d2120 	eorscs	r2, sp, r0, lsr #2
    31b8:	ff006f69 			; <UNDEFINED> instruction: 0xff006f69
    31bc:	6c6c6568 	cfstr64vs	mvdx6, [ip], #-416	; 0xfffffe60
    31c0:	6f77206f 	svcvs	0x0077206f
    31c4:	2e646c72 	mcrcs	12, 3, r6, cr4, cr2, {3}
    31c8:	ff000a0d 			; <UNDEFINED> instruction: 0xff000a0d
    31cc:	642f2e2e 	strtvs	r2, [pc], #-3630	; 31d4 <__sys_write+0x9c>
    31d0:	65766972 	ldrbvs	r6, [r6, #-2418]!	; 0xfffff68e
    31d4:	662f7372 			; <UNDEFINED> instruction: 0x662f7372
    31d8:	635f6c73 	cmpvs	pc, #29440	; 0x7300
    31dc:	6b636f6c 	blvs	18def94 <__top_Flash+0x185ef94>
    31e0:	323a632e 	eorscc	r6, sl, #-1207959552	; 0xb8000000
    31e4:	3a203434 	bcc	8102bc <__top_Flash+0x7902bc>
    31e8:	785f6720 	ldmdavc	pc, {r5, r8, r9, sl, sp, lr}^	; <UNPREDICTABLE>
    31ec:	306c6174 	rsbcc	r6, ip, r4, ror r1
    31f0:	71657246 	cmnvc	r5, r6, asr #4
    31f4:	00000000 	andeq	r0, r0, r0
    31f8:	642f2e2e 	strtvs	r2, [pc], #-3630	; 3200 <__sys_write+0xc8>
    31fc:	65766972 	ldrbvs	r6, [r6, #-2418]!	; 0xfffff68e
    3200:	662f7372 			; <UNDEFINED> instruction: 0x662f7372
    3204:	635f6c73 	cmpvs	pc, #29440	; 0x7300
    3208:	6b636f6c 	blvs	18defc0 <__top_Flash+0x185efc0>
    320c:	323a632e 	eorscc	r6, sl, #-1207959552	; 0xb8000000
    3210:	3a203934 	bcc	8116e8 <__top_Flash+0x7916e8>
    3214:	785f6720 	ldmdavc	pc, {r5, r8, r9, sl, sp, lr}^	; <UNPREDICTABLE>
    3218:	336c6174 	cmncc	ip, #116, 2
    321c:	65724632 	ldrbvs	r4, [r2, #-1586]!	; 0xfffff9ce
    3220:	00000071 	andeq	r0, r0, r1, ror r0
    3224:	642f2e2e 	strtvs	r2, [pc], #-3630	; 322c <__sys_write+0xf4>
    3228:	65766972 	ldrbvs	r6, [r6, #-2418]!	; 0xfffff68e
    322c:	662f7372 			; <UNDEFINED> instruction: 0x662f7372
    3230:	635f6c73 	cmpvs	pc, #29440	; 0x7300
    3234:	6b636f6c 	blvs	18defec <__top_Flash+0x185efec>
    3238:	333a632e 	teqcc	sl, #-1207959552	; 0xb8000000
    323c:	3a203637 	bcc	810b20 <__top_Flash+0x790b20>
    3240:	785f6720 	ldmdavc	pc, {r5, r8, r9, sl, sp, lr}^	; <UNPREDICTABLE>
    3244:	306c6174 	rsbcc	r6, ip, r4, ror r1
    3248:	71657246 	cmnvc	r5, r6, asr #4
    324c:	00000000 	andeq	r0, r0, r0
    3250:	642f2e2e 	strtvs	r2, [pc], #-3630	; 3258 <__sys_write+0x120>
    3254:	65766972 	ldrbvs	r6, [r6, #-2418]!	; 0xfffff68e
    3258:	662f7372 			; <UNDEFINED> instruction: 0x662f7372
    325c:	635f6c73 	cmpvs	pc, #29440	; 0x7300
    3260:	6b636f6c 	blvs	18df018 <__top_Flash+0x185f018>
    3264:	333a632e 	teqcc	sl, #-1207959552	; 0xb8000000
    3268:	3a203039 	bcc	80f354 <__top_Flash+0x78f354>
    326c:	785f6720 	ldmdavc	pc, {r5, r8, r9, sl, sp, lr}^	; <UNPREDICTABLE>
    3270:	306c6174 	rsbcc	r6, ip, r4, ror r1
    3274:	71657246 	cmnvc	r5, r6, asr #4
    3278:	00000000 	andeq	r0, r0, r0
    327c:	642f2e2e 	strtvs	r2, [pc], #-3630	; 3284 <__sys_write+0x14c>
    3280:	65766972 	ldrbvs	r6, [r6, #-2418]!	; 0xfffff68e
    3284:	662f7372 			; <UNDEFINED> instruction: 0x662f7372
    3288:	635f6c73 	cmpvs	pc, #29440	; 0x7300
    328c:	6b636f6c 	blvs	18df044 <__top_Flash+0x185f044>
    3290:	343a632e 	ldrtcc	r6, [sl], #-814	; 0xfffffcd2
    3294:	3a203031 	bcc	80f360 <__top_Flash+0x78f360>
    3298:	785f6720 	ldmdavc	pc, {r5, r8, r9, sl, sp, lr}^	; <UNPREDICTABLE>
    329c:	336c6174 	cmncc	ip, #116, 2
    32a0:	65724632 	ldrbvs	r4, [r2, #-1586]!	; 0xfffff9ce
    32a4:	00000071 	andeq	r0, r0, r1, ror r0
    32a8:	642f2e2e 	strtvs	r2, [pc], #-3630	; 32b0 <__sys_write+0x178>
    32ac:	65766972 	ldrbvs	r6, [r6, #-2418]!	; 0xfffff68e
    32b0:	662f7372 			; <UNDEFINED> instruction: 0x662f7372
    32b4:	635f6c73 	cmpvs	pc, #29440	; 0x7300
    32b8:	6b636f6c 	blvs	18df070 <__top_Flash+0x185f070>
    32bc:	363a632e 	ldrtcc	r6, [sl], -lr, lsr #6
    32c0:	3a203837 	bcc	8113a4 <__top_Flash+0x7913a4>
    32c4:	67636d20 	strbvs	r6, [r3, -r0, lsr #26]!
    32c8:	306c6c70 	rsbcc	r6, ip, r0, ror ip
    32cc:	006b6c63 	rsbeq	r6, fp, r3, ror #24
    32d0:	642f2e2e 	strtvs	r2, [pc], #-3630	; 32d8 <__sys_write+0x1a0>
    32d4:	65766972 	ldrbvs	r6, [r6, #-2418]!	; 0xfffff68e
    32d8:	662f7372 			; <UNDEFINED> instruction: 0x662f7372
    32dc:	635f6c73 	cmpvs	pc, #29440	; 0x7300
    32e0:	6b636f6c 	blvs	18df098 <__top_Flash+0x185f098>
    32e4:	383a632e 	ldmdacc	sl!, {r1, r2, r3, r5, r8, r9, sp, lr}
    32e8:	3a203037 	bcc	80f3cc <__top_Flash+0x78f3cc>
    32ec:	6e6f6320 	cdpvs	3, 6, cr6, cr15, cr0, {1}
    32f0:	00676966 	rsbeq	r6, r7, r6, ror #18
    32f4:	642f2e2e 	strtvs	r2, [pc], #-3630	; 32fc <__sys_write+0x1c4>
    32f8:	65766972 	ldrbvs	r6, [r6, #-2418]!	; 0xfffff68e
    32fc:	662f7372 			; <UNDEFINED> instruction: 0x662f7372
    3300:	635f6c73 	cmpvs	pc, #29440	; 0x7300
    3304:	6b636f6c 	blvs	18df0bc <__top_Flash+0x185f0bc>
    3308:	313a632e 	teqcc	sl, lr, lsr #6
    330c:	20323235 	eorscs	r3, r2, r5, lsr r2
    3310:	6f63203a 	svcvs	0x0063203a
    3314:	6769666e 	strbvs	r6, [r9, -lr, ror #12]!
    3318:	00000000 	andeq	r0, r0, r0
    331c:	642f2e2e 	strtvs	r2, [pc], #-3630	; 3324 <__sys_write+0x1ec>
    3320:	65766972 	ldrbvs	r6, [r6, #-2418]!	; 0xfffff68e
    3324:	662f7372 			; <UNDEFINED> instruction: 0x662f7372
    3328:	635f6c73 	cmpvs	pc, #29440	; 0x7300
    332c:	6b636f6c 	blvs	18df0e4 <__top_Flash+0x185f0e4>
    3330:	313a632e 	teqcc	sl, lr, lsr #6
    3334:	20323936 	eorscs	r3, r2, r6, lsr r9
    3338:	6f63203a 	svcvs	0x0063203a
    333c:	6769666e 	strbvs	r6, [r9, -lr, ror #12]!
    3340:	ffffff00 			; <UNDEFINED> instruction: 0xffffff00

00003344 <fllFactorTable.7490>:
    3344:	02dc0280 	sbcseq	r0, ip, #128, 4
    3348:	05b80500 	ldreq	r0, [r8, #1280]!	; 0x500
    334c:	08950780 	ldmeq	r5, {r7, r8, r9, sl}
    3350:	0b710a00 	bleq	1c45b58 <__top_Flash+0x1bc5b58>
    3354:	642f2e2e 	strtvs	r2, [pc], #-3630	; 335c <fllFactorTable.7490+0x18>
    3358:	65766972 	ldrbvs	r6, [r6, #-2418]!	; 0xfffff68e
    335c:	662f7372 			; <UNDEFINED> instruction: 0x662f7372
    3360:	6c5f6c73 	mrrcvs	12, 7, r6, pc, cr3	; <UNPREDICTABLE>
    3364:	72617570 	rsbvc	r7, r1, #112, 10	; 0x1c000000
    3368:	3a632e74 	bcc	18ced40 <__top_Flash+0x184ed40>
    336c:	20323431 	eorscs	r3, r2, r1, lsr r4
    3370:	6e69203a 	mcrvs	0, 3, r2, cr9, cr10, {1}
    3374:	6e617473 	mcrvs	4, 3, r7, cr1, cr3, {3}
    3378:	3c206563 	cfstr32cc	mvfx6, [r0], #-396	; 0xfffffe74
    337c:	52524120 	subspl	r4, r2, #32, 2
    3380:	535f5941 	cmppl	pc, #1064960	; 0x104000
    3384:	28455a49 	stmdacs	r5, {r0, r3, r6, r9, fp, ip, lr}^
    3388:	706c5f73 	rsbvc	r5, ip, r3, ror pc
    338c:	74726175 	ldrbtvc	r6, [r2], #-373	; 0xfffffe8b
    3390:	65736142 	ldrbvs	r6, [r3, #-322]!	; 0xfffffebe
    3394:	00002973 	andeq	r2, r0, r3, ror r9
    3398:	642f2e2e 	strtvs	r2, [pc], #-3630	; 33a0 <fllFactorTable.7490+0x5c>
    339c:	65766972 	ldrbvs	r6, [r6, #-2418]!	; 0xfffff68e
    33a0:	662f7372 			; <UNDEFINED> instruction: 0x662f7372
    33a4:	6c5f6c73 	mrrcvs	12, 7, r6, pc, cr3	; <UNPREDICTABLE>
    33a8:	72617570 	rsbvc	r7, r1, #112, 10	; 0x1c000000
    33ac:	3a632e74 	bcc	18ced84 <__top_Flash+0x184ed84>
    33b0:	20393431 	eorscs	r3, r9, r1, lsr r4
    33b4:	6168203a 	cmnvs	r8, sl, lsr r0
    33b8:	656c646e 	strbvs	r6, [ip, #-1134]!	; 0xfffffb92
    33bc:	00000000 	andeq	r0, r0, r0
    33c0:	642f2e2e 	strtvs	r2, [pc], #-3630	; 33c8 <fllFactorTable.7490+0x84>
    33c4:	65766972 	ldrbvs	r6, [r6, #-2418]!	; 0xfffff68e
    33c8:	662f7372 			; <UNDEFINED> instruction: 0x662f7372
    33cc:	6c5f6c73 	mrrcvs	12, 7, r6, pc, cr3	; <UNPREDICTABLE>
    33d0:	72617570 	rsbvc	r7, r1, #112, 10	; 0x1c000000
    33d4:	3a632e74 	bcc	18cedac <__top_Flash+0x184edac>
    33d8:	20373631 	eorscs	r3, r7, r1, lsr r6
    33dc:	6168203a 	cmnvs	r8, sl, lsr r0
    33e0:	656c646e 	strbvs	r6, [ip, #-1134]!	; 0xfffffb92
    33e4:	00000000 	andeq	r0, r0, r0
    33e8:	642f2e2e 	strtvs	r2, [pc], #-3630	; 33f0 <fllFactorTable.7490+0xac>
    33ec:	65766972 	ldrbvs	r6, [r6, #-2418]!	; 0xfffff68e
    33f0:	662f7372 			; <UNDEFINED> instruction: 0x662f7372
    33f4:	6c5f6c73 	mrrcvs	12, 7, r6, pc, cr3	; <UNPREDICTABLE>
    33f8:	72617570 	rsbvc	r7, r1, #112, 10	; 0x1c000000
    33fc:	3a632e74 	bcc	18cedd4 <__top_Flash+0x184edd4>
    3400:	20343831 	eorscs	r3, r4, r1, lsr r8
    3404:	6164203a 	cmnvs	r4, sl, lsr r0
    3408:	00006174 	andeq	r6, r0, r4, ror r1
    340c:	642f2e2e 	strtvs	r2, [pc], #-3630	; 3414 <fllFactorTable.7490+0xd0>
    3410:	65766972 	ldrbvs	r6, [r6, #-2418]!	; 0xfffff68e
    3414:	662f7372 			; <UNDEFINED> instruction: 0x662f7372
    3418:	6c5f6c73 	mrrcvs	12, 7, r6, pc, cr3	; <UNPREDICTABLE>
    341c:	72617570 	rsbvc	r7, r1, #112, 10	; 0x1c000000
    3420:	3a632e74 	bcc	18cedf8 <__top_Flash+0x184edf8>
    3424:	20383931 	eorscs	r3, r8, r1, lsr r9
    3428:	6164203a 	cmnvs	r4, sl, lsr r0
    342c:	00006174 	andeq	r6, r0, r4, ror r1
    3430:	642f2e2e 	strtvs	r2, [pc], #-3630	; 3438 <fllFactorTable.7490+0xf4>
    3434:	65766972 	ldrbvs	r6, [r6, #-2418]!	; 0xfffff68e
    3438:	662f7372 			; <UNDEFINED> instruction: 0x662f7372
    343c:	6c5f6c73 	mrrcvs	12, 7, r6, pc, cr3	; <UNPREDICTABLE>
    3440:	72617570 	rsbvc	r7, r1, #112, 10	; 0x1c000000
    3444:	3a632e74 	bcc	18cee1c <__top_Flash+0x184ee1c>
    3448:	20383232 	eorscs	r3, r8, r2, lsr r2
    344c:	6f63203a 	svcvs	0x0063203a
    3450:	6769666e 	strbvs	r6, [r9, -lr, ror #12]!
    3454:	00000000 	andeq	r0, r0, r0
    3458:	642f2e2e 	strtvs	r2, [pc], #-3630	; 3460 <fllFactorTable.7490+0x11c>
    345c:	65766972 	ldrbvs	r6, [r6, #-2418]!	; 0xfffff68e
    3460:	662f7372 			; <UNDEFINED> instruction: 0x662f7372
    3464:	6c5f6c73 	mrrcvs	12, 7, r6, pc, cr3	; <UNPREDICTABLE>
    3468:	72617570 	rsbvc	r7, r1, #112, 10	; 0x1c000000
    346c:	3a632e74 	bcc	18cee44 <__top_Flash+0x184ee44>
    3470:	20393232 	eorscs	r3, r9, r2, lsr r2
    3474:	6f63203a 	svcvs	0x0063203a
    3478:	6769666e 	strbvs	r6, [r9, -lr, ror #12]!
    347c:	61623e2d 	cmnvs	r2, sp, lsr #28
    3480:	61526475 	cmpvs	r2, r5, ror r4
    3484:	425f6574 	subsmi	r6, pc, #116, 10	; 0x1d000000
    3488:	00007370 	andeq	r7, r0, r0, ror r3
    348c:	642f2e2e 	strtvs	r2, [pc], #-3630	; 3494 <fllFactorTable.7490+0x150>
    3490:	65766972 	ldrbvs	r6, [r6, #-2418]!	; 0xfffff68e
    3494:	662f7372 			; <UNDEFINED> instruction: 0x662f7372
    3498:	6c5f6c73 	mrrcvs	12, 7, r6, pc, cr3	; <UNPREDICTABLE>
    349c:	72617570 	rsbvc	r7, r1, #112, 10	; 0x1c000000
    34a0:	3a632e74 	bcc	18cee78 <__top_Flash+0x184ee78>
    34a4:	20323834 	eorscs	r3, r2, r4, lsr r8
    34a8:	6f63203a 	svcvs	0x0063203a
    34ac:	6769666e 	strbvs	r6, [r9, -lr, ror #12]!
    34b0:	00000000 	andeq	r0, r0, r0
    34b4:	642f2e2e 	strtvs	r2, [pc], #-3630	; 34bc <fllFactorTable.7490+0x178>
    34b8:	65766972 	ldrbvs	r6, [r6, #-2418]!	; 0xfffff68e
    34bc:	662f7372 			; <UNDEFINED> instruction: 0x662f7372
    34c0:	6c5f6c73 	mrrcvs	12, 7, r6, pc, cr3	; <UNPREDICTABLE>
    34c4:	72617570 	rsbvc	r7, r1, #112, 10	; 0x1c000000
    34c8:	3a632e74 	bcc	18ceea0 <__top_Flash+0x184eea0>
    34cc:	20393035 	eorscs	r3, r9, r5, lsr r0
    34d0:	6162203a 	cmnvs	r2, sl, lsr r0
    34d4:	61526475 	cmpvs	r2, r5, ror r4
    34d8:	425f6574 	subsmi	r6, pc, #116, 10	; 0x1d000000
    34dc:	00007370 	andeq	r7, r0, r0, ror r3
    34e0:	642f2e2e 	strtvs	r2, [pc], #-3630	; 34e8 <fllFactorTable.7490+0x1a4>
    34e4:	65766972 	ldrbvs	r6, [r6, #-2418]!	; 0xfffff68e
    34e8:	662f7372 			; <UNDEFINED> instruction: 0x662f7372
    34ec:	6c5f6c73 	mrrcvs	12, 7, r6, pc, cr3	; <UNPREDICTABLE>
    34f0:	72617570 	rsbvc	r7, r1, #112, 10	; 0x1c000000
    34f4:	3a632e74 	bcc	18ceecc <__top_Flash+0x184eecc>
    34f8:	20313836 	eorscs	r3, r1, r6, lsr r8
    34fc:	6164203a 	cmnvs	r4, sl, lsr r0
    3500:	00006174 	andeq	r6, r0, r4, ror r1
    3504:	642f2e2e 	strtvs	r2, [pc], #-3630	; 350c <fllFactorTable.7490+0x1c8>
    3508:	65766972 	ldrbvs	r6, [r6, #-2418]!	; 0xfffff68e
    350c:	662f7372 			; <UNDEFINED> instruction: 0x662f7372
    3510:	6c5f6c73 	mrrcvs	12, 7, r6, pc, cr3	; <UNPREDICTABLE>
    3514:	72617570 	rsbvc	r7, r1, #112, 10	; 0x1c000000
    3518:	3a632e74 	bcc	18ceef0 <__top_Flash+0x184eef0>
    351c:	20363936 	eorscs	r3, r6, r6, lsr r9
    3520:	6164203a 	cmnvs	r4, sl, lsr r0
    3524:	00006174 	andeq	r6, r0, r4, ror r1
    3528:	642f2e2e 	strtvs	r2, [pc], #-3630	; 3530 <fllFactorTable.7490+0x1ec>
    352c:	65766972 	ldrbvs	r6, [r6, #-2418]!	; 0xfffff68e
    3530:	662f7372 			; <UNDEFINED> instruction: 0x662f7372
    3534:	6c5f6c73 	mrrcvs	12, 7, r6, pc, cr3	; <UNPREDICTABLE>
    3538:	72617570 	rsbvc	r7, r1, #112, 10	; 0x1c000000
    353c:	3a632e74 	bcc	18cef14 <__top_Flash+0x184ef14>
    3540:	20313637 	eorscs	r3, r1, r7, lsr r6
    3544:	6168203a 	cmnvs	r8, sl, lsr r0
    3548:	656c646e 	strbvs	r6, [ip, #-1134]!	; 0xfffffb92
    354c:	00000000 	andeq	r0, r0, r0
    3550:	642f2e2e 	strtvs	r2, [pc], #-3630	; 3558 <fllFactorTable.7490+0x214>
    3554:	65766972 	ldrbvs	r6, [r6, #-2418]!	; 0xfffff68e
    3558:	662f7372 			; <UNDEFINED> instruction: 0x662f7372
    355c:	6c5f6c73 	mrrcvs	12, 7, r6, pc, cr3	; <UNPREDICTABLE>
    3560:	72617570 	rsbvc	r7, r1, #112, 10	; 0x1c000000
    3564:	3a632e74 	bcc	18cef3c <__top_Flash+0x184ef3c>
    3568:	20383038 	eorscs	r3, r8, r8, lsr r0
    356c:	6168203a 	cmnvs	r8, sl, lsr r0
    3570:	656c646e 	strbvs	r6, [ip, #-1134]!	; 0xfffffb92
    3574:	00000000 	andeq	r0, r0, r0
    3578:	642f2e2e 	strtvs	r2, [pc], #-3630	; 3580 <fllFactorTable.7490+0x23c>
    357c:	65766972 	ldrbvs	r6, [r6, #-2418]!	; 0xfffff68e
    3580:	662f7372 			; <UNDEFINED> instruction: 0x662f7372
    3584:	6c5f6c73 	mrrcvs	12, 7, r6, pc, cr3	; <UNPREDICTABLE>
    3588:	72617570 	rsbvc	r7, r1, #112, 10	; 0x1c000000
    358c:	3a632e74 	bcc	18cef64 <__top_Flash+0x184ef64>
    3590:	20393038 	eorscs	r3, r9, r8, lsr r0
    3594:	6972203a 	ldmdbvs	r2!, {r1, r3, r4, r5, sp}^
    3598:	7542676e 	strbvc	r6, [r2, #-1902]	; 0xfffff892
    359c:	72656666 	rsbvc	r6, r5, #106954752	; 0x6600000
    35a0:	00000000 	andeq	r0, r0, r0
    35a4:	642f2e2e 	strtvs	r2, [pc], #-3630	; 35ac <fllFactorTable.7490+0x268>
    35a8:	65766972 	ldrbvs	r6, [r6, #-2418]!	; 0xfffff68e
    35ac:	662f7372 			; <UNDEFINED> instruction: 0x662f7372
    35b0:	6c5f6c73 	mrrcvs	12, 7, r6, pc, cr3	; <UNPREDICTABLE>
    35b4:	72617570 	rsbvc	r7, r1, #112, 10	; 0x1c000000
    35b8:	3a632e74 	bcc	18cef90 <__top_Flash+0x184ef90>
    35bc:	20333238 	eorscs	r3, r3, r8, lsr r2
    35c0:	6168203a 	cmnvs	r8, sl, lsr r0
    35c4:	656c646e 	strbvs	r6, [ip, #-1134]!	; 0xfffffb92
    35c8:	00000000 	andeq	r0, r0, r0
    35cc:	642f2e2e 	strtvs	r2, [pc], #-3630	; 35d4 <fllFactorTable.7490+0x290>
    35d0:	65766972 	ldrbvs	r6, [r6, #-2418]!	; 0xfffff68e
    35d4:	662f7372 			; <UNDEFINED> instruction: 0x662f7372
    35d8:	6c5f6c73 	mrrcvs	12, 7, r6, pc, cr3	; <UNPREDICTABLE>
    35dc:	72617570 	rsbvc	r7, r1, #112, 10	; 0x1c000000
    35e0:	3a632e74 	bcc	18cefb8 <__top_Flash+0x184efb8>
    35e4:	20383338 	eorscs	r3, r8, r8, lsr r3
    35e8:	6168203a 	cmnvs	r8, sl, lsr r0
    35ec:	656c646e 	strbvs	r6, [ip, #-1134]!	; 0xfffffb92
    35f0:	00000000 	andeq	r0, r0, r0
    35f4:	642f2e2e 	strtvs	r2, [pc], #-3630	; 35fc <fllFactorTable.7490+0x2b8>
    35f8:	65766972 	ldrbvs	r6, [r6, #-2418]!	; 0xfffff68e
    35fc:	662f7372 			; <UNDEFINED> instruction: 0x662f7372
    3600:	6c5f6c73 	mrrcvs	12, 7, r6, pc, cr3	; <UNPREDICTABLE>
    3604:	72617570 	rsbvc	r7, r1, #112, 10	; 0x1c000000
    3608:	3a632e74 	bcc	18cefe0 <__top_Flash+0x184efe0>
    360c:	20393338 	eorscs	r3, r9, r8, lsr r3
    3610:	6678203a 			; <UNDEFINED> instruction: 0x6678203a
    3614:	00007265 	andeq	r7, r0, r5, ror #4
    3618:	642f2e2e 	strtvs	r2, [pc], #-3630	; 3620 <fllFactorTable.7490+0x2dc>
    361c:	65766972 	ldrbvs	r6, [r6, #-2418]!	; 0xfffff68e
    3620:	662f7372 			; <UNDEFINED> instruction: 0x662f7372
    3624:	6c5f6c73 	mrrcvs	12, 7, r6, pc, cr3	; <UNPREDICTABLE>
    3628:	72617570 	rsbvc	r7, r1, #112, 10	; 0x1c000000
    362c:	3a632e74 	bcc	18cf004 <__top_Flash+0x184f004>
    3630:	20303438 	eorscs	r3, r0, r8, lsr r4
    3634:	6678203a 			; <UNDEFINED> instruction: 0x6678203a
    3638:	3e2d7265 	cdpcc	2, 2, cr7, cr13, cr5, {3}
    363c:	61746164 	cmnvs	r4, r4, ror #2
    3640:	00000000 	andeq	r0, r0, r0
    3644:	642f2e2e 	strtvs	r2, [pc], #-3630	; 364c <fllFactorTable.7490+0x308>
    3648:	65766972 	ldrbvs	r6, [r6, #-2418]!	; 0xfffff68e
    364c:	662f7372 			; <UNDEFINED> instruction: 0x662f7372
    3650:	6c5f6c73 	mrrcvs	12, 7, r6, pc, cr3	; <UNPREDICTABLE>
    3654:	72617570 	rsbvc	r7, r1, #112, 10	; 0x1c000000
    3658:	3a632e74 	bcc	18cf030 <__top_Flash+0x184f030>
    365c:	20313438 	eorscs	r3, r1, r8, lsr r4
    3660:	6678203a 			; <UNDEFINED> instruction: 0x6678203a
    3664:	3e2d7265 	cdpcc	2, 2, cr7, cr13, cr5, {3}
    3668:	61746164 	cmnvs	r4, r4, ror #2
    366c:	657a6953 	ldrbvs	r6, [sl, #-2387]!	; 0xfffff6ad
    3670:	00000000 	andeq	r0, r0, r0
    3674:	642f2e2e 	strtvs	r2, [pc], #-3630	; 367c <fllFactorTable.7490+0x338>
    3678:	65766972 	ldrbvs	r6, [r6, #-2418]!	; 0xfffff68e
    367c:	662f7372 			; <UNDEFINED> instruction: 0x662f7372
    3680:	6c5f6c73 	mrrcvs	12, 7, r6, pc, cr3	; <UNPREDICTABLE>
    3684:	72617570 	rsbvc	r7, r1, #112, 10	; 0x1c000000
    3688:	3a632e74 	bcc	18cf060 <__top_Flash+0x184f060>
    368c:	20383638 	eorscs	r3, r8, r8, lsr r6
    3690:	6168203a 	cmnvs	r8, sl, lsr r0
    3694:	656c646e 	strbvs	r6, [ip, #-1134]!	; 0xfffffb92
    3698:	00000000 	andeq	r0, r0, r0
    369c:	642f2e2e 	strtvs	r2, [pc], #-3630	; 36a4 <fllFactorTable.7490+0x360>
    36a0:	65766972 	ldrbvs	r6, [r6, #-2418]!	; 0xfffff68e
    36a4:	662f7372 			; <UNDEFINED> instruction: 0x662f7372
    36a8:	6c5f6c73 	mrrcvs	12, 7, r6, pc, cr3	; <UNPREDICTABLE>
    36ac:	72617570 	rsbvc	r7, r1, #112, 10	; 0x1c000000
    36b0:	3a632e74 	bcc	18cf088 <__top_Flash+0x184f088>
    36b4:	20383738 	eorscs	r3, r8, r8, lsr r7
    36b8:	6168203a 	cmnvs	r8, sl, lsr r0
    36bc:	656c646e 	strbvs	r6, [ip, #-1134]!	; 0xfffffb92
    36c0:	00000000 	andeq	r0, r0, r0
    36c4:	642f2e2e 	strtvs	r2, [pc], #-3630	; 36cc <fllFactorTable.7490+0x388>
    36c8:	65766972 	ldrbvs	r6, [r6, #-2418]!	; 0xfffff68e
    36cc:	662f7372 			; <UNDEFINED> instruction: 0x662f7372
    36d0:	6c5f6c73 	mrrcvs	12, 7, r6, pc, cr3	; <UNPREDICTABLE>
    36d4:	72617570 	rsbvc	r7, r1, #112, 10	; 0x1c000000
    36d8:	3a632e74 	bcc	18cf0b0 <__top_Flash+0x184f0b0>
    36dc:	20393738 	eorscs	r3, r9, r8, lsr r7
    36e0:	6f63203a 	svcvs	0x0063203a
    36e4:	00746e75 	rsbseq	r6, r4, r5, ror lr
    36e8:	642f2e2e 	strtvs	r2, [pc], #-3630	; 36f0 <fllFactorTable.7490+0x3ac>
    36ec:	65766972 	ldrbvs	r6, [r6, #-2418]!	; 0xfffff68e
    36f0:	662f7372 			; <UNDEFINED> instruction: 0x662f7372
    36f4:	6c5f6c73 	mrrcvs	12, 7, r6, pc, cr3	; <UNPREDICTABLE>
    36f8:	72617570 	rsbvc	r7, r1, #112, 10	; 0x1c000000
    36fc:	3a632e74 	bcc	18cf0d4 <__top_Flash+0x184f0d4>
    3700:	20363938 	eorscs	r3, r6, r8, lsr r9
    3704:	6168203a 	cmnvs	r8, sl, lsr r0
    3708:	656c646e 	strbvs	r6, [ip, #-1134]!	; 0xfffffb92
    370c:	00000000 	andeq	r0, r0, r0
    3710:	642f2e2e 	strtvs	r2, [pc], #-3630	; 3718 <fllFactorTable.7490+0x3d4>
    3714:	65766972 	ldrbvs	r6, [r6, #-2418]!	; 0xfffff68e
    3718:	662f7372 			; <UNDEFINED> instruction: 0x662f7372
    371c:	6c5f6c73 	mrrcvs	12, 7, r6, pc, cr3	; <UNPREDICTABLE>
    3720:	72617570 	rsbvc	r7, r1, #112, 10	; 0x1c000000
    3724:	3a632e74 	bcc	18cf0fc <__top_Flash+0x184f0fc>
    3728:	20373938 	eorscs	r3, r7, r8, lsr r9
    372c:	6678203a 			; <UNDEFINED> instruction: 0x6678203a
    3730:	00007265 	andeq	r7, r0, r5, ror #4
    3734:	642f2e2e 	strtvs	r2, [pc], #-3630	; 373c <fllFactorTable.7490+0x3f8>
    3738:	65766972 	ldrbvs	r6, [r6, #-2418]!	; 0xfffff68e
    373c:	662f7372 			; <UNDEFINED> instruction: 0x662f7372
    3740:	6c5f6c73 	mrrcvs	12, 7, r6, pc, cr3	; <UNPREDICTABLE>
    3744:	72617570 	rsbvc	r7, r1, #112, 10	; 0x1c000000
    3748:	3a632e74 	bcc	18cf120 <__top_Flash+0x184f120>
    374c:	20383938 	eorscs	r3, r8, r8, lsr r9
    3750:	6678203a 			; <UNDEFINED> instruction: 0x6678203a
    3754:	3e2d7265 	cdpcc	2, 2, cr7, cr13, cr5, {3}
    3758:	61746164 	cmnvs	r4, r4, ror #2
    375c:	00000000 	andeq	r0, r0, r0
    3760:	642f2e2e 	strtvs	r2, [pc], #-3630	; 3768 <fllFactorTable.7490+0x424>
    3764:	65766972 	ldrbvs	r6, [r6, #-2418]!	; 0xfffff68e
    3768:	662f7372 			; <UNDEFINED> instruction: 0x662f7372
    376c:	6c5f6c73 	mrrcvs	12, 7, r6, pc, cr3	; <UNPREDICTABLE>
    3770:	72617570 	rsbvc	r7, r1, #112, 10	; 0x1c000000
    3774:	3a632e74 	bcc	18cf14c <__top_Flash+0x184f14c>
    3778:	20393938 	eorscs	r3, r9, r8, lsr r9
    377c:	6678203a 			; <UNDEFINED> instruction: 0x6678203a
    3780:	3e2d7265 	cdpcc	2, 2, cr7, cr13, cr5, {3}
    3784:	61746164 	cmnvs	r4, r4, ror #2
    3788:	657a6953 	ldrbvs	r6, [sl, #-2387]!	; 0xfffff6ad
    378c:	00000000 	andeq	r0, r0, r0
    3790:	642f2e2e 	strtvs	r2, [pc], #-3630	; 3798 <fllFactorTable.7490+0x454>
    3794:	65766972 	ldrbvs	r6, [r6, #-2418]!	; 0xfffff68e
    3798:	662f7372 			; <UNDEFINED> instruction: 0x662f7372
    379c:	6c5f6c73 	mrrcvs	12, 7, r6, pc, cr3	; <UNPREDICTABLE>
    37a0:	72617570 	rsbvc	r7, r1, #112, 10	; 0x1c000000
    37a4:	3a632e74 	bcc	18cf17c <__top_Flash+0x184f17c>
    37a8:	39303031 	ldmdbcc	r0!, {r0, r4, r5, ip, sp}
    37ac:	68203a20 	stmdavs	r0!, {r5, r9, fp, ip, sp}
    37b0:	6c646e61 	stclvs	14, cr6, [r4], #-388	; 0xfffffe7c
    37b4:	00000065 	andeq	r0, r0, r5, rrx
    37b8:	642f2e2e 	strtvs	r2, [pc], #-3630	; 37c0 <fllFactorTable.7490+0x47c>
    37bc:	65766972 	ldrbvs	r6, [r6, #-2418]!	; 0xfffff68e
    37c0:	662f7372 			; <UNDEFINED> instruction: 0x662f7372
    37c4:	6c5f6c73 	mrrcvs	12, 7, r6, pc, cr3	; <UNPREDICTABLE>
    37c8:	72617570 	rsbvc	r7, r1, #112, 10	; 0x1c000000
    37cc:	3a632e74 	bcc	18cf1a4 <__top_Flash+0x184f1a4>
    37d0:	35323031 	ldrcc	r3, [r2, #-49]!	; 0xffffffcf
    37d4:	68203a20 	stmdavs	r0!, {r5, r9, fp, ip, sp}
    37d8:	6c646e61 	stclvs	14, cr6, [r4], #-388	; 0xfffffe7c
    37dc:	00000065 	andeq	r0, r0, r5, rrx
    37e0:	642f2e2e 	strtvs	r2, [pc], #-3630	; 37e8 <fllFactorTable.7490+0x4a4>
    37e4:	65766972 	ldrbvs	r6, [r6, #-2418]!	; 0xfffff68e
    37e8:	662f7372 			; <UNDEFINED> instruction: 0x662f7372
    37ec:	6c5f6c73 	mrrcvs	12, 7, r6, pc, cr3	; <UNPREDICTABLE>
    37f0:	72617570 	rsbvc	r7, r1, #112, 10	; 0x1c000000
    37f4:	3a632e74 	bcc	18cf1cc <__top_Flash+0x184f1cc>
    37f8:	36323031 			; <UNDEFINED> instruction: 0x36323031
    37fc:	63203a20 			; <UNDEFINED> instruction: 0x63203a20
    3800:	746e756f 	strbtvc	r7, [lr], #-1391	; 0xfffffa91
    3804:	00000000 	andeq	r0, r0, r0
    3808:	642f2e2e 	strtvs	r2, [pc], #-3630	; 3810 <fllFactorTable.7490+0x4cc>
    380c:	65766972 	ldrbvs	r6, [r6, #-2418]!	; 0xfffff68e
    3810:	662f7372 			; <UNDEFINED> instruction: 0x662f7372
    3814:	6c5f6c73 	mrrcvs	12, 7, r6, pc, cr3	; <UNPREDICTABLE>
    3818:	72617570 	rsbvc	r7, r1, #112, 10	; 0x1c000000
    381c:	3a632e74 	bcc	18cf1f4 <__top_Flash+0x184f1f4>
    3820:	30343031 	eorscc	r3, r4, r1, lsr r0
    3824:	68203a20 	stmdavs	r0!, {r5, r9, fp, ip, sp}
    3828:	6c646e61 	stclvs	14, cr6, [r4], #-388	; 0xfffffe7c
    382c:	ffff0065 			; <UNDEFINED> instruction: 0xffff0065

00003830 <s_uartBases>:
    3830:	4006a000 	andmi	sl, r6, r0
    3834:	4006b000 	andmi	fp, r6, r0
    3838:	4006c000 	andmi	ip, r6, r0

0000383c <s_uartClock>:
    383c:	1034000a 	eorsne	r0, r4, sl
    3840:	1034000b 	eorsne	r0, r4, fp
    3844:	1034000c 	eorsne	r0, r4, ip
    3848:	642f2e2e 	strtvs	r2, [pc], #-3630	; 3850 <s_uartClock+0x14>
    384c:	65766972 	ldrbvs	r6, [r6, #-2418]!	; 0xfffff68e
    3850:	662f7372 			; <UNDEFINED> instruction: 0x662f7372
    3854:	755f6c73 	ldrbvc	r6, [pc, #-3187]	; 2be9 <CLOCK_EnableClock+0x17>
    3858:	2e747261 	cdpcs	2, 7, cr7, cr4, cr1, {3}
    385c:	36313a63 	ldrtcc	r3, [r1], -r3, ror #20
    3860:	203a2031 	eorscs	r2, sl, r1, lsr r0
    3864:	74736e69 	ldrbtvc	r6, [r3], #-3689	; 0xfffff197
    3868:	65636e61 	strbvs	r6, [r3, #-3681]!	; 0xfffff19f
    386c:	75203c20 	strvc	r3, [r0, #-3104]!	; 0xfffff3e0
    3870:	41747261 	cmnmi	r4, r1, ror #4
    3874:	79617272 	stmdbvc	r1!, {r1, r4, r5, r6, r9, ip, sp, lr}^
    3878:	6e756f43 	cdpvs	15, 7, cr6, cr5, cr3, {2}
    387c:	00000074 	andeq	r0, r0, r4, ror r0
    3880:	642f2e2e 	strtvs	r2, [pc], #-3630	; 3888 <s_uartClock+0x4c>
    3884:	65766972 	ldrbvs	r6, [r6, #-2418]!	; 0xfffff68e
    3888:	662f7372 			; <UNDEFINED> instruction: 0x662f7372
    388c:	755f6c73 	ldrbvc	r6, [pc, #-3187]	; 2c21 <CLOCK_EnableClock+0x1b>
    3890:	2e747261 	cdpcs	2, 7, cr7, cr4, cr1, {3}
    3894:	36313a63 	ldrtcc	r3, [r1], -r3, ror #20
    3898:	203a2038 	eorscs	r2, sl, r8, lsr r0
    389c:	646e6168 	strbtvs	r6, [lr], #-360	; 0xfffffe98
    38a0:	0000656c 	andeq	r6, r0, ip, ror #10
    38a4:	642f2e2e 	strtvs	r2, [pc], #-3630	; 38ac <s_uartClock+0x70>
    38a8:	65766972 	ldrbvs	r6, [r6, #-2418]!	; 0xfffff68e
    38ac:	662f7372 			; <UNDEFINED> instruction: 0x662f7372
    38b0:	755f6c73 	ldrbvc	r6, [pc, #-3187]	; 2c45 <UART0_RX_TX_DriverIRQHandler+0xb>
    38b4:	2e747261 	cdpcs	2, 7, cr7, cr4, cr1, {3}
    38b8:	38313a63 	ldmdacc	r1!, {r0, r1, r5, r6, r9, fp, ip, sp}
    38bc:	203a2036 	eorscs	r2, sl, r6, lsr r0
    38c0:	646e6168 	strbtvs	r6, [lr], #-360	; 0xfffffe98
    38c4:	0000656c 	andeq	r6, r0, ip, ror #10
    38c8:	642f2e2e 	strtvs	r2, [pc], #-3630	; 38d0 <s_uartClock+0x94>
    38cc:	65766972 	ldrbvs	r6, [r6, #-2418]!	; 0xfffff68e
    38d0:	662f7372 			; <UNDEFINED> instruction: 0x662f7372
    38d4:	755f6c73 	ldrbvc	r6, [pc, #-3187]	; 2c69 <UART2_RX_TX_DriverIRQHandler+0xf>
    38d8:	2e747261 	cdpcs	2, 7, cr7, cr4, cr1, {3}
    38dc:	30323a63 	eorscc	r3, r2, r3, ror #20
    38e0:	203a2034 	eorscs	r2, sl, r4, lsr r0
    38e4:	666e6f63 	strbtvs	r6, [lr], -r3, ror #30
    38e8:	00006769 	andeq	r6, r0, r9, ror #14
    38ec:	642f2e2e 	strtvs	r2, [pc], #-3630	; 38f4 <s_uartClock+0xb8>
    38f0:	65766972 	ldrbvs	r6, [r6, #-2418]!	; 0xfffff68e
    38f4:	662f7372 			; <UNDEFINED> instruction: 0x662f7372
    38f8:	755f6c73 	ldrbvc	r6, [pc, #-3187]	; 2c8d <CLOCK_EnableClock+0x23>
    38fc:	2e747261 	cdpcs	2, 7, cr7, cr4, cr1, {3}
    3900:	30323a63 	eorscc	r3, r2, r3, ror #20
    3904:	203a2035 	eorscs	r2, sl, r5, lsr r0
    3908:	666e6f63 	strbtvs	r6, [lr], -r3, ror #30
    390c:	3e2d6769 	cdpcc	7, 2, cr6, cr13, cr9, {3}
    3910:	64756162 	ldrbtvs	r6, [r5], #-354	; 0xfffffe9e
    3914:	65746152 	ldrbvs	r6, [r4, #-338]!	; 0xfffffeae
    3918:	7370425f 	cmnvc	r0, #-268435451	; 0xf0000005
    391c:	00000000 	andeq	r0, r0, r0
    3920:	642f2e2e 	strtvs	r2, [pc], #-3630	; 3928 <s_uartClock+0xec>
    3924:	65766972 	ldrbvs	r6, [r6, #-2418]!	; 0xfffff68e
    3928:	662f7372 			; <UNDEFINED> instruction: 0x662f7372
    392c:	755f6c73 	ldrbvc	r6, [pc, #-3187]	; 2cc1 <PORT_SetPinMux+0x23>
    3930:	2e747261 	cdpcs	2, 7, cr7, cr4, cr1, {3}
    3934:	30323a63 	eorscc	r3, r2, r3, ror #20
    3938:	203a2037 	eorscs	r2, sl, r7, lsr r0
    393c:	5f4c5346 	svcpl	0x004c5346
    3940:	54414546 	strbpl	r4, [r1], #-1350	; 0xfffffaba
    3944:	5f455255 	svcpl	0x00455255
    3948:	54524155 	ldrbpl	r4, [r2], #-341	; 0xfffffeab
    394c:	4649465f 			; <UNDEFINED> instruction: 0x4649465f
    3950:	49535f4f 	ldmdbmi	r3, {r0, r1, r2, r3, r6, r8, r9, sl, fp, ip, lr}^
    3954:	286e455a 	stmdacs	lr!, {r1, r3, r4, r6, r8, sl, lr}^
    3958:	65736162 	ldrbvs	r6, [r3, #-354]!	; 0xfffffe9e
    395c:	3d3e2029 	ldccc	0, cr2, [lr, #-164]!	; 0xffffff5c
    3960:	6e6f6320 	cdpvs	3, 6, cr6, cr15, cr0, {1}
    3964:	2d676966 			; <UNDEFINED> instruction: 0x2d676966
    3968:	4678743e 			; <UNDEFINED> instruction: 0x4678743e
    396c:	576f6669 	strbpl	r6, [pc, -r9, ror #12]!
    3970:	72657461 	rsbvc	r7, r5, #1627389952	; 0x61000000
    3974:	6b72616d 	blvs	1c9bf30 <__top_Flash+0x1c1bf30>
    3978:	00000000 	andeq	r0, r0, r0
    397c:	642f2e2e 	strtvs	r2, [pc], #-3630	; 3984 <s_uartClock+0x148>
    3980:	65766972 	ldrbvs	r6, [r6, #-2418]!	; 0xfffff68e
    3984:	662f7372 			; <UNDEFINED> instruction: 0x662f7372
    3988:	755f6c73 	ldrbvc	r6, [pc, #-3187]	; 2d1d <_deferredlazyseek+0x3>
    398c:	2e747261 	cdpcs	2, 7, cr7, cr4, cr1, {3}
    3990:	30323a63 	eorscc	r3, r2, r3, ror #20
    3994:	203a2038 	eorscs	r2, sl, r8, lsr r0
    3998:	5f4c5346 	svcpl	0x004c5346
    399c:	54414546 	strbpl	r4, [r1], #-1350	; 0xfffffaba
    39a0:	5f455255 	svcpl	0x00455255
    39a4:	54524155 	ldrbpl	r4, [r2], #-341	; 0xfffffeab
    39a8:	4649465f 			; <UNDEFINED> instruction: 0x4649465f
    39ac:	49535f4f 	ldmdbmi	r3, {r0, r1, r2, r3, r6, r8, r9, sl, fp, ip, lr}^
    39b0:	286e455a 	stmdacs	lr!, {r1, r3, r4, r6, r8, sl, lr}^
    39b4:	65736162 	ldrbvs	r6, [r3, #-354]!	; 0xfffffe9e
    39b8:	3d3e2029 	ldccc	0, cr2, [lr, #-164]!	; 0xffffff5c
    39bc:	6e6f6320 	cdpvs	3, 6, cr6, cr15, cr0, {1}
    39c0:	2d676966 			; <UNDEFINED> instruction: 0x2d676966
    39c4:	4678723e 			; <UNDEFINED> instruction: 0x4678723e
    39c8:	576f6669 	strbpl	r6, [pc, -r9, ror #12]!
    39cc:	72657461 	rsbvc	r7, r5, #1627389952	; 0x61000000
    39d0:	6b72616d 	blvs	1c9bf8c <__top_Flash+0x1c1bf8c>
    39d4:	00000000 	andeq	r0, r0, r0
    39d8:	642f2e2e 	strtvs	r2, [pc], #-3630	; 39e0 <s_uartClock+0x1a4>
    39dc:	65766972 	ldrbvs	r6, [r6, #-2418]!	; 0xfffff68e
    39e0:	662f7372 			; <UNDEFINED> instruction: 0x662f7372
    39e4:	755f6c73 	ldrbvc	r6, [pc, #-3187]	; 2d79 <__flsbuf+0x1f>
    39e8:	2e747261 	cdpcs	2, 7, cr7, cr4, cr1, {3}
    39ec:	36333a63 	ldrtcc	r3, [r3], -r3, ror #20
    39f0:	203a2033 	eorscs	r2, sl, r3, lsr r0
    39f4:	666e6f63 	strbtvs	r6, [lr], -r3, ror #30
    39f8:	00006769 	andeq	r6, r0, r9, ror #14
    39fc:	642f2e2e 	strtvs	r2, [pc], #-3630	; 3a04 <s_uartClock+0x1c8>
    3a00:	65766972 	ldrbvs	r6, [r6, #-2418]!	; 0xfffff68e
    3a04:	662f7372 			; <UNDEFINED> instruction: 0x662f7372
    3a08:	755f6c73 	ldrbvc	r6, [pc, #-3187]	; 2d9d <__flsbuf+0x43>
    3a0c:	2e747261 	cdpcs	2, 7, cr7, cr4, cr1, {3}
    3a10:	38333a63 	ldmdacc	r3!, {r0, r1, r5, r6, r9, fp, ip, sp}
    3a14:	203a2035 	eorscs	r2, sl, r5, lsr r0
    3a18:	64756162 	ldrbtvs	r6, [r5], #-354	; 0xfffffe9e
    3a1c:	65746152 	ldrbvs	r6, [r4, #-338]!	; 0xfffffeae
    3a20:	7370425f 	cmnvc	r0, #-268435451	; 0xf0000005
    3a24:	00000000 	andeq	r0, r0, r0
    3a28:	642f2e2e 	strtvs	r2, [pc], #-3630	; 3a30 <s_uartClock+0x1f4>
    3a2c:	65766972 	ldrbvs	r6, [r6, #-2418]!	; 0xfffff68e
    3a30:	662f7372 			; <UNDEFINED> instruction: 0x662f7372
    3a34:	755f6c73 	ldrbvc	r6, [pc, #-3187]	; 2dc9 <__flsbuf+0x6f>
    3a38:	2e747261 	cdpcs	2, 7, cr7, cr4, cr1, {3}
    3a3c:	37353a63 	ldrcc	r3, [r5, -r3, ror #20]!
    3a40:	203a2037 	eorscs	r2, sl, r7, lsr r0
    3a44:	61746164 	cmnvs	r4, r4, ror #2
    3a48:	00000000 	andeq	r0, r0, r0
    3a4c:	642f2e2e 	strtvs	r2, [pc], #-3630	; 3a54 <s_uartClock+0x218>
    3a50:	65766972 	ldrbvs	r6, [r6, #-2418]!	; 0xfffff68e
    3a54:	662f7372 			; <UNDEFINED> instruction: 0x662f7372
    3a58:	755f6c73 	ldrbvc	r6, [pc, #-3187]	; 2ded <__flsbuf+0x93>
    3a5c:	2e747261 	cdpcs	2, 7, cr7, cr4, cr1, {3}
    3a60:	39353a63 	ldmdbcc	r5!, {r0, r1, r5, r6, r9, fp, ip, sp}
    3a64:	203a2031 	eorscs	r2, sl, r1, lsr r0
    3a68:	61746164 	cmnvs	r4, r4, ror #2
    3a6c:	00000000 	andeq	r0, r0, r0
    3a70:	642f2e2e 	strtvs	r2, [pc], #-3630	; 3a78 <s_uartClock+0x23c>
    3a74:	65766972 	ldrbvs	r6, [r6, #-2418]!	; 0xfffff68e
    3a78:	662f7372 			; <UNDEFINED> instruction: 0x662f7372
    3a7c:	755f6c73 	ldrbvc	r6, [pc, #-3187]	; 2e11 <__flsbuf+0xb7>
    3a80:	2e747261 	cdpcs	2, 7, cr7, cr4, cr1, {3}
    3a84:	33363a63 	teqcc	r6, #405504	; 0x63000
    3a88:	203a2033 	eorscs	r2, sl, r3, lsr r0
    3a8c:	61746164 	cmnvs	r4, r4, ror #2
    3a90:	00000000 	andeq	r0, r0, r0
    3a94:	642f2e2e 	strtvs	r2, [pc], #-3630	; 3a9c <s_uartClock+0x260>
    3a98:	65766972 	ldrbvs	r6, [r6, #-2418]!	; 0xfffff68e
    3a9c:	662f7372 			; <UNDEFINED> instruction: 0x662f7372
    3aa0:	755f6c73 	ldrbvc	r6, [pc, #-3187]	; 2e35 <__flsbuf+0xdb>
    3aa4:	2e747261 	cdpcs	2, 7, cr7, cr4, cr1, {3}
    3aa8:	35363a63 	ldrcc	r3, [r6, #-2659]!	; 0xfffff59d
    3aac:	203a2030 	eorscs	r2, sl, r0, lsr r0
    3ab0:	646e6168 	strbtvs	r6, [lr], #-360	; 0xfffffe98
    3ab4:	0000656c 	andeq	r6, r0, ip, ror #10
    3ab8:	642f2e2e 	strtvs	r2, [pc], #-3630	; 3ac0 <s_uartClock+0x284>
    3abc:	65766972 	ldrbvs	r6, [r6, #-2418]!	; 0xfffff68e
    3ac0:	662f7372 			; <UNDEFINED> instruction: 0x662f7372
    3ac4:	755f6c73 	ldrbvc	r6, [pc, #-3187]	; 2e59 <__flsbuf+0xff>
    3ac8:	2e747261 	cdpcs	2, 7, cr7, cr4, cr1, {3}
    3acc:	37363a63 	ldrcc	r3, [r6, -r3, ror #20]!
    3ad0:	203a2038 	eorscs	r2, sl, r8, lsr r0
    3ad4:	646e6168 	strbtvs	r6, [lr], #-360	; 0xfffffe98
    3ad8:	0000656c 	andeq	r6, r0, ip, ror #10
    3adc:	642f2e2e 	strtvs	r2, [pc], #-3630	; 3ae4 <s_uartClock+0x2a8>
    3ae0:	65766972 	ldrbvs	r6, [r6, #-2418]!	; 0xfffff68e
    3ae4:	662f7372 			; <UNDEFINED> instruction: 0x662f7372
    3ae8:	755f6c73 	ldrbvc	r6, [pc, #-3187]	; 2e7d <__flsbuf+0x123>
    3aec:	2e747261 	cdpcs	2, 7, cr7, cr4, cr1, {3}
    3af0:	37363a63 	ldrcc	r3, [r6, -r3, ror #20]!
    3af4:	203a2039 	eorscs	r2, sl, r9, lsr r0
    3af8:	676e6972 			; <UNDEFINED> instruction: 0x676e6972
    3afc:	66667542 	strbtvs	r7, [r6], -r2, asr #10
    3b00:	00007265 	andeq	r7, r0, r5, ror #4
    3b04:	642f2e2e 	strtvs	r2, [pc], #-3630	; 3b0c <s_uartClock+0x2d0>
    3b08:	65766972 	ldrbvs	r6, [r6, #-2418]!	; 0xfffff68e
    3b0c:	662f7372 			; <UNDEFINED> instruction: 0x662f7372
    3b10:	755f6c73 	ldrbvc	r6, [pc, #-3187]	; 2ea5 <_fflush+0xb>
    3b14:	2e747261 	cdpcs	2, 7, cr7, cr4, cr1, {3}
    3b18:	39363a63 	ldmdbcc	r6!, {r0, r1, r5, r6, r9, fp, ip, sp}
    3b1c:	203a2039 	eorscs	r2, sl, r9, lsr r0
    3b20:	646e6168 	strbtvs	r6, [lr], #-360	; 0xfffffe98
    3b24:	0000656c 	andeq	r6, r0, ip, ror #10
    3b28:	642f2e2e 	strtvs	r2, [pc], #-3630	; 3b30 <s_uartClock+0x2f4>
    3b2c:	65766972 	ldrbvs	r6, [r6, #-2418]!	; 0xfffff68e
    3b30:	662f7372 			; <UNDEFINED> instruction: 0x662f7372
    3b34:	755f6c73 	ldrbvc	r6, [pc, #-3187]	; 2ec9 <_fflush+0x2f>
    3b38:	2e747261 	cdpcs	2, 7, cr7, cr4, cr1, {3}
    3b3c:	32373a63 	eorscc	r3, r7, #405504	; 0x63000
    3b40:	203a2030 	eorscs	r2, sl, r0, lsr r0
    3b44:	646e6168 	strbtvs	r6, [lr], #-360	; 0xfffffe98
    3b48:	0000656c 	andeq	r6, r0, ip, ror #10
    3b4c:	642f2e2e 	strtvs	r2, [pc], #-3630	; 3b54 <s_uartClock+0x318>
    3b50:	65766972 	ldrbvs	r6, [r6, #-2418]!	; 0xfffff68e
    3b54:	662f7372 			; <UNDEFINED> instruction: 0x662f7372
    3b58:	755f6c73 	ldrbvc	r6, [pc, #-3187]	; 2eed <free+0x1>
    3b5c:	2e747261 	cdpcs	2, 7, cr7, cr4, cr1, {3}
    3b60:	32373a63 	eorscc	r3, r7, #405504	; 0x63000
    3b64:	203a2031 	eorscs	r2, sl, r1, lsr r0
    3b68:	72656678 	rsbvc	r6, r5, #120, 12	; 0x7800000
    3b6c:	00000000 	andeq	r0, r0, r0
    3b70:	642f2e2e 	strtvs	r2, [pc], #-3630	; 3b78 <s_uartClock+0x33c>
    3b74:	65766972 	ldrbvs	r6, [r6, #-2418]!	; 0xfffff68e
    3b78:	662f7372 			; <UNDEFINED> instruction: 0x662f7372
    3b7c:	755f6c73 	ldrbvc	r6, [pc, #-3187]	; 2f11 <free+0x25>
    3b80:	2e747261 	cdpcs	2, 7, cr7, cr4, cr1, {3}
    3b84:	32373a63 	eorscc	r3, r7, #405504	; 0x63000
    3b88:	203a2032 	eorscs	r2, sl, r2, lsr r0
    3b8c:	72656678 	rsbvc	r6, r5, #120, 12	; 0x7800000
    3b90:	61643e2d 	cmnvs	r4, sp, lsr #28
    3b94:	69536174 	ldmdbvs	r3, {r2, r4, r5, r6, r8, sp, lr}^
    3b98:	0000657a 	andeq	r6, r0, sl, ror r5
    3b9c:	642f2e2e 	strtvs	r2, [pc], #-3630	; 3ba4 <s_uartClock+0x368>
    3ba0:	65766972 	ldrbvs	r6, [r6, #-2418]!	; 0xfffff68e
    3ba4:	662f7372 			; <UNDEFINED> instruction: 0x662f7372
    3ba8:	755f6c73 	ldrbvc	r6, [pc, #-3187]	; 2f3d <fputs+0x21>
    3bac:	2e747261 	cdpcs	2, 7, cr7, cr4, cr1, {3}
    3bb0:	32373a63 	eorscc	r3, r7, #405504	; 0x63000
    3bb4:	203a2033 	eorscs	r2, sl, r3, lsr r0
    3bb8:	72656678 	rsbvc	r6, r5, #120, 12	; 0x7800000
    3bbc:	61643e2d 	cmnvs	r4, sp, lsr #28
    3bc0:	00006174 	andeq	r6, r0, r4, ror r1
