
hello_world_frdmk22f.elf:     file format elf32-littlearm


Disassembly of section .interrupts:

00000000 <__isr_vector>:
   0:	20010000 	andcs	r0, r1, r0
   4:	000004d9 	ldrdeq	r0, [r0], -r9
   8:	000004e9 	andeq	r0, r0, r9, ror #9
   c:	000004e9 	andeq	r0, r0, r9, ror #9
  10:	000004e9 	andeq	r0, r0, r9, ror #9
  14:	000004e9 	andeq	r0, r0, r9, ror #9
  18:	000004e9 	andeq	r0, r0, r9, ror #9
	...
  2c:	000004e9 	andeq	r0, r0, r9, ror #9
  30:	000004e9 	andeq	r0, r0, r9, ror #9
  34:	00000000 	andeq	r0, r0, r0
  38:	000004e9 	andeq	r0, r0, r9, ror #9
  3c:	000004e9 	andeq	r0, r0, r9, ror #9
  40:	000004e9 	andeq	r0, r0, r9, ror #9
  44:	000004e9 	andeq	r0, r0, r9, ror #9
  48:	000004e9 	andeq	r0, r0, r9, ror #9
  4c:	000004e9 	andeq	r0, r0, r9, ror #9
  50:	000004e9 	andeq	r0, r0, r9, ror #9
  54:	000004e9 	andeq	r0, r0, r9, ror #9
  58:	000004e9 	andeq	r0, r0, r9, ror #9
  5c:	000004e9 	andeq	r0, r0, r9, ror #9
  60:	000004e9 	andeq	r0, r0, r9, ror #9
  64:	000004e9 	andeq	r0, r0, r9, ror #9
  68:	000004e9 	andeq	r0, r0, r9, ror #9
  6c:	000004e9 	andeq	r0, r0, r9, ror #9
  70:	000004e9 	andeq	r0, r0, r9, ror #9
  74:	000004e9 	andeq	r0, r0, r9, ror #9
  78:	000004e9 	andeq	r0, r0, r9, ror #9
  7c:	000004e9 	andeq	r0, r0, r9, ror #9
  80:	000004e9 	andeq	r0, r0, r9, ror #9
  84:	000004e9 	andeq	r0, r0, r9, ror #9
  88:	000004e9 	andeq	r0, r0, r9, ror #9
  8c:	000004e9 	andeq	r0, r0, r9, ror #9
  90:	000004e9 	andeq	r0, r0, r9, ror #9
  94:	000004e9 	andeq	r0, r0, r9, ror #9
  98:	000004e9 	andeq	r0, r0, r9, ror #9
  9c:	000004e9 	andeq	r0, r0, r9, ror #9
  a0:	000004e9 	andeq	r0, r0, r9, ror #9
  a4:	000004e9 	andeq	r0, r0, r9, ror #9
  a8:	000004e9 	andeq	r0, r0, r9, ror #9
  ac:	000004e9 	andeq	r0, r0, r9, ror #9
  b0:	000004e9 	andeq	r0, r0, r9, ror #9
  b4:	000004e9 	andeq	r0, r0, r9, ror #9
  b8:	000004e9 	andeq	r0, r0, r9, ror #9
  bc:	000004e9 	andeq	r0, r0, r9, ror #9
  c0:	000004e9 	andeq	r0, r0, r9, ror #9
  c4:	000004e9 	andeq	r0, r0, r9, ror #9
  c8:	000004e9 	andeq	r0, r0, r9, ror #9
  cc:	000004e9 	andeq	r0, r0, r9, ror #9
  d0:	000004e9 	andeq	r0, r0, r9, ror #9
  d4:	000004e9 	andeq	r0, r0, r9, ror #9
  d8:	000004e9 	andeq	r0, r0, r9, ror #9
  dc:	000004e9 	andeq	r0, r0, r9, ror #9
  e0:	000004e9 	andeq	r0, r0, r9, ror #9
  e4:	000004e9 	andeq	r0, r0, r9, ror #9
  e8:	000004e9 	andeq	r0, r0, r9, ror #9
  ec:	000004e9 	andeq	r0, r0, r9, ror #9
  f0:	000004e9 	andeq	r0, r0, r9, ror #9
  f4:	000004e9 	andeq	r0, r0, r9, ror #9
  f8:	000004e9 	andeq	r0, r0, r9, ror #9
  fc:	000004e9 	andeq	r0, r0, r9, ror #9
 100:	000004e9 	andeq	r0, r0, r9, ror #9
 104:	000004e9 	andeq	r0, r0, r9, ror #9
 108:	000004e9 	andeq	r0, r0, r9, ror #9
 10c:	000004e9 	andeq	r0, r0, r9, ror #9
 110:	000004e9 	andeq	r0, r0, r9, ror #9
 114:	000004e9 	andeq	r0, r0, r9, ror #9
 118:	000004e9 	andeq	r0, r0, r9, ror #9
 11c:	000004e9 	andeq	r0, r0, r9, ror #9
 120:	000004e9 	andeq	r0, r0, r9, ror #9
 124:	000004e9 	andeq	r0, r0, r9, ror #9
 128:	000012f1 	strdeq	r1, [r0], -r1	; <UNPREDICTABLE>
 12c:	000004e9 	andeq	r0, r0, r9, ror #9
 130:	000004e9 	andeq	r0, r0, r9, ror #9
 134:	000004e9 	andeq	r0, r0, r9, ror #9
 138:	000004e9 	andeq	r0, r0, r9, ror #9
 13c:	000004e9 	andeq	r0, r0, r9, ror #9
 140:	000004e9 	andeq	r0, r0, r9, ror #9
 144:	000004e9 	andeq	r0, r0, r9, ror #9
 148:	000004e9 	andeq	r0, r0, r9, ror #9
 14c:	000004e9 	andeq	r0, r0, r9, ror #9
 150:	000004e9 	andeq	r0, r0, r9, ror #9
 154:	000004e9 	andeq	r0, r0, r9, ror #9
 158:	000004e9 	andeq	r0, r0, r9, ror #9
 15c:	000004e9 	andeq	r0, r0, r9, ror #9
 160:	000004e9 	andeq	r0, r0, r9, ror #9
 164:	000004e9 	andeq	r0, r0, r9, ror #9
 168:	000004e9 	andeq	r0, r0, r9, ror #9
 16c:	000004e9 	andeq	r0, r0, r9, ror #9
 170:	000004e9 	andeq	r0, r0, r9, ror #9
 174:	000004e9 	andeq	r0, r0, r9, ror #9
 178:	000004e9 	andeq	r0, r0, r9, ror #9
 17c:	000004e9 	andeq	r0, r0, r9, ror #9
 180:	000004e9 	andeq	r0, r0, r9, ror #9
 184:	000004e9 	andeq	r0, r0, r9, ror #9
 188:	000004e9 	andeq	r0, r0, r9, ror #9
 18c:	000004e9 	andeq	r0, r0, r9, ror #9
 190:	000004e9 	andeq	r0, r0, r9, ror #9
 194:	000004e9 	andeq	r0, r0, r9, ror #9
 198:	000004e9 	andeq	r0, r0, r9, ror #9
 19c:	000004e9 	andeq	r0, r0, r9, ror #9
 1a0:	000004e9 	andeq	r0, r0, r9, ror #9
 1a4:	000004e9 	andeq	r0, r0, r9, ror #9
 1a8:	000004e9 	andeq	r0, r0, r9, ror #9
 1ac:	000004e9 	andeq	r0, r0, r9, ror #9
 1b0:	000004e9 	andeq	r0, r0, r9, ror #9
 1b4:	000004e9 	andeq	r0, r0, r9, ror #9
 1b8:	000004e9 	andeq	r0, r0, r9, ror #9
 1bc:	000004e9 	andeq	r0, r0, r9, ror #9
 1c0:	000004e9 	andeq	r0, r0, r9, ror #9
 1c4:	000004e9 	andeq	r0, r0, r9, ror #9
 1c8:	000004e9 	andeq	r0, r0, r9, ror #9
 1cc:	000004e9 	andeq	r0, r0, r9, ror #9
 1d0:	000004e9 	andeq	r0, r0, r9, ror #9
 1d4:	000004e9 	andeq	r0, r0, r9, ror #9
 1d8:	000004e9 	andeq	r0, r0, r9, ror #9
 1dc:	000004e9 	andeq	r0, r0, r9, ror #9
 1e0:	000004e9 	andeq	r0, r0, r9, ror #9
 1e4:	000004e9 	andeq	r0, r0, r9, ror #9
 1e8:	000004e9 	andeq	r0, r0, r9, ror #9
 1ec:	000004e9 	andeq	r0, r0, r9, ror #9
 1f0:	000004e9 	andeq	r0, r0, r9, ror #9
 1f4:	000004e9 	andeq	r0, r0, r9, ror #9
 1f8:	000004e9 	andeq	r0, r0, r9, ror #9
 1fc:	000004e9 	andeq	r0, r0, r9, ror #9
 200:	000004e9 	andeq	r0, r0, r9, ror #9
 204:	000004e9 	andeq	r0, r0, r9, ror #9
 208:	000004e9 	andeq	r0, r0, r9, ror #9
 20c:	000004e9 	andeq	r0, r0, r9, ror #9
 210:	000004e9 	andeq	r0, r0, r9, ror #9
 214:	000004e9 	andeq	r0, r0, r9, ror #9
 218:	000004e9 	andeq	r0, r0, r9, ror #9
 21c:	000004e9 	andeq	r0, r0, r9, ror #9
 220:	000004e9 	andeq	r0, r0, r9, ror #9
 224:	000004e9 	andeq	r0, r0, r9, ror #9
 228:	000004e9 	andeq	r0, r0, r9, ror #9
 22c:	000004e9 	andeq	r0, r0, r9, ror #9
 230:	000004e9 	andeq	r0, r0, r9, ror #9
 234:	000004e9 	andeq	r0, r0, r9, ror #9
 238:	000004e9 	andeq	r0, r0, r9, ror #9
 23c:	000004e9 	andeq	r0, r0, r9, ror #9
 240:	000004e9 	andeq	r0, r0, r9, ror #9
 244:	000004e9 	andeq	r0, r0, r9, ror #9
 248:	000004e9 	andeq	r0, r0, r9, ror #9
 24c:	000004e9 	andeq	r0, r0, r9, ror #9
 250:	000004e9 	andeq	r0, r0, r9, ror #9
 254:	000004e9 	andeq	r0, r0, r9, ror #9
 258:	000004e9 	andeq	r0, r0, r9, ror #9
 25c:	000004e9 	andeq	r0, r0, r9, ror #9
 260:	000004e9 	andeq	r0, r0, r9, ror #9
 264:	000004e9 	andeq	r0, r0, r9, ror #9
 268:	000004e9 	andeq	r0, r0, r9, ror #9
 26c:	000004e9 	andeq	r0, r0, r9, ror #9
 270:	000004e9 	andeq	r0, r0, r9, ror #9
 274:	000004e9 	andeq	r0, r0, r9, ror #9
 278:	000004e9 	andeq	r0, r0, r9, ror #9
 27c:	000004e9 	andeq	r0, r0, r9, ror #9
 280:	000004e9 	andeq	r0, r0, r9, ror #9
 284:	000004e9 	andeq	r0, r0, r9, ror #9
 288:	000004e9 	andeq	r0, r0, r9, ror #9
 28c:	000004e9 	andeq	r0, r0, r9, ror #9
 290:	000004e9 	andeq	r0, r0, r9, ror #9
 294:	000004e9 	andeq	r0, r0, r9, ror #9
 298:	000004e9 	andeq	r0, r0, r9, ror #9
 29c:	000004e9 	andeq	r0, r0, r9, ror #9
 2a0:	000004e9 	andeq	r0, r0, r9, ror #9
 2a4:	000004e9 	andeq	r0, r0, r9, ror #9
 2a8:	000004e9 	andeq	r0, r0, r9, ror #9
 2ac:	000004e9 	andeq	r0, r0, r9, ror #9
 2b0:	000004e9 	andeq	r0, r0, r9, ror #9
 2b4:	000004e9 	andeq	r0, r0, r9, ror #9
 2b8:	000004e9 	andeq	r0, r0, r9, ror #9
 2bc:	000004e9 	andeq	r0, r0, r9, ror #9
 2c0:	000004e9 	andeq	r0, r0, r9, ror #9
 2c4:	000004e9 	andeq	r0, r0, r9, ror #9
 2c8:	000004e9 	andeq	r0, r0, r9, ror #9
 2cc:	000004e9 	andeq	r0, r0, r9, ror #9
 2d0:	000004e9 	andeq	r0, r0, r9, ror #9
 2d4:	000004e9 	andeq	r0, r0, r9, ror #9
 2d8:	000004e9 	andeq	r0, r0, r9, ror #9
 2dc:	000004e9 	andeq	r0, r0, r9, ror #9
 2e0:	000004e9 	andeq	r0, r0, r9, ror #9
 2e4:	000004e9 	andeq	r0, r0, r9, ror #9
 2e8:	000004e9 	andeq	r0, r0, r9, ror #9
 2ec:	000004e9 	andeq	r0, r0, r9, ror #9
 2f0:	000004e9 	andeq	r0, r0, r9, ror #9
 2f4:	000004e9 	andeq	r0, r0, r9, ror #9
 2f8:	000004e9 	andeq	r0, r0, r9, ror #9
 2fc:	000004e9 	andeq	r0, r0, r9, ror #9
 300:	000004e9 	andeq	r0, r0, r9, ror #9
 304:	000004e9 	andeq	r0, r0, r9, ror #9
 308:	000004e9 	andeq	r0, r0, r9, ror #9
 30c:	000004e9 	andeq	r0, r0, r9, ror #9
 310:	000004e9 	andeq	r0, r0, r9, ror #9
 314:	000004e9 	andeq	r0, r0, r9, ror #9
 318:	000004e9 	andeq	r0, r0, r9, ror #9
 31c:	000004e9 	andeq	r0, r0, r9, ror #9
 320:	000004e9 	andeq	r0, r0, r9, ror #9
 324:	000004e9 	andeq	r0, r0, r9, ror #9
 328:	000004e9 	andeq	r0, r0, r9, ror #9
 32c:	000004e9 	andeq	r0, r0, r9, ror #9
 330:	000004e9 	andeq	r0, r0, r9, ror #9
 334:	000004e9 	andeq	r0, r0, r9, ror #9
 338:	000004e9 	andeq	r0, r0, r9, ror #9
 33c:	000004e9 	andeq	r0, r0, r9, ror #9
 340:	000004e9 	andeq	r0, r0, r9, ror #9
 344:	000004e9 	andeq	r0, r0, r9, ror #9
 348:	000004e9 	andeq	r0, r0, r9, ror #9
 34c:	000004e9 	andeq	r0, r0, r9, ror #9
 350:	000004e9 	andeq	r0, r0, r9, ror #9
 354:	000004e9 	andeq	r0, r0, r9, ror #9
 358:	000004e9 	andeq	r0, r0, r9, ror #9
 35c:	000004e9 	andeq	r0, r0, r9, ror #9
 360:	000004e9 	andeq	r0, r0, r9, ror #9
 364:	000004e9 	andeq	r0, r0, r9, ror #9
 368:	000004e9 	andeq	r0, r0, r9, ror #9
 36c:	000004e9 	andeq	r0, r0, r9, ror #9
 370:	000004e9 	andeq	r0, r0, r9, ror #9
 374:	000004e9 	andeq	r0, r0, r9, ror #9
 378:	000004e9 	andeq	r0, r0, r9, ror #9
 37c:	000004e9 	andeq	r0, r0, r9, ror #9
 380:	000004e9 	andeq	r0, r0, r9, ror #9
 384:	000004e9 	andeq	r0, r0, r9, ror #9
 388:	000004e9 	andeq	r0, r0, r9, ror #9
 38c:	000004e9 	andeq	r0, r0, r9, ror #9
 390:	000004e9 	andeq	r0, r0, r9, ror #9
 394:	000004e9 	andeq	r0, r0, r9, ror #9
 398:	000004e9 	andeq	r0, r0, r9, ror #9
 39c:	000004e9 	andeq	r0, r0, r9, ror #9
 3a0:	000004e9 	andeq	r0, r0, r9, ror #9
 3a4:	000004e9 	andeq	r0, r0, r9, ror #9
 3a8:	000004e9 	andeq	r0, r0, r9, ror #9
 3ac:	000004e9 	andeq	r0, r0, r9, ror #9
 3b0:	000004e9 	andeq	r0, r0, r9, ror #9
 3b4:	000004e9 	andeq	r0, r0, r9, ror #9
 3b8:	000004e9 	andeq	r0, r0, r9, ror #9
 3bc:	000004e9 	andeq	r0, r0, r9, ror #9
 3c0:	000004e9 	andeq	r0, r0, r9, ror #9
 3c4:	000004e9 	andeq	r0, r0, r9, ror #9
 3c8:	000004e9 	andeq	r0, r0, r9, ror #9
 3cc:	000004e9 	andeq	r0, r0, r9, ror #9
 3d0:	000004e9 	andeq	r0, r0, r9, ror #9
 3d4:	000004e9 	andeq	r0, r0, r9, ror #9
 3d8:	000004e9 	andeq	r0, r0, r9, ror #9
 3dc:	000004e9 	andeq	r0, r0, r9, ror #9
 3e0:	000004e9 	andeq	r0, r0, r9, ror #9
 3e4:	000004e9 	andeq	r0, r0, r9, ror #9
 3e8:	000004e9 	andeq	r0, r0, r9, ror #9
 3ec:	000004e9 	andeq	r0, r0, r9, ror #9
 3f0:	000004e9 	andeq	r0, r0, r9, ror #9
 3f4:	000004e9 	andeq	r0, r0, r9, ror #9
 3f8:	000004e9 	andeq	r0, r0, r9, ror #9
 3fc:	ffffffff 			; <UNDEFINED> instruction: 0xffffffff

Disassembly of section .flash_config:

00000400 <.flash_config>:
 400:	ffffffff 			; <UNDEFINED> instruction: 0xffffffff
 404:	ffffffff 			; <UNDEFINED> instruction: 0xffffffff
 408:	ffffffff 			; <UNDEFINED> instruction: 0xffffffff
 40c:	fffffffe 			; <UNDEFINED> instruction: 0xfffffffe

Disassembly of section .text:

00000410 <__do_global_dtors_aux>:
     410:	b510      	push	{r4, lr}
     412:	4c05      	ldr	r4, [pc, #20]	; (428 <__do_global_dtors_aux+0x18>)
     414:	7823      	ldrb	r3, [r4, #0]
     416:	b933      	cbnz	r3, 426 <__do_global_dtors_aux+0x16>
     418:	4b04      	ldr	r3, [pc, #16]	; (42c <__do_global_dtors_aux+0x1c>)
     41a:	b113      	cbz	r3, 422 <__do_global_dtors_aux+0x12>
     41c:	4804      	ldr	r0, [pc, #16]	; (430 <__do_global_dtors_aux+0x20>)
     41e:	f3af 8000 	nop.w
     422:	2301      	movs	r3, #1
     424:	7023      	strb	r3, [r4, #0]
     426:	bd10      	pop	{r4, pc}
     428:	1fff00a4 	svcne	0x00ff00a4
     42c:	00000000 	andeq	r0, r0, r0
     430:	0000508c 	andeq	r5, r0, ip, lsl #1

00000434 <frame_dummy>:
     434:	b508      	push	{r3, lr}
     436:	4b06      	ldr	r3, [pc, #24]	; (450 <frame_dummy+0x1c>)
     438:	b11b      	cbz	r3, 442 <frame_dummy+0xe>
     43a:	4806      	ldr	r0, [pc, #24]	; (454 <frame_dummy+0x20>)
     43c:	4906      	ldr	r1, [pc, #24]	; (458 <frame_dummy+0x24>)
     43e:	f3af 8000 	nop.w
     442:	4806      	ldr	r0, [pc, #24]	; (45c <frame_dummy+0x28>)
     444:	6803      	ldr	r3, [r0, #0]
     446:	b113      	cbz	r3, 44e <frame_dummy+0x1a>
     448:	4b05      	ldr	r3, [pc, #20]	; (460 <frame_dummy+0x2c>)
     44a:	b103      	cbz	r3, 44e <frame_dummy+0x1a>
     44c:	4798      	blx	r3
     44e:	bd08      	pop	{r3, pc}
     450:	00000000 	andeq	r0, r0, r0
     454:	0000508c 	andeq	r5, r0, ip, lsl #1
     458:	1fff00a8 	svcne	0x00ff00a8
     45c:	1fff00a0 	svcne	0x00ff00a0
     460:	00000000 	andeq	r0, r0, r0

00000464 <_mainCRTStartup>:
     464:	4b15      	ldr	r3, [pc, #84]	; (4bc <_mainCRTStartup+0x58>)	// r3 = 0x20010000
     466:	2b00      	cmp	r3, #0
     468:	bf08      	it	eq
     46a:	4b13      	ldreq	r3, [pc, #76]	; (4b8 <_mainCRTStartup+0x54>)
     46c:	469d      	mov	sp, r3						// sp = 0x20010000
											// wipe out stack
     46e:	f5a3 3a80 	sub.w	sl, r3, #65536	; 0x10000			// sl = 0x20000000
     472:	2100      	movs	r1, #0						// r1 = 0
     474:	468b      	mov	fp, r1						// fp = 0
     476:	460f      	mov	r7, r1						// r7 = 0
     478:	4813      	ldr	r0, [pc, #76]	; (4c8 <_mainCRTStartup+0x64>)	// r0 = 0x1fff00a4
     47a:	4a14      	ldr	r2, [pc, #80]	; (4cc <_mainCRTStartup+0x68>)	// r2 = 0x1fff00ec
     47c:	1a12      	subs	r2, r2, r0
     47e:	f003 fa77 	bl	3970 <memset>					// 0x1fff00a4 - 0x1fff00ec is 0ed out
     482:	4b0f      	ldr	r3, [pc, #60]	; (4c0 <_mainCRTStartup+0x5c>)  // r3 = NULL
     484:	2b00      	cmp	r3, #0
     486:	d000      	beq.n	48a <_mainCRTStartup+0x26>
     488:	4798      	blx	r3
     48a:	4b0e      	ldr	r3, [pc, #56]	; (4c4 <_mainCRTStartup+0x60>)	// r3 = NULL
     48c:	2b00      	cmp	r3, #0
     48e:	d000      	beq.n	492 <_mainCRTStartup+0x2e>
     490:	4798      	blx	r3
     492:	2000      	movs	r0, #0						// r0 = 0
     494:	2100      	movs	r1, #0						// r1 = 0
     496:	0004      	movs	r4, r0						// r4 = 0
     498:	000d      	movs	r5, r1						// r5 = 0
     49a:	480d      	ldr	r0, [pc, #52]	; (4d0 <_mainCRTStartup+0x6c>)	// r0 = NULL
     49c:	2800      	cmp	r0, #0
     49e:	d002      	beq.n	4a6 <_mainCRTStartup+0x42>
     4a0:	480c      	ldr	r0, [pc, #48]	; (4d4 <_mainCRTStartup+0x70>)
     4a2:	f3af 8000 	nop.w
     4a6:	f003 fa3d 	bl	3924 <__libc_init_array>
     4aa:	0020      	movs	r0, r4
     4ac:	0029      	movs	r1, r5
     4ae:	f000 ff2f 	bl	1310 <main>
     4b2:	f003 fa11 	bl	38d8 <exit>
     4b6:	bf00      	nop
     4b8:	00080000 	andeq	r0, r8, r0
     4bc:	20010000 	andcs	r0, r1, r0
	...
     4c8:	1fff00a4 	svcne	0x00ff00a4
     4cc:	1fff00ec 	svcne	0x00ff00ec
	...

000004d8 <Reset_Handler>:
     4d8:	b672      	cpsid	i
     4da:	f000 feeb 	bl	12b4 <SystemInit>
     4de:	f000 fe83 	bl	11e8 <init_data_bss>
     4e2:	b662      	cpsie	i
     4e4:	f7ff ffbe 	bl	464 <_mainCRTStartup>

000004e8 <ADC0_IRQHandler>:
     4e8:	f7ff bffe 	b.w	4e8 <ADC0_IRQHandler>

000004ec <UART_HAL_EnableTransmitter>:
     4ec:	b480      	push	{r7}
     4ee:	b083      	sub	sp, #12
     4f0:	af00      	add	r7, sp, #0
     4f2:	6078      	str	r0, [r7, #4]
     4f4:	687b      	ldr	r3, [r7, #4]
     4f6:	3303      	adds	r3, #3
     4f8:	f103 7304 	add.w	r3, r3, #34603008	; 0x2100000
     4fc:	015b      	lsls	r3, r3, #5
     4fe:	330c      	adds	r3, #12
     500:	2201      	movs	r2, #1
     502:	701a      	strb	r2, [r3, #0]
     504:	370c      	adds	r7, #12
     506:	46bd      	mov	sp, r7
     508:	f85d 7b04 	ldr.w	r7, [sp], #4
     50c:	4770      	bx	lr
     50e:	bf00      	nop

00000510 <UART_HAL_EnableReceiver>:
     510:	b480      	push	{r7}
     512:	b083      	sub	sp, #12
     514:	af00      	add	r7, sp, #0
     516:	6078      	str	r0, [r7, #4]
     518:	687b      	ldr	r3, [r7, #4]
     51a:	3303      	adds	r3, #3
     51c:	f103 7304 	add.w	r3, r3, #34603008	; 0x2100000
     520:	015b      	lsls	r3, r3, #5
     522:	3308      	adds	r3, #8
     524:	2201      	movs	r2, #1
     526:	701a      	strb	r2, [r3, #0]
     528:	370c      	adds	r7, #12
     52a:	46bd      	mov	sp, r7
     52c:	f85d 7b04 	ldr.w	r7, [sp], #4
     530:	4770      	bx	lr
     532:	bf00      	nop

00000534 <UART_HAL_SetBitCountPerChar>:
     534:	b480      	push	{r7}
     536:	b083      	sub	sp, #12
     538:	af00      	add	r7, sp, #0
     53a:	6078      	str	r0, [r7, #4]
     53c:	460b      	mov	r3, r1
     53e:	70fb      	strb	r3, [r7, #3]
     540:	687b      	ldr	r3, [r7, #4]
     542:	3302      	adds	r3, #2
     544:	f103 7304 	add.w	r3, r3, #34603008	; 0x2100000
     548:	015b      	lsls	r3, r3, #5
     54a:	3310      	adds	r3, #16
     54c:	78fa      	ldrb	r2, [r7, #3]
     54e:	701a      	strb	r2, [r3, #0]
     550:	370c      	adds	r7, #12
     552:	46bd      	mov	sp, r7
     554:	f85d 7b04 	ldr.w	r7, [sp], #4
     558:	4770      	bx	lr
     55a:	bf00      	nop

0000055c <LPUART_HAL_SetTransmitterCmd>:
     55c:	b480      	push	{r7}
     55e:	b083      	sub	sp, #12
     560:	af00      	add	r7, sp, #0
     562:	6078      	str	r0, [r7, #4]
     564:	460b      	mov	r3, r1
     566:	70fb      	strb	r3, [r7, #3]
     568:	687b      	ldr	r3, [r7, #4]
     56a:	3308      	adds	r3, #8
     56c:	f103 7304 	add.w	r3, r3, #34603008	; 0x2100000
     570:	015b      	lsls	r3, r3, #5
     572:	334c      	adds	r3, #76	; 0x4c
     574:	78fa      	ldrb	r2, [r7, #3]
     576:	601a      	str	r2, [r3, #0]
     578:	370c      	adds	r7, #12
     57a:	46bd      	mov	sp, r7
     57c:	f85d 7b04 	ldr.w	r7, [sp], #4
     580:	4770      	bx	lr
     582:	bf00      	nop

00000584 <LPUART_HAL_SetReceiverCmd>:
     584:	b480      	push	{r7}
     586:	b083      	sub	sp, #12
     588:	af00      	add	r7, sp, #0
     58a:	6078      	str	r0, [r7, #4]
     58c:	460b      	mov	r3, r1
     58e:	70fb      	strb	r3, [r7, #3]
     590:	687b      	ldr	r3, [r7, #4]
     592:	3308      	adds	r3, #8
     594:	f103 7304 	add.w	r3, r3, #34603008	; 0x2100000
     598:	015b      	lsls	r3, r3, #5
     59a:	3348      	adds	r3, #72	; 0x48
     59c:	78fa      	ldrb	r2, [r7, #3]
     59e:	601a      	str	r2, [r3, #0]
     5a0:	370c      	adds	r7, #12
     5a2:	46bd      	mov	sp, r7
     5a4:	f85d 7b04 	ldr.w	r7, [sp], #4
     5a8:	4770      	bx	lr
     5aa:	bf00      	nop

000005ac <LPUART_HAL_SetStopBitCount>:
     5ac:	b480      	push	{r7}
     5ae:	b083      	sub	sp, #12
     5b0:	af00      	add	r7, sp, #0
     5b2:	6078      	str	r0, [r7, #4]
     5b4:	460b      	mov	r3, r1
     5b6:	70fb      	strb	r3, [r7, #3]
     5b8:	687b      	ldr	r3, [r7, #4]
     5ba:	f103 7304 	add.w	r3, r3, #34603008	; 0x2100000
     5be:	015b      	lsls	r3, r3, #5
     5c0:	3334      	adds	r3, #52	; 0x34
     5c2:	78fa      	ldrb	r2, [r7, #3]
     5c4:	601a      	str	r2, [r3, #0]
     5c6:	370c      	adds	r7, #12
     5c8:	46bd      	mov	sp, r7
     5ca:	f85d 7b04 	ldr.w	r7, [sp], #4
     5ce:	4770      	bx	lr

000005d0 <SIM_HAL_EnableClock>:
     5d0:	b480      	push	{r7}
     5d2:	b083      	sub	sp, #12
     5d4:	af00      	add	r7, sp, #0
     5d6:	6078      	str	r0, [r7, #4]
     5d8:	460b      	mov	r3, r1
     5da:	70fb      	strb	r3, [r7, #3]
     5dc:	687b      	ldr	r3, [r7, #4]
     5de:	f503 5381 	add.w	r3, r3, #4128	; 0x1020
     5e2:	3314      	adds	r3, #20
     5e4:	78fa      	ldrb	r2, [r7, #3]
     5e6:	0952      	lsrs	r2, r2, #5
     5e8:	b2d2      	uxtb	r2, r2
     5ea:	f102 4280 	add.w	r2, r2, #1073741824	; 0x40000000
     5ee:	3a03      	subs	r2, #3
     5f0:	0092      	lsls	r2, r2, #2
     5f2:	4413      	add	r3, r2
     5f4:	f103 7304 	add.w	r3, r3, #34603008	; 0x2100000
     5f8:	00da      	lsls	r2, r3, #3
     5fa:	78fb      	ldrb	r3, [r7, #3]
     5fc:	f003 031f 	and.w	r3, r3, #31
     600:	4413      	add	r3, r2
     602:	009b      	lsls	r3, r3, #2
     604:	2201      	movs	r2, #1
     606:	601a      	str	r2, [r3, #0]
     608:	370c      	adds	r7, #12
     60a:	46bd      	mov	sp, r7
     60c:	f85d 7b04 	ldr.w	r7, [sp], #4
     610:	4770      	bx	lr
     612:	bf00      	nop

00000614 <CLOCK_SYS_EnableLpuartClock>:
     614:	b580      	push	{r7, lr}
     616:	b082      	sub	sp, #8
     618:	af00      	add	r7, sp, #0
     61a:	6078      	str	r0, [r7, #4]
     61c:	4803      	ldr	r0, [pc, #12]	; (62c <CLOCK_SYS_EnableLpuartClock+0x18>)
     61e:	21aa      	movs	r1, #170	; 0xaa
     620:	f7ff ffd6 	bl	5d0 <SIM_HAL_EnableClock>
     624:	3708      	adds	r7, #8
     626:	46bd      	mov	sp, r7
     628:	bd80      	pop	{r7, pc}
     62a:	bf00      	nop
     62c:	40047000 	andmi	r7, r4, r0

00000630 <DbgConsole_Init>:
     630:	b580      	push	{r7, lr}
     632:	b08c      	sub	sp, #48	; 0x30
     634:	af00      	add	r7, sp, #0
     636:	60f8      	str	r0, [r7, #12]
     638:	60b9      	str	r1, [r7, #8]
     63a:	4613      	mov	r3, r2
     63c:	71fb      	strb	r3, [r7, #7]
     63e:	4b42      	ldr	r3, [pc, #264]	; (748 <DbgConsole_Init+0x118>)
     640:	781b      	ldrb	r3, [r3, #0]
     642:	2b00      	cmp	r3, #0
     644:	d001      	beq.n	64a <DbgConsole_Init+0x1a>
     646:	2303      	movs	r3, #3
     648:	e079      	b.n	73e <DbgConsole_Init+0x10e>
     64a:	4b3f      	ldr	r3, [pc, #252]	; (748 <DbgConsole_Init+0x118>)
     64c:	79fa      	ldrb	r2, [r7, #7]
     64e:	701a      	strb	r2, [r3, #0]
     650:	68fb      	ldr	r3, [r7, #12]
     652:	b2da      	uxtb	r2, r3
     654:	4b3c      	ldr	r3, [pc, #240]	; (748 <DbgConsole_Init+0x118>)
     656:	705a      	strb	r2, [r3, #1]
     658:	79fb      	ldrb	r3, [r7, #7]
     65a:	2b10      	cmp	r3, #16
     65c:	d002      	beq.n	664 <DbgConsole_Init+0x34>
     65e:	2b11      	cmp	r3, #17
     660:	d032      	beq.n	6c8 <DbgConsole_Init+0x98>
     662:	e065      	b.n	730 <DbgConsole_Init+0x100>
     664:	4a39      	ldr	r2, [pc, #228]	; (74c <DbgConsole_Init+0x11c>)
     666:	f107 0314 	add.w	r3, r7, #20
     66a:	ca07      	ldmia	r2, {r0, r1, r2}
     66c:	e883 0007 	stmia.w	r3, {r0, r1, r2}
     670:	68fb      	ldr	r3, [r7, #12]
     672:	009b      	lsls	r3, r3, #2
     674:	f107 0230 	add.w	r2, r7, #48	; 0x30
     678:	4413      	add	r3, r2
     67a:	f853 3c1c 	ldr.w	r3, [r3, #-28]
     67e:	62fb      	str	r3, [r7, #44]	; 0x2c
     680:	4b31      	ldr	r3, [pc, #196]	; (748 <DbgConsole_Init+0x118>)
     682:	6afa      	ldr	r2, [r7, #44]	; 0x2c
     684:	605a      	str	r2, [r3, #4]
     686:	68f8      	ldr	r0, [r7, #12]
     688:	f002 f97c 	bl	2984 <CLOCK_SYS_EnableUartClock>
     68c:	68f8      	ldr	r0, [r7, #12]
     68e:	f002 f93b 	bl	2908 <CLOCK_SYS_GetUartFreq>
     692:	62b8      	str	r0, [r7, #40]	; 0x28
     694:	6af8      	ldr	r0, [r7, #44]	; 0x2c
     696:	6ab9      	ldr	r1, [r7, #40]	; 0x28
     698:	68ba      	ldr	r2, [r7, #8]
     69a:	f000 ff89 	bl	15b0 <UART_HAL_SetBaudRate>
     69e:	6af8      	ldr	r0, [r7, #44]	; 0x2c
     6a0:	2100      	movs	r1, #0
     6a2:	f7ff ff47 	bl	534 <UART_HAL_SetBitCountPerChar>
     6a6:	6af8      	ldr	r0, [r7, #44]	; 0x2c
     6a8:	2100      	movs	r1, #0
     6aa:	f000 ffd1 	bl	1650 <UART_HAL_SetParityMode>
     6ae:	6af8      	ldr	r0, [r7, #44]	; 0x2c
     6b0:	f7ff ff1c 	bl	4ec <UART_HAL_EnableTransmitter>
     6b4:	6af8      	ldr	r0, [r7, #44]	; 0x2c
     6b6:	f7ff ff2b 	bl	510 <UART_HAL_EnableReceiver>
     6ba:	4b23      	ldr	r3, [pc, #140]	; (748 <DbgConsole_Init+0x118>)
     6bc:	4a24      	ldr	r2, [pc, #144]	; (750 <DbgConsole_Init+0x120>)
     6be:	609a      	str	r2, [r3, #8]
     6c0:	4b21      	ldr	r3, [pc, #132]	; (748 <DbgConsole_Init+0x118>)
     6c2:	4a24      	ldr	r2, [pc, #144]	; (754 <DbgConsole_Init+0x124>)
     6c4:	60da      	str	r2, [r3, #12]
     6c6:	e035      	b.n	734 <DbgConsole_Init+0x104>
     6c8:	4b23      	ldr	r3, [pc, #140]	; (758 <DbgConsole_Init+0x128>)
     6ca:	613b      	str	r3, [r7, #16]
     6cc:	68fb      	ldr	r3, [r7, #12]
     6ce:	009b      	lsls	r3, r3, #2
     6d0:	f107 0230 	add.w	r2, r7, #48	; 0x30
     6d4:	4413      	add	r3, r2
     6d6:	f853 3c20 	ldr.w	r3, [r3, #-32]
     6da:	627b      	str	r3, [r7, #36]	; 0x24
     6dc:	4b1a      	ldr	r3, [pc, #104]	; (748 <DbgConsole_Init+0x118>)
     6de:	6a7a      	ldr	r2, [r7, #36]	; 0x24
     6e0:	605a      	str	r2, [r3, #4]
     6e2:	68f8      	ldr	r0, [r7, #12]
     6e4:	f7ff ff96 	bl	614 <CLOCK_SYS_EnableLpuartClock>
     6e8:	68f8      	ldr	r0, [r7, #12]
     6ea:	f002 f8e3 	bl	28b4 <CLOCK_SYS_GetLpuartFreq>
     6ee:	6238      	str	r0, [r7, #32]
     6f0:	6a78      	ldr	r0, [r7, #36]	; 0x24
     6f2:	6a39      	ldr	r1, [r7, #32]
     6f4:	68ba      	ldr	r2, [r7, #8]
     6f6:	f001 f9ad 	bl	1a54 <LPUART_HAL_SetBaudRate>
     6fa:	6a78      	ldr	r0, [r7, #36]	; 0x24
     6fc:	2100      	movs	r1, #0
     6fe:	f001 fa43 	bl	1b88 <LPUART_HAL_SetBitCountPerChar>
     702:	6a78      	ldr	r0, [r7, #36]	; 0x24
     704:	2100      	movs	r1, #0
     706:	f001 fa65 	bl	1bd4 <LPUART_HAL_SetParityMode>
     70a:	6a78      	ldr	r0, [r7, #36]	; 0x24
     70c:	2100      	movs	r1, #0
     70e:	f7ff ff4d 	bl	5ac <LPUART_HAL_SetStopBitCount>
     712:	6a78      	ldr	r0, [r7, #36]	; 0x24
     714:	2101      	movs	r1, #1
     716:	f7ff ff21 	bl	55c <LPUART_HAL_SetTransmitterCmd>
     71a:	6a78      	ldr	r0, [r7, #36]	; 0x24
     71c:	2101      	movs	r1, #1
     71e:	f7ff ff31 	bl	584 <LPUART_HAL_SetReceiverCmd>
     722:	4b09      	ldr	r3, [pc, #36]	; (748 <DbgConsole_Init+0x118>)
     724:	4a0d      	ldr	r2, [pc, #52]	; (75c <DbgConsole_Init+0x12c>)
     726:	609a      	str	r2, [r3, #8]
     728:	4b07      	ldr	r3, [pc, #28]	; (748 <DbgConsole_Init+0x118>)
     72a:	4a0d      	ldr	r2, [pc, #52]	; (760 <DbgConsole_Init+0x130>)
     72c:	60da      	str	r2, [r3, #12]
     72e:	e001      	b.n	734 <DbgConsole_Init+0x104>
     730:	2301      	movs	r3, #1
     732:	e004      	b.n	73e <DbgConsole_Init+0x10e>
     734:	68fb      	ldr	r3, [r7, #12]
     736:	b2da      	uxtb	r2, r3
     738:	4b03      	ldr	r3, [pc, #12]	; (748 <DbgConsole_Init+0x118>)
     73a:	705a      	strb	r2, [r3, #1]
     73c:	2300      	movs	r3, #0
     73e:	4618      	mov	r0, r3
     740:	3730      	adds	r7, #48	; 0x30
     742:	46bd      	mov	sp, r7
     744:	bd80      	pop	{r7, pc}
     746:	bf00      	nop
     748:	1fff00c0 	svcne	0x00ff00c0
     74c:	000047ac 	andeq	r4, r0, ip, lsr #15
     750:	000016e5 	andeq	r1, r0, r5, ror #13
     754:	00001729 	andeq	r1, r0, r9, lsr #14
     758:	4002a000 	andmi	sl, r2, r0
     75c:	00001c11 	andeq	r1, r0, r1, lsl ip
     760:	00001c55 	andeq	r1, r0, r5, asr ip

00000764 <_write>:
     764:	b580      	push	{r7, lr}
     766:	b084      	sub	sp, #16
     768:	af00      	add	r7, sp, #0
     76a:	60f8      	str	r0, [r7, #12]
     76c:	60b9      	str	r1, [r7, #8]
     76e:	607a      	str	r2, [r7, #4]
     770:	68bb      	ldr	r3, [r7, #8]
     772:	2b00      	cmp	r3, #0
     774:	d102      	bne.n	77c <_write+0x18>
     776:	f04f 33ff 	mov.w	r3, #4294967295	; 0xffffffff
     77a:	e018      	b.n	7ae <_write+0x4a>
     77c:	68fb      	ldr	r3, [r7, #12]
     77e:	2b01      	cmp	r3, #1
     780:	d005      	beq.n	78e <_write+0x2a>
     782:	68fb      	ldr	r3, [r7, #12]
     784:	2b02      	cmp	r3, #2
     786:	d002      	beq.n	78e <_write+0x2a>
     788:	f04f 33ff 	mov.w	r3, #4294967295	; 0xffffffff
     78c:	e00f      	b.n	7ae <_write+0x4a>
     78e:	4b0a      	ldr	r3, [pc, #40]	; (7b8 <_write+0x54>)
     790:	781b      	ldrb	r3, [r3, #0]
     792:	2b00      	cmp	r3, #0
     794:	d102      	bne.n	79c <_write+0x38>
     796:	f04f 33ff 	mov.w	r3, #4294967295	; 0xffffffff
     79a:	e008      	b.n	7ae <_write+0x4a>
     79c:	4b06      	ldr	r3, [pc, #24]	; (7b8 <_write+0x54>)
     79e:	689b      	ldr	r3, [r3, #8]
     7a0:	4a05      	ldr	r2, [pc, #20]	; (7b8 <_write+0x54>)
     7a2:	6851      	ldr	r1, [r2, #4]
     7a4:	687a      	ldr	r2, [r7, #4]
     7a6:	4608      	mov	r0, r1
     7a8:	68b9      	ldr	r1, [r7, #8]
     7aa:	4798      	blx	r3
     7ac:	687b      	ldr	r3, [r7, #4]
     7ae:	4618      	mov	r0, r3
     7b0:	3710      	adds	r7, #16
     7b2:	46bd      	mov	sp, r7
     7b4:	bd80      	pop	{r7, pc}
     7b6:	bf00      	nop
     7b8:	1fff00c0 	svcne	0x00ff00c0

000007bc <_read>:
     7bc:	b580      	push	{r7, lr}
     7be:	b084      	sub	sp, #16
     7c0:	af00      	add	r7, sp, #0
     7c2:	60f8      	str	r0, [r7, #12]
     7c4:	60b9      	str	r1, [r7, #8]
     7c6:	607a      	str	r2, [r7, #4]
     7c8:	68fb      	ldr	r3, [r7, #12]
     7ca:	2b00      	cmp	r3, #0
     7cc:	d002      	beq.n	7d4 <_read+0x18>
     7ce:	f04f 33ff 	mov.w	r3, #4294967295	; 0xffffffff
     7d2:	e00f      	b.n	7f4 <_read+0x38>
     7d4:	4b09      	ldr	r3, [pc, #36]	; (7fc <_read+0x40>)
     7d6:	781b      	ldrb	r3, [r3, #0]
     7d8:	2b00      	cmp	r3, #0
     7da:	d102      	bne.n	7e2 <_read+0x26>
     7dc:	f04f 33ff 	mov.w	r3, #4294967295	; 0xffffffff
     7e0:	e008      	b.n	7f4 <_read+0x38>
     7e2:	4b06      	ldr	r3, [pc, #24]	; (7fc <_read+0x40>)
     7e4:	68db      	ldr	r3, [r3, #12]
     7e6:	4a05      	ldr	r2, [pc, #20]	; (7fc <_read+0x40>)
     7e8:	6851      	ldr	r1, [r2, #4]
     7ea:	687a      	ldr	r2, [r7, #4]
     7ec:	4608      	mov	r0, r1
     7ee:	68b9      	ldr	r1, [r7, #8]
     7f0:	4798      	blx	r3
     7f2:	687b      	ldr	r3, [r7, #4]
     7f4:	4618      	mov	r0, r3
     7f6:	3710      	adds	r7, #16
     7f8:	46bd      	mov	sp, r7
     7fa:	bd80      	pop	{r7, pc}
     7fc:	1fff00c0 	svcne	0x00ff00c0

00000800 <debug_printf>:
     800:	b40f      	push	{r0, r1, r2, r3}
     802:	b580      	push	{r7, lr}
     804:	b084      	sub	sp, #16
     806:	af02      	add	r7, sp, #8
     808:	4b0d      	ldr	r3, [pc, #52]	; (840 <debug_printf+0x40>)
     80a:	781b      	ldrb	r3, [r3, #0]
     80c:	2b00      	cmp	r3, #0
     80e:	d102      	bne.n	816 <debug_printf+0x16>
     810:	f04f 33ff 	mov.w	r3, #4294967295	; 0xffffffff
     814:	e00d      	b.n	832 <debug_printf+0x32>
     816:	f107 0314 	add.w	r3, r7, #20
     81a:	603b      	str	r3, [r7, #0]
     81c:	683b      	ldr	r3, [r7, #0]
     81e:	9300      	str	r3, [sp, #0]
     820:	2000      	movs	r0, #0
     822:	4908      	ldr	r1, [pc, #32]	; (844 <debug_printf+0x44>)
     824:	f04f 32ff 	mov.w	r2, #4294967295	; 0xffffffff
     828:	693b      	ldr	r3, [r7, #16]
     82a:	f000 f88b 	bl	944 <_doprint>
     82e:	6078      	str	r0, [r7, #4]
     830:	687b      	ldr	r3, [r7, #4]
     832:	4618      	mov	r0, r3
     834:	3708      	adds	r7, #8
     836:	46bd      	mov	sp, r7
     838:	e8bd 4080 	ldmia.w	sp!, {r7, lr}
     83c:	b004      	add	sp, #16
     83e:	4770      	bx	lr
     840:	1fff00c0 	svcne	0x00ff00c0
     844:	00000849 	andeq	r0, r0, r9, asr #16

00000848 <debug_putc>:
     848:	b580      	push	{r7, lr}
     84a:	b084      	sub	sp, #16
     84c:	af00      	add	r7, sp, #0
     84e:	6078      	str	r0, [r7, #4]
     850:	6039      	str	r1, [r7, #0]
     852:	687b      	ldr	r3, [r7, #4]
     854:	b2db      	uxtb	r3, r3
     856:	73fb      	strb	r3, [r7, #15]
     858:	4b0a      	ldr	r3, [pc, #40]	; (884 <debug_putc+0x3c>)
     85a:	781b      	ldrb	r3, [r3, #0]
     85c:	2b00      	cmp	r3, #0
     85e:	d102      	bne.n	866 <debug_putc+0x1e>
     860:	f04f 33ff 	mov.w	r3, #4294967295	; 0xffffffff
     864:	e00a      	b.n	87c <debug_putc+0x34>
     866:	4b07      	ldr	r3, [pc, #28]	; (884 <debug_putc+0x3c>)
     868:	689b      	ldr	r3, [r3, #8]
     86a:	4a06      	ldr	r2, [pc, #24]	; (884 <debug_putc+0x3c>)
     86c:	6851      	ldr	r1, [r2, #4]
     86e:	f107 020f 	add.w	r2, r7, #15
     872:	4608      	mov	r0, r1
     874:	4611      	mov	r1, r2
     876:	2201      	movs	r2, #1
     878:	4798      	blx	r3
     87a:	2300      	movs	r3, #0
     87c:	4618      	mov	r0, r3
     87e:	3710      	adds	r7, #16
     880:	46bd      	mov	sp, r7
     882:	bd80      	pop	{r7, pc}
     884:	1fff00c0 	svcne	0x00ff00c0

00000888 <debug_putchar>:
     888:	b580      	push	{r7, lr}
     88a:	b082      	sub	sp, #8
     88c:	af00      	add	r7, sp, #0
     88e:	6078      	str	r0, [r7, #4]
     890:	4b07      	ldr	r3, [pc, #28]	; (8b0 <debug_putchar+0x28>)
     892:	781b      	ldrb	r3, [r3, #0]
     894:	2b00      	cmp	r3, #0
     896:	d102      	bne.n	89e <debug_putchar+0x16>
     898:	f04f 33ff 	mov.w	r3, #4294967295	; 0xffffffff
     89c:	e004      	b.n	8a8 <debug_putchar+0x20>
     89e:	6878      	ldr	r0, [r7, #4]
     8a0:	2100      	movs	r1, #0
     8a2:	f7ff ffd1 	bl	848 <debug_putc>
     8a6:	2301      	movs	r3, #1
     8a8:	4618      	mov	r0, r3
     8aa:	3708      	adds	r7, #8
     8ac:	46bd      	mov	sp, r7
     8ae:	bd80      	pop	{r7, pc}
     8b0:	1fff00c0 	svcne	0x00ff00c0

000008b4 <debug_getchar>:
     8b4:	b580      	push	{r7, lr}
     8b6:	b082      	sub	sp, #8
     8b8:	af00      	add	r7, sp, #0
     8ba:	4b0a      	ldr	r3, [pc, #40]	; (8e4 <debug_getchar+0x30>)
     8bc:	781b      	ldrb	r3, [r3, #0]
     8be:	2b00      	cmp	r3, #0
     8c0:	d102      	bne.n	8c8 <debug_getchar+0x14>
     8c2:	f04f 33ff 	mov.w	r3, #4294967295	; 0xffffffff
     8c6:	e009      	b.n	8dc <debug_getchar+0x28>
     8c8:	4b06      	ldr	r3, [pc, #24]	; (8e4 <debug_getchar+0x30>)
     8ca:	68db      	ldr	r3, [r3, #12]
     8cc:	4a05      	ldr	r2, [pc, #20]	; (8e4 <debug_getchar+0x30>)
     8ce:	6851      	ldr	r1, [r2, #4]
     8d0:	1dfa      	adds	r2, r7, #7
     8d2:	4608      	mov	r0, r1
     8d4:	4611      	mov	r1, r2
     8d6:	2201      	movs	r2, #1
     8d8:	4798      	blx	r3
     8da:	79fb      	ldrb	r3, [r7, #7]
     8dc:	4618      	mov	r0, r3
     8de:	3708      	adds	r7, #8
     8e0:	46bd      	mov	sp, r7
     8e2:	bd80      	pop	{r7, pc}
     8e4:	1fff00c0 	svcne	0x00ff00c0

000008e8 <_sbrk>:
     8e8:	b580      	push	{r7, lr}
     8ea:	b084      	sub	sp, #16
     8ec:	af00      	add	r7, sp, #0
     8ee:	6078      	str	r0, [r7, #4]
     8f0:	4b11      	ldr	r3, [pc, #68]	; (938 <_sbrk+0x50>)
     8f2:	681b      	ldr	r3, [r3, #0]
     8f4:	2b00      	cmp	r3, #0
     8f6:	d102      	bne.n	8fe <_sbrk+0x16>
     8f8:	4b0f      	ldr	r3, [pc, #60]	; (938 <_sbrk+0x50>)
     8fa:	4a10      	ldr	r2, [pc, #64]	; (93c <_sbrk+0x54>)
     8fc:	601a      	str	r2, [r3, #0]
     8fe:	4b0e      	ldr	r3, [pc, #56]	; (938 <_sbrk+0x50>)
     900:	681b      	ldr	r3, [r3, #0]
     902:	60fb      	str	r3, [r7, #12]
     904:	4b0c      	ldr	r3, [pc, #48]	; (938 <_sbrk+0x50>)
     906:	681a      	ldr	r2, [r3, #0]
     908:	687b      	ldr	r3, [r7, #4]
     90a:	441a      	add	r2, r3
     90c:	4b0c      	ldr	r3, [pc, #48]	; (940 <_sbrk+0x58>)
     90e:	429a      	cmp	r2, r3
     910:	d907      	bls.n	922 <_sbrk+0x3a>
     912:	f002 ffdb 	bl	38cc <__errno>
     916:	4603      	mov	r3, r0
     918:	220c      	movs	r2, #12
     91a:	601a      	str	r2, [r3, #0]
     91c:	f04f 33ff 	mov.w	r3, #4294967295	; 0xffffffff
     920:	e006      	b.n	930 <_sbrk+0x48>
     922:	4b05      	ldr	r3, [pc, #20]	; (938 <_sbrk+0x50>)
     924:	681a      	ldr	r2, [r3, #0]
     926:	687b      	ldr	r3, [r7, #4]
     928:	441a      	add	r2, r3
     92a:	4b03      	ldr	r3, [pc, #12]	; (938 <_sbrk+0x50>)
     92c:	601a      	str	r2, [r3, #0]
     92e:	68fb      	ldr	r3, [r7, #12]
     930:	4618      	mov	r0, r3
     932:	3710      	adds	r7, #16
     934:	46bd      	mov	sp, r7
     936:	bd80      	pop	{r7, pc}
     938:	1fff00d0 	svcne	0x00ff00d0
     93c:	20000000 	andcs	r0, r0, r0
     940:	20002000 	andcs	r2, r0, r0

00000944 <_doprint>:
     944:	b580      	push	{r7, lr}
     946:	b0a4      	sub	sp, #144	; 0x90
     948:	af04      	add	r7, sp, #16
     94a:	60f8      	str	r0, [r7, #12]
     94c:	60b9      	str	r1, [r7, #8]
     94e:	607a      	str	r2, [r7, #4]
     950:	603b      	str	r3, [r7, #0]
     952:	2300      	movs	r3, #0
     954:	61fb      	str	r3, [r7, #28]
     956:	687b      	ldr	r3, [r7, #4]
     958:	653b      	str	r3, [r7, #80]	; 0x50
     95a:	687b      	ldr	r3, [r7, #4]
     95c:	f1b3 3fff 	cmp.w	r3, #4294967295	; 0xffffffff
     960:	d101      	bne.n	966 <_doprint+0x22>
     962:	4bb0      	ldr	r3, [pc, #704]	; (c24 <_doprint+0x2e0>)
     964:	607b      	str	r3, [r7, #4]
     966:	683b      	ldr	r3, [r7, #0]
     968:	67fb      	str	r3, [r7, #124]	; 0x7c
     96a:	e382      	b.n	1072 <_doprint+0x72e>
     96c:	6cfb      	ldr	r3, [r7, #76]	; 0x4c
     96e:	2b25      	cmp	r3, #37	; 0x25
     970:	d007      	beq.n	982 <_doprint+0x3e>
     972:	68bb      	ldr	r3, [r7, #8]
     974:	6cf8      	ldr	r0, [r7, #76]	; 0x4c
     976:	68f9      	ldr	r1, [r7, #12]
     978:	4798      	blx	r3
     97a:	69fb      	ldr	r3, [r7, #28]
     97c:	3301      	adds	r3, #1
     97e:	61fb      	str	r3, [r7, #28]
     980:	e374      	b.n	106c <_doprint+0x728>
     982:	2301      	movs	r3, #1
     984:	f887 305b 	strb.w	r3, [r7, #91]	; 0x5b
     988:	2300      	movs	r3, #0
     98a:	66fb      	str	r3, [r7, #108]	; 0x6c
     98c:	2300      	movs	r3, #0
     98e:	673b      	str	r3, [r7, #112]	; 0x70
     990:	e04d      	b.n	a2e <_doprint+0xea>
     992:	6ffb      	ldr	r3, [r7, #124]	; 0x7c
     994:	3301      	adds	r3, #1
     996:	67fb      	str	r3, [r7, #124]	; 0x7c
     998:	6ffb      	ldr	r3, [r7, #124]	; 0x7c
     99a:	781b      	ldrb	r3, [r3, #0]
     99c:	b25b      	sxtb	r3, r3
     99e:	3b20      	subs	r3, #32
     9a0:	2b10      	cmp	r3, #16
     9a2:	d83e      	bhi.n	a22 <_doprint+0xde>
     9a4:	a201      	add	r2, pc, #4	; (adr r2, 9ac <_doprint+0x68>)
     9a6:	f852 f023 	ldr.w	pc, [r2, r3, lsl #2]
     9aa:	bf00      	nop
     9ac:	00000a05 	andeq	r0, r0, r5, lsl #20
     9b0:	00000a23 	andeq	r0, r0, r3, lsr #20
     9b4:	00000a23 	andeq	r0, r0, r3, lsr #20
     9b8:	00000a19 	andeq	r0, r0, r9, lsl sl
     9bc:	00000a23 	andeq	r0, r0, r3, lsr #20
     9c0:	00000a23 	andeq	r0, r0, r3, lsr #20
     9c4:	00000a23 	andeq	r0, r0, r3, lsr #20
     9c8:	00000a23 	andeq	r0, r0, r3, lsr #20
     9cc:	00000a23 	andeq	r0, r0, r3, lsr #20
     9d0:	00000a23 	andeq	r0, r0, r3, lsr #20
     9d4:	00000a23 	andeq	r0, r0, r3, lsr #20
     9d8:	000009fb 	strdeq	r0, [r0], -fp
     9dc:	00000a23 	andeq	r0, r0, r3, lsr #20
     9e0:	000009f1 	strdeq	r0, [r0], -r1
     9e4:	00000a23 	andeq	r0, r0, r3, lsr #20
     9e8:	00000a23 	andeq	r0, r0, r3, lsr #20
     9ec:	00000a0f 	andeq	r0, r0, pc, lsl #20
     9f0:	6efb      	ldr	r3, [r7, #108]	; 0x6c
     9f2:	f043 0301 	orr.w	r3, r3, #1
     9f6:	66fb      	str	r3, [r7, #108]	; 0x6c
     9f8:	e019      	b.n	a2e <_doprint+0xea>
     9fa:	6efb      	ldr	r3, [r7, #108]	; 0x6c
     9fc:	f043 0302 	orr.w	r3, r3, #2
     a00:	66fb      	str	r3, [r7, #108]	; 0x6c
     a02:	e014      	b.n	a2e <_doprint+0xea>
     a04:	6efb      	ldr	r3, [r7, #108]	; 0x6c
     a06:	f043 0304 	orr.w	r3, r3, #4
     a0a:	66fb      	str	r3, [r7, #108]	; 0x6c
     a0c:	e00f      	b.n	a2e <_doprint+0xea>
     a0e:	6efb      	ldr	r3, [r7, #108]	; 0x6c
     a10:	f043 0308 	orr.w	r3, r3, #8
     a14:	66fb      	str	r3, [r7, #108]	; 0x6c
     a16:	e00a      	b.n	a2e <_doprint+0xea>
     a18:	6efb      	ldr	r3, [r7, #108]	; 0x6c
     a1a:	f043 0310 	orr.w	r3, r3, #16
     a1e:	66fb      	str	r3, [r7, #108]	; 0x6c
     a20:	e005      	b.n	a2e <_doprint+0xea>
     a22:	6ffb      	ldr	r3, [r7, #124]	; 0x7c
     a24:	3b01      	subs	r3, #1
     a26:	67fb      	str	r3, [r7, #124]	; 0x7c
     a28:	2301      	movs	r3, #1
     a2a:	673b      	str	r3, [r7, #112]	; 0x70
     a2c:	bf00      	nop
     a2e:	6f3b      	ldr	r3, [r7, #112]	; 0x70
     a30:	2b00      	cmp	r3, #0
     a32:	d0ae      	beq.n	992 <_doprint+0x4e>
     a34:	2300      	movs	r3, #0
     a36:	66bb      	str	r3, [r7, #104]	; 0x68
     a38:	2300      	movs	r3, #0
     a3a:	673b      	str	r3, [r7, #112]	; 0x70
     a3c:	e01b      	b.n	a76 <_doprint+0x132>
     a3e:	6ffb      	ldr	r3, [r7, #124]	; 0x7c
     a40:	3301      	adds	r3, #1
     a42:	67fb      	str	r3, [r7, #124]	; 0x7c
     a44:	6ffb      	ldr	r3, [r7, #124]	; 0x7c
     a46:	781b      	ldrb	r3, [r3, #0]
     a48:	b25b      	sxtb	r3, r3
     a4a:	64fb      	str	r3, [r7, #76]	; 0x4c
     a4c:	6cfb      	ldr	r3, [r7, #76]	; 0x4c
     a4e:	3b30      	subs	r3, #48	; 0x30
     a50:	2b09      	cmp	r3, #9
     a52:	d80a      	bhi.n	a6a <_doprint+0x126>
     a54:	6eba      	ldr	r2, [r7, #104]	; 0x68
     a56:	4613      	mov	r3, r2
     a58:	009b      	lsls	r3, r3, #2
     a5a:	4413      	add	r3, r2
     a5c:	005b      	lsls	r3, r3, #1
     a5e:	461a      	mov	r2, r3
     a60:	6cfb      	ldr	r3, [r7, #76]	; 0x4c
     a62:	4413      	add	r3, r2
     a64:	3b30      	subs	r3, #48	; 0x30
     a66:	66bb      	str	r3, [r7, #104]	; 0x68
     a68:	e005      	b.n	a76 <_doprint+0x132>
     a6a:	6ffb      	ldr	r3, [r7, #124]	; 0x7c
     a6c:	3b01      	subs	r3, #1
     a6e:	67fb      	str	r3, [r7, #124]	; 0x7c
     a70:	2301      	movs	r3, #1
     a72:	673b      	str	r3, [r7, #112]	; 0x70
     a74:	bf00      	nop
     a76:	6f3b      	ldr	r3, [r7, #112]	; 0x70
     a78:	2b00      	cmp	r3, #0
     a7a:	d0e0      	beq.n	a3e <_doprint+0xfa>
     a7c:	2306      	movs	r3, #6
     a7e:	657b      	str	r3, [r7, #84]	; 0x54
     a80:	6ffb      	ldr	r3, [r7, #124]	; 0x7c
     a82:	3301      	adds	r3, #1
     a84:	67fb      	str	r3, [r7, #124]	; 0x7c
     a86:	6ffb      	ldr	r3, [r7, #124]	; 0x7c
     a88:	781b      	ldrb	r3, [r3, #0]
     a8a:	b25b      	sxtb	r3, r3
     a8c:	2b2e      	cmp	r3, #46	; 0x2e
     a8e:	d124      	bne.n	ada <_doprint+0x196>
     a90:	2300      	movs	r3, #0
     a92:	657b      	str	r3, [r7, #84]	; 0x54
     a94:	2300      	movs	r3, #0
     a96:	673b      	str	r3, [r7, #112]	; 0x70
     a98:	e01b      	b.n	ad2 <_doprint+0x18e>
     a9a:	6ffb      	ldr	r3, [r7, #124]	; 0x7c
     a9c:	3301      	adds	r3, #1
     a9e:	67fb      	str	r3, [r7, #124]	; 0x7c
     aa0:	6ffb      	ldr	r3, [r7, #124]	; 0x7c
     aa2:	781b      	ldrb	r3, [r3, #0]
     aa4:	b25b      	sxtb	r3, r3
     aa6:	64fb      	str	r3, [r7, #76]	; 0x4c
     aa8:	6cfb      	ldr	r3, [r7, #76]	; 0x4c
     aaa:	3b30      	subs	r3, #48	; 0x30
     aac:	2b09      	cmp	r3, #9
     aae:	d80a      	bhi.n	ac6 <_doprint+0x182>
     ab0:	6d7a      	ldr	r2, [r7, #84]	; 0x54
     ab2:	4613      	mov	r3, r2
     ab4:	009b      	lsls	r3, r3, #2
     ab6:	4413      	add	r3, r2
     ab8:	005b      	lsls	r3, r3, #1
     aba:	461a      	mov	r2, r3
     abc:	6cfb      	ldr	r3, [r7, #76]	; 0x4c
     abe:	4413      	add	r3, r2
     ac0:	3b30      	subs	r3, #48	; 0x30
     ac2:	657b      	str	r3, [r7, #84]	; 0x54
     ac4:	e005      	b.n	ad2 <_doprint+0x18e>
     ac6:	6ffb      	ldr	r3, [r7, #124]	; 0x7c
     ac8:	3b01      	subs	r3, #1
     aca:	67fb      	str	r3, [r7, #124]	; 0x7c
     acc:	2301      	movs	r3, #1
     ace:	673b      	str	r3, [r7, #112]	; 0x70
     ad0:	bf00      	nop
     ad2:	6f3b      	ldr	r3, [r7, #112]	; 0x70
     ad4:	2b00      	cmp	r3, #0
     ad6:	d0e0      	beq.n	a9a <_doprint+0x156>
     ad8:	e002      	b.n	ae0 <_doprint+0x19c>
     ada:	6ffb      	ldr	r3, [r7, #124]	; 0x7c
     adc:	3b01      	subs	r3, #1
     ade:	67fb      	str	r3, [r7, #124]	; 0x7c
     ae0:	6ffb      	ldr	r3, [r7, #124]	; 0x7c
     ae2:	3301      	adds	r3, #1
     ae4:	67fb      	str	r3, [r7, #124]	; 0x7c
     ae6:	6ffb      	ldr	r3, [r7, #124]	; 0x7c
     ae8:	781b      	ldrb	r3, [r3, #0]
     aea:	b25b      	sxtb	r3, r3
     aec:	2b68      	cmp	r3, #104	; 0x68
     aee:	d004      	beq.n	afa <_doprint+0x1b6>
     af0:	2b6c      	cmp	r3, #108	; 0x6c
     af2:	d00f      	beq.n	b14 <_doprint+0x1d0>
     af4:	2b4c      	cmp	r3, #76	; 0x4c
     af6:	d01e      	beq.n	b36 <_doprint+0x1f2>
     af8:	e019      	b.n	b2e <_doprint+0x1ea>
     afa:	6ffb      	ldr	r3, [r7, #124]	; 0x7c
     afc:	3301      	adds	r3, #1
     afe:	67fb      	str	r3, [r7, #124]	; 0x7c
     b00:	6ffb      	ldr	r3, [r7, #124]	; 0x7c
     b02:	781b      	ldrb	r3, [r3, #0]
     b04:	b25b      	sxtb	r3, r3
     b06:	2b68      	cmp	r3, #104	; 0x68
     b08:	d003      	beq.n	b12 <_doprint+0x1ce>
     b0a:	6ffb      	ldr	r3, [r7, #124]	; 0x7c
     b0c:	3b01      	subs	r3, #1
     b0e:	67fb      	str	r3, [r7, #124]	; 0x7c
     b10:	e012      	b.n	b38 <_doprint+0x1f4>
     b12:	e011      	b.n	b38 <_doprint+0x1f4>
     b14:	6ffb      	ldr	r3, [r7, #124]	; 0x7c
     b16:	3301      	adds	r3, #1
     b18:	67fb      	str	r3, [r7, #124]	; 0x7c
     b1a:	6ffb      	ldr	r3, [r7, #124]	; 0x7c
     b1c:	781b      	ldrb	r3, [r3, #0]
     b1e:	b25b      	sxtb	r3, r3
     b20:	2b6c      	cmp	r3, #108	; 0x6c
     b22:	d003      	beq.n	b2c <_doprint+0x1e8>
     b24:	6ffb      	ldr	r3, [r7, #124]	; 0x7c
     b26:	3b01      	subs	r3, #1
     b28:	67fb      	str	r3, [r7, #124]	; 0x7c
     b2a:	e005      	b.n	b38 <_doprint+0x1f4>
     b2c:	e004      	b.n	b38 <_doprint+0x1f4>
     b2e:	6ffb      	ldr	r3, [r7, #124]	; 0x7c
     b30:	3b01      	subs	r3, #1
     b32:	67fb      	str	r3, [r7, #124]	; 0x7c
     b34:	e000      	b.n	b38 <_doprint+0x1f4>
     b36:	bf00      	nop
     b38:	6ffb      	ldr	r3, [r7, #124]	; 0x7c
     b3a:	3301      	adds	r3, #1
     b3c:	67fb      	str	r3, [r7, #124]	; 0x7c
     b3e:	6ffb      	ldr	r3, [r7, #124]	; 0x7c
     b40:	781b      	ldrb	r3, [r3, #0]
     b42:	b25b      	sxtb	r3, r3
     b44:	64fb      	str	r3, [r7, #76]	; 0x4c
     b46:	6cfb      	ldr	r3, [r7, #76]	; 0x4c
     b48:	3b58      	subs	r3, #88	; 0x58
     b4a:	2b20      	cmp	r3, #32
     b4c:	f200 8286 	bhi.w	105c <_doprint+0x718>
     b50:	a201      	add	r2, pc, #4	; (adr r2, b58 <_doprint+0x214>)
     b52:	f852 f023 	ldr.w	pc, [r2, r3, lsl #2]
     b56:	bf00      	nop
     b58:	00000cff 	strdeq	r0, [r0], -pc	; <UNPREDICTABLE>
     b5c:	0000105d 	andeq	r1, r0, sp, asr r0
     b60:	0000105d 	andeq	r1, r0, sp, asr r0
     b64:	0000105d 	andeq	r1, r0, sp, asr r0
     b68:	0000105d 	andeq	r1, r0, sp, asr r0
     b6c:	0000105d 	andeq	r1, r0, sp, asr r0
     b70:	0000105d 	andeq	r1, r0, sp, asr r0
     b74:	0000105d 	andeq	r1, r0, sp, asr r0
     b78:	0000105d 	andeq	r1, r0, sp, asr r0
     b7c:	0000105d 	andeq	r1, r0, sp, asr r0
     b80:	00000e63 	andeq	r0, r0, r3, ror #28
     b84:	00000f97 	muleq	r0, r7, pc	; <UNPREDICTABLE>
     b88:	00000bdd 	ldrdeq	r0, [r0], -sp
     b8c:	0000105d 	andeq	r1, r0, sp, asr r0
     b90:	0000105d 	andeq	r1, r0, sp, asr r0
     b94:	0000105d 	andeq	r1, r0, sp, asr r0
     b98:	0000105d 	andeq	r1, r0, sp, asr r0
     b9c:	00000bdd 	ldrdeq	r0, [r0], -sp
     ba0:	0000105d 	andeq	r1, r0, sp, asr r0
     ba4:	0000105d 	andeq	r1, r0, sp, asr r0
     ba8:	0000105d 	andeq	r1, r0, sp, asr r0
     bac:	0000105d 	andeq	r1, r0, sp, asr r0
     bb0:	00001047 	andeq	r1, r0, r7, asr #32
     bb4:	00000e37 	andeq	r0, r0, r7, lsr lr
     bb8:	00000e8f 	andeq	r0, r0, pc, lsl #29
     bbc:	0000105d 	andeq	r1, r0, sp, asr r0
     bc0:	0000105d 	andeq	r1, r0, sp, asr r0
     bc4:	00000fb9 			; <UNDEFINED> instruction: 0x00000fb9
     bc8:	0000105d 	andeq	r1, r0, sp, asr r0
     bcc:	00000ec9 	andeq	r0, r0, r9, asr #29
     bd0:	0000105d 	andeq	r1, r0, sp, asr r0
     bd4:	0000105d 	andeq	r1, r0, sp, asr r0
     bd8:	00000cf9 	strdeq	r0, [r0], -r9
     bdc:	f8d7 3088 	ldr.w	r3, [r7, #136]	; 0x88
     be0:	1d1a      	adds	r2, r3, #4
     be2:	f8c7 2088 	str.w	r2, [r7, #136]	; 0x88
     be6:	681b      	ldr	r3, [r3, #0]
     be8:	61bb      	str	r3, [r7, #24]
     bea:	f107 0220 	add.w	r2, r7, #32
     bee:	f107 0318 	add.w	r3, r7, #24
     bf2:	f897 105b 	ldrb.w	r1, [r7, #91]	; 0x5b
     bf6:	9100      	str	r1, [sp, #0]
     bf8:	4610      	mov	r0, r2
     bfa:	4619      	mov	r1, r3
     bfc:	2201      	movs	r2, #1
     bfe:	230a      	movs	r3, #10
     c00:	f000 fa4a 	bl	1098 <mknumstr>
     c04:	6778      	str	r0, [r7, #116]	; 0x74
     c06:	f107 0220 	add.w	r2, r7, #32
     c0a:	6f7b      	ldr	r3, [r7, #116]	; 0x74
     c0c:	4413      	add	r3, r2
     c0e:	67bb      	str	r3, [r7, #120]	; 0x78
     c10:	69bb      	ldr	r3, [r7, #24]
     c12:	2b00      	cmp	r3, #0
     c14:	da08      	bge.n	c28 <_doprint+0x2e4>
     c16:	232d      	movs	r3, #45	; 0x2d
     c18:	667b      	str	r3, [r7, #100]	; 0x64
     c1a:	6f7b      	ldr	r3, [r7, #116]	; 0x74
     c1c:	3301      	adds	r3, #1
     c1e:	677b      	str	r3, [r7, #116]	; 0x74
     c20:	e01a      	b.n	c58 <_doprint+0x314>
     c22:	bf00      	nop
     c24:	7ffffffe 	svcvc	0x00fffffe
     c28:	6efb      	ldr	r3, [r7, #108]	; 0x6c
     c2a:	f003 0302 	and.w	r3, r3, #2
     c2e:	2b00      	cmp	r3, #0
     c30:	d005      	beq.n	c3e <_doprint+0x2fa>
     c32:	232b      	movs	r3, #43	; 0x2b
     c34:	667b      	str	r3, [r7, #100]	; 0x64
     c36:	6f7b      	ldr	r3, [r7, #116]	; 0x74
     c38:	3301      	adds	r3, #1
     c3a:	677b      	str	r3, [r7, #116]	; 0x74
     c3c:	e00c      	b.n	c58 <_doprint+0x314>
     c3e:	6efb      	ldr	r3, [r7, #108]	; 0x6c
     c40:	f003 0304 	and.w	r3, r3, #4
     c44:	2b00      	cmp	r3, #0
     c46:	d005      	beq.n	c54 <_doprint+0x310>
     c48:	2320      	movs	r3, #32
     c4a:	667b      	str	r3, [r7, #100]	; 0x64
     c4c:	6f7b      	ldr	r3, [r7, #116]	; 0x74
     c4e:	3301      	adds	r3, #1
     c50:	677b      	str	r3, [r7, #116]	; 0x74
     c52:	e001      	b.n	c58 <_doprint+0x314>
     c54:	2300      	movs	r3, #0
     c56:	667b      	str	r3, [r7, #100]	; 0x64
     c58:	2300      	movs	r3, #0
     c5a:	663b      	str	r3, [r7, #96]	; 0x60
     c5c:	6efb      	ldr	r3, [r7, #108]	; 0x6c
     c5e:	f003 0308 	and.w	r3, r3, #8
     c62:	2b00      	cmp	r3, #0
     c64:	d01b      	beq.n	c9e <_doprint+0x35a>
     c66:	6e7b      	ldr	r3, [r7, #100]	; 0x64
     c68:	2b00      	cmp	r3, #0
     c6a:	d006      	beq.n	c7a <_doprint+0x336>
     c6c:	68bb      	ldr	r3, [r7, #8]
     c6e:	6e78      	ldr	r0, [r7, #100]	; 0x64
     c70:	68f9      	ldr	r1, [r7, #12]
     c72:	4798      	blx	r3
     c74:	69fb      	ldr	r3, [r7, #28]
     c76:	3301      	adds	r3, #1
     c78:	61fb      	str	r3, [r7, #28]
     c7a:	2301      	movs	r3, #1
     c7c:	663b      	str	r3, [r7, #96]	; 0x60
     c7e:	6eba      	ldr	r2, [r7, #104]	; 0x68
     c80:	f107 031c 	add.w	r3, r7, #28
     c84:	68b9      	ldr	r1, [r7, #8]
     c86:	9100      	str	r1, [sp, #0]
     c88:	68f9      	ldr	r1, [r7, #12]
     c8a:	9101      	str	r1, [sp, #4]
     c8c:	1d39      	adds	r1, r7, #4
     c8e:	9102      	str	r1, [sp, #8]
     c90:	2030      	movs	r0, #48	; 0x30
     c92:	6f79      	ldr	r1, [r7, #116]	; 0x74
     c94:	f000 fa88 	bl	11a8 <fput_pad>
     c98:	6ebb      	ldr	r3, [r7, #104]	; 0x68
     c9a:	677b      	str	r3, [r7, #116]	; 0x74
     c9c:	e01d      	b.n	cda <_doprint+0x396>
     c9e:	6efb      	ldr	r3, [r7, #108]	; 0x6c
     ca0:	f003 0301 	and.w	r3, r3, #1
     ca4:	2b00      	cmp	r3, #0
     ca6:	d118      	bne.n	cda <_doprint+0x396>
     ca8:	6eba      	ldr	r2, [r7, #104]	; 0x68
     caa:	f107 031c 	add.w	r3, r7, #28
     cae:	68b9      	ldr	r1, [r7, #8]
     cb0:	9100      	str	r1, [sp, #0]
     cb2:	68f9      	ldr	r1, [r7, #12]
     cb4:	9101      	str	r1, [sp, #4]
     cb6:	1d39      	adds	r1, r7, #4
     cb8:	9102      	str	r1, [sp, #8]
     cba:	2020      	movs	r0, #32
     cbc:	6f79      	ldr	r1, [r7, #116]	; 0x74
     cbe:	f000 fa73 	bl	11a8 <fput_pad>
     cc2:	6e7b      	ldr	r3, [r7, #100]	; 0x64
     cc4:	2b00      	cmp	r3, #0
     cc6:	d006      	beq.n	cd6 <_doprint+0x392>
     cc8:	68bb      	ldr	r3, [r7, #8]
     cca:	6e78      	ldr	r0, [r7, #100]	; 0x64
     ccc:	68f9      	ldr	r1, [r7, #12]
     cce:	4798      	blx	r3
     cd0:	69fb      	ldr	r3, [r7, #28]
     cd2:	3301      	adds	r3, #1
     cd4:	61fb      	str	r3, [r7, #28]
     cd6:	2301      	movs	r3, #1
     cd8:	663b      	str	r3, [r7, #96]	; 0x60
     cda:	6e3b      	ldr	r3, [r7, #96]	; 0x60
     cdc:	2b00      	cmp	r3, #0
     cde:	d10a      	bne.n	cf6 <_doprint+0x3b2>
     ce0:	6e7b      	ldr	r3, [r7, #100]	; 0x64
     ce2:	2b00      	cmp	r3, #0
     ce4:	d007      	beq.n	cf6 <_doprint+0x3b2>
     ce6:	68bb      	ldr	r3, [r7, #8]
     ce8:	6e78      	ldr	r0, [r7, #100]	; 0x64
     cea:	68f9      	ldr	r1, [r7, #12]
     cec:	4798      	blx	r3
     cee:	69fb      	ldr	r3, [r7, #28]
     cf0:	3301      	adds	r3, #1
     cf2:	61fb      	str	r3, [r7, #28]
     cf4:	e12a      	b.n	f4c <_doprint+0x608>
     cf6:	e129      	b.n	f4c <_doprint+0x608>
     cf8:	2300      	movs	r3, #0
     cfa:	f887 305b 	strb.w	r3, [r7, #91]	; 0x5b
     cfe:	f8d7 3088 	ldr.w	r3, [r7, #136]	; 0x88
     d02:	1d1a      	adds	r2, r3, #4
     d04:	f8c7 2088 	str.w	r2, [r7, #136]	; 0x88
     d08:	681b      	ldr	r3, [r3, #0]
     d0a:	617b      	str	r3, [r7, #20]
     d0c:	f107 0220 	add.w	r2, r7, #32
     d10:	f107 0314 	add.w	r3, r7, #20
     d14:	f897 105b 	ldrb.w	r1, [r7, #91]	; 0x5b
     d18:	9100      	str	r1, [sp, #0]
     d1a:	4610      	mov	r0, r2
     d1c:	4619      	mov	r1, r3
     d1e:	2200      	movs	r2, #0
     d20:	2310      	movs	r3, #16
     d22:	f000 f9b9 	bl	1098 <mknumstr>
     d26:	6778      	str	r0, [r7, #116]	; 0x74
     d28:	f107 0220 	add.w	r2, r7, #32
     d2c:	6f7b      	ldr	r3, [r7, #116]	; 0x74
     d2e:	4413      	add	r3, r2
     d30:	67bb      	str	r3, [r7, #120]	; 0x78
     d32:	2300      	movs	r3, #0
     d34:	663b      	str	r3, [r7, #96]	; 0x60
     d36:	6efb      	ldr	r3, [r7, #108]	; 0x6c
     d38:	f003 0308 	and.w	r3, r3, #8
     d3c:	2b00      	cmp	r3, #0
     d3e:	d028      	beq.n	d92 <_doprint+0x44e>
     d40:	6efb      	ldr	r3, [r7, #108]	; 0x6c
     d42:	f003 0310 	and.w	r3, r3, #16
     d46:	2b00      	cmp	r3, #0
     d48:	d013      	beq.n	d72 <_doprint+0x42e>
     d4a:	68bb      	ldr	r3, [r7, #8]
     d4c:	2030      	movs	r0, #48	; 0x30
     d4e:	68f9      	ldr	r1, [r7, #12]
     d50:	4798      	blx	r3
     d52:	f897 305b 	ldrb.w	r3, [r7, #91]	; 0x5b
     d56:	2b00      	cmp	r3, #0
     d58:	d001      	beq.n	d5e <_doprint+0x41a>
     d5a:	2358      	movs	r3, #88	; 0x58
     d5c:	e000      	b.n	d60 <_doprint+0x41c>
     d5e:	2378      	movs	r3, #120	; 0x78
     d60:	68ba      	ldr	r2, [r7, #8]
     d62:	4618      	mov	r0, r3
     d64:	68f9      	ldr	r1, [r7, #12]
     d66:	4790      	blx	r2
     d68:	69fb      	ldr	r3, [r7, #28]
     d6a:	3302      	adds	r3, #2
     d6c:	61fb      	str	r3, [r7, #28]
     d6e:	2301      	movs	r3, #1
     d70:	663b      	str	r3, [r7, #96]	; 0x60
     d72:	6eba      	ldr	r2, [r7, #104]	; 0x68
     d74:	f107 031c 	add.w	r3, r7, #28
     d78:	68b9      	ldr	r1, [r7, #8]
     d7a:	9100      	str	r1, [sp, #0]
     d7c:	68f9      	ldr	r1, [r7, #12]
     d7e:	9101      	str	r1, [sp, #4]
     d80:	1d39      	adds	r1, r7, #4
     d82:	9102      	str	r1, [sp, #8]
     d84:	2030      	movs	r0, #48	; 0x30
     d86:	6f79      	ldr	r1, [r7, #116]	; 0x74
     d88:	f000 fa0e 	bl	11a8 <fput_pad>
     d8c:	6ebb      	ldr	r3, [r7, #104]	; 0x68
     d8e:	677b      	str	r3, [r7, #116]	; 0x74
     d90:	e032      	b.n	df8 <_doprint+0x4b4>
     d92:	6efb      	ldr	r3, [r7, #108]	; 0x6c
     d94:	f003 0301 	and.w	r3, r3, #1
     d98:	2b00      	cmp	r3, #0
     d9a:	d12d      	bne.n	df8 <_doprint+0x4b4>
     d9c:	6efb      	ldr	r3, [r7, #108]	; 0x6c
     d9e:	f003 0310 	and.w	r3, r3, #16
     da2:	2b00      	cmp	r3, #0
     da4:	d002      	beq.n	dac <_doprint+0x468>
     da6:	6f7b      	ldr	r3, [r7, #116]	; 0x74
     da8:	3302      	adds	r3, #2
     daa:	677b      	str	r3, [r7, #116]	; 0x74
     dac:	6eba      	ldr	r2, [r7, #104]	; 0x68
     dae:	f107 031c 	add.w	r3, r7, #28
     db2:	68b9      	ldr	r1, [r7, #8]
     db4:	9100      	str	r1, [sp, #0]
     db6:	68f9      	ldr	r1, [r7, #12]
     db8:	9101      	str	r1, [sp, #4]
     dba:	1d39      	adds	r1, r7, #4
     dbc:	9102      	str	r1, [sp, #8]
     dbe:	2020      	movs	r0, #32
     dc0:	6f79      	ldr	r1, [r7, #116]	; 0x74
     dc2:	f000 f9f1 	bl	11a8 <fput_pad>
     dc6:	6efb      	ldr	r3, [r7, #108]	; 0x6c
     dc8:	f003 0310 	and.w	r3, r3, #16
     dcc:	2b00      	cmp	r3, #0
     dce:	d013      	beq.n	df8 <_doprint+0x4b4>
     dd0:	68bb      	ldr	r3, [r7, #8]
     dd2:	2030      	movs	r0, #48	; 0x30
     dd4:	68f9      	ldr	r1, [r7, #12]
     dd6:	4798      	blx	r3
     dd8:	f897 305b 	ldrb.w	r3, [r7, #91]	; 0x5b
     ddc:	2b00      	cmp	r3, #0
     dde:	d001      	beq.n	de4 <_doprint+0x4a0>
     de0:	2358      	movs	r3, #88	; 0x58
     de2:	e000      	b.n	de6 <_doprint+0x4a2>
     de4:	2378      	movs	r3, #120	; 0x78
     de6:	68ba      	ldr	r2, [r7, #8]
     de8:	4618      	mov	r0, r3
     dea:	68f9      	ldr	r1, [r7, #12]
     dec:	4790      	blx	r2
     dee:	69fb      	ldr	r3, [r7, #28]
     df0:	3302      	adds	r3, #2
     df2:	61fb      	str	r3, [r7, #28]
     df4:	2301      	movs	r3, #1
     df6:	663b      	str	r3, [r7, #96]	; 0x60
     df8:	6efb      	ldr	r3, [r7, #108]	; 0x6c
     dfa:	f003 0310 	and.w	r3, r3, #16
     dfe:	2b00      	cmp	r3, #0
     e00:	d018      	beq.n	e34 <_doprint+0x4f0>
     e02:	6e3b      	ldr	r3, [r7, #96]	; 0x60
     e04:	2b00      	cmp	r3, #0
     e06:	d115      	bne.n	e34 <_doprint+0x4f0>
     e08:	68bb      	ldr	r3, [r7, #8]
     e0a:	2030      	movs	r0, #48	; 0x30
     e0c:	68f9      	ldr	r1, [r7, #12]
     e0e:	4798      	blx	r3
     e10:	f897 305b 	ldrb.w	r3, [r7, #91]	; 0x5b
     e14:	2b00      	cmp	r3, #0
     e16:	d001      	beq.n	e1c <_doprint+0x4d8>
     e18:	2358      	movs	r3, #88	; 0x58
     e1a:	e000      	b.n	e1e <_doprint+0x4da>
     e1c:	2378      	movs	r3, #120	; 0x78
     e1e:	68ba      	ldr	r2, [r7, #8]
     e20:	4618      	mov	r0, r3
     e22:	68f9      	ldr	r1, [r7, #12]
     e24:	4790      	blx	r2
     e26:	69fb      	ldr	r3, [r7, #28]
     e28:	3302      	adds	r3, #2
     e2a:	61fb      	str	r3, [r7, #28]
     e2c:	6f7b      	ldr	r3, [r7, #116]	; 0x74
     e2e:	3302      	adds	r3, #2
     e30:	677b      	str	r3, [r7, #116]	; 0x74
     e32:	e08b      	b.n	f4c <_doprint+0x608>
     e34:	e08a      	b.n	f4c <_doprint+0x608>
     e36:	f8d7 3088 	ldr.w	r3, [r7, #136]	; 0x88
     e3a:	1d1a      	adds	r2, r3, #4
     e3c:	f8c7 2088 	str.w	r2, [r7, #136]	; 0x88
     e40:	681b      	ldr	r3, [r3, #0]
     e42:	617b      	str	r3, [r7, #20]
     e44:	f107 0220 	add.w	r2, r7, #32
     e48:	f107 0314 	add.w	r3, r7, #20
     e4c:	f897 105b 	ldrb.w	r1, [r7, #91]	; 0x5b
     e50:	9100      	str	r1, [sp, #0]
     e52:	4610      	mov	r0, r2
     e54:	4619      	mov	r1, r3
     e56:	2200      	movs	r2, #0
     e58:	2308      	movs	r3, #8
     e5a:	f000 f91d 	bl	1098 <mknumstr>
     e5e:	6778      	str	r0, [r7, #116]	; 0x74
     e60:	e047      	b.n	ef2 <_doprint+0x5ae>
     e62:	f8d7 3088 	ldr.w	r3, [r7, #136]	; 0x88
     e66:	1d1a      	adds	r2, r3, #4
     e68:	f8c7 2088 	str.w	r2, [r7, #136]	; 0x88
     e6c:	681b      	ldr	r3, [r3, #0]
     e6e:	617b      	str	r3, [r7, #20]
     e70:	f107 0220 	add.w	r2, r7, #32
     e74:	f107 0314 	add.w	r3, r7, #20
     e78:	f897 105b 	ldrb.w	r1, [r7, #91]	; 0x5b
     e7c:	9100      	str	r1, [sp, #0]
     e7e:	4610      	mov	r0, r2
     e80:	4619      	mov	r1, r3
     e82:	2200      	movs	r2, #0
     e84:	2302      	movs	r3, #2
     e86:	f000 f907 	bl	1098 <mknumstr>
     e8a:	6778      	str	r0, [r7, #116]	; 0x74
     e8c:	e031      	b.n	ef2 <_doprint+0x5ae>
     e8e:	f8d7 3088 	ldr.w	r3, [r7, #136]	; 0x88
     e92:	1d1a      	adds	r2, r3, #4
     e94:	f8c7 2088 	str.w	r2, [r7, #136]	; 0x88
     e98:	681b      	ldr	r3, [r3, #0]
     e9a:	617b      	str	r3, [r7, #20]
     e9c:	f8d7 3088 	ldr.w	r3, [r7, #136]	; 0x88
     ea0:	1d1a      	adds	r2, r3, #4
     ea2:	f8c7 2088 	str.w	r2, [r7, #136]	; 0x88
     ea6:	681b      	ldr	r3, [r3, #0]
     ea8:	617b      	str	r3, [r7, #20]
     eaa:	f107 0220 	add.w	r2, r7, #32
     eae:	f107 0314 	add.w	r3, r7, #20
     eb2:	f897 105b 	ldrb.w	r1, [r7, #91]	; 0x5b
     eb6:	9100      	str	r1, [sp, #0]
     eb8:	4610      	mov	r0, r2
     eba:	4619      	mov	r1, r3
     ebc:	2200      	movs	r2, #0
     ebe:	2310      	movs	r3, #16
     ec0:	f000 f8ea 	bl	1098 <mknumstr>
     ec4:	6778      	str	r0, [r7, #116]	; 0x74
     ec6:	e014      	b.n	ef2 <_doprint+0x5ae>
     ec8:	f8d7 3088 	ldr.w	r3, [r7, #136]	; 0x88
     ecc:	1d1a      	adds	r2, r3, #4
     ece:	f8c7 2088 	str.w	r2, [r7, #136]	; 0x88
     ed2:	681b      	ldr	r3, [r3, #0]
     ed4:	617b      	str	r3, [r7, #20]
     ed6:	f107 0220 	add.w	r2, r7, #32
     eda:	f107 0314 	add.w	r3, r7, #20
     ede:	f897 105b 	ldrb.w	r1, [r7, #91]	; 0x5b
     ee2:	9100      	str	r1, [sp, #0]
     ee4:	4610      	mov	r0, r2
     ee6:	4619      	mov	r1, r3
     ee8:	2200      	movs	r2, #0
     eea:	230a      	movs	r3, #10
     eec:	f000 f8d4 	bl	1098 <mknumstr>
     ef0:	6778      	str	r0, [r7, #116]	; 0x74
     ef2:	f107 0220 	add.w	r2, r7, #32
     ef6:	6f7b      	ldr	r3, [r7, #116]	; 0x74
     ef8:	4413      	add	r3, r2
     efa:	67bb      	str	r3, [r7, #120]	; 0x78
     efc:	6efb      	ldr	r3, [r7, #108]	; 0x6c
     efe:	f003 0308 	and.w	r3, r3, #8
     f02:	2b00      	cmp	r3, #0
     f04:	d00f      	beq.n	f26 <_doprint+0x5e2>
     f06:	6eba      	ldr	r2, [r7, #104]	; 0x68
     f08:	f107 031c 	add.w	r3, r7, #28
     f0c:	68b9      	ldr	r1, [r7, #8]
     f0e:	9100      	str	r1, [sp, #0]
     f10:	68f9      	ldr	r1, [r7, #12]
     f12:	9101      	str	r1, [sp, #4]
     f14:	1d39      	adds	r1, r7, #4
     f16:	9102      	str	r1, [sp, #8]
     f18:	2030      	movs	r0, #48	; 0x30
     f1a:	6f79      	ldr	r1, [r7, #116]	; 0x74
     f1c:	f000 f944 	bl	11a8 <fput_pad>
     f20:	6ebb      	ldr	r3, [r7, #104]	; 0x68
     f22:	677b      	str	r3, [r7, #116]	; 0x74
     f24:	e012      	b.n	f4c <_doprint+0x608>
     f26:	6efb      	ldr	r3, [r7, #108]	; 0x6c
     f28:	f003 0301 	and.w	r3, r3, #1
     f2c:	2b00      	cmp	r3, #0
     f2e:	d10d      	bne.n	f4c <_doprint+0x608>
     f30:	6eba      	ldr	r2, [r7, #104]	; 0x68
     f32:	f107 031c 	add.w	r3, r7, #28
     f36:	68b9      	ldr	r1, [r7, #8]
     f38:	9100      	str	r1, [sp, #0]
     f3a:	68f9      	ldr	r1, [r7, #12]
     f3c:	9101      	str	r1, [sp, #4]
     f3e:	1d39      	adds	r1, r7, #4
     f40:	9102      	str	r1, [sp, #8]
     f42:	2020      	movs	r0, #32
     f44:	6f79      	ldr	r1, [r7, #116]	; 0x74
     f46:	f000 f92f 	bl	11a8 <fput_pad>
     f4a:	e00c      	b.n	f66 <_doprint+0x622>
     f4c:	e00b      	b.n	f66 <_doprint+0x622>
     f4e:	6fbb      	ldr	r3, [r7, #120]	; 0x78
     f50:	1e5a      	subs	r2, r3, #1
     f52:	67ba      	str	r2, [r7, #120]	; 0x78
     f54:	781b      	ldrb	r3, [r3, #0]
     f56:	b25a      	sxtb	r2, r3
     f58:	68bb      	ldr	r3, [r7, #8]
     f5a:	4610      	mov	r0, r2
     f5c:	68f9      	ldr	r1, [r7, #12]
     f5e:	4798      	blx	r3
     f60:	69fb      	ldr	r3, [r7, #28]
     f62:	3301      	adds	r3, #1
     f64:	61fb      	str	r3, [r7, #28]
     f66:	6fbb      	ldr	r3, [r7, #120]	; 0x78
     f68:	781b      	ldrb	r3, [r3, #0]
     f6a:	2b00      	cmp	r3, #0
     f6c:	d1ef      	bne.n	f4e <_doprint+0x60a>
     f6e:	6efb      	ldr	r3, [r7, #108]	; 0x6c
     f70:	f003 0301 	and.w	r3, r3, #1
     f74:	2b00      	cmp	r3, #0
     f76:	d00d      	beq.n	f94 <_doprint+0x650>
     f78:	6eba      	ldr	r2, [r7, #104]	; 0x68
     f7a:	f107 031c 	add.w	r3, r7, #28
     f7e:	68b9      	ldr	r1, [r7, #8]
     f80:	9100      	str	r1, [sp, #0]
     f82:	68f9      	ldr	r1, [r7, #12]
     f84:	9101      	str	r1, [sp, #4]
     f86:	1d39      	adds	r1, r7, #4
     f88:	9102      	str	r1, [sp, #8]
     f8a:	2020      	movs	r0, #32
     f8c:	6f79      	ldr	r1, [r7, #116]	; 0x74
     f8e:	f000 f90b 	bl	11a8 <fput_pad>
     f92:	e06b      	b.n	106c <_doprint+0x728>
     f94:	e06a      	b.n	106c <_doprint+0x728>
     f96:	f8d7 3088 	ldr.w	r3, [r7, #136]	; 0x88
     f9a:	1d1a      	adds	r2, r3, #4
     f9c:	f8c7 2088 	str.w	r2, [r7, #136]	; 0x88
     fa0:	681b      	ldr	r3, [r3, #0]
     fa2:	b2db      	uxtb	r3, r3
     fa4:	b25b      	sxtb	r3, r3
     fa6:	64bb      	str	r3, [r7, #72]	; 0x48
     fa8:	68bb      	ldr	r3, [r7, #8]
     faa:	6cb8      	ldr	r0, [r7, #72]	; 0x48
     fac:	68f9      	ldr	r1, [r7, #12]
     fae:	4798      	blx	r3
     fb0:	69fb      	ldr	r3, [r7, #28]
     fb2:	3301      	adds	r3, #1
     fb4:	61fb      	str	r3, [r7, #28]
     fb6:	e059      	b.n	106c <_doprint+0x728>
     fb8:	f8d7 3088 	ldr.w	r3, [r7, #136]	; 0x88
     fbc:	1d1a      	adds	r2, r3, #4
     fbe:	f8c7 2088 	str.w	r2, [r7, #136]	; 0x88
     fc2:	681b      	ldr	r3, [r3, #0]
     fc4:	65fb      	str	r3, [r7, #92]	; 0x5c
     fc6:	6dfb      	ldr	r3, [r7, #92]	; 0x5c
     fc8:	2b00      	cmp	r3, #0
     fca:	d03b      	beq.n	1044 <_doprint+0x700>
     fcc:	6df8      	ldr	r0, [r7, #92]	; 0x5c
     fce:	f002 fd7f 	bl	3ad0 <strlen>
     fd2:	4603      	mov	r3, r0
     fd4:	677b      	str	r3, [r7, #116]	; 0x74
     fd6:	6efb      	ldr	r3, [r7, #108]	; 0x6c
     fd8:	f003 0301 	and.w	r3, r3, #1
     fdc:	2b00      	cmp	r3, #0
     fde:	d10d      	bne.n	ffc <_doprint+0x6b8>
     fe0:	6eba      	ldr	r2, [r7, #104]	; 0x68
     fe2:	f107 031c 	add.w	r3, r7, #28
     fe6:	68b9      	ldr	r1, [r7, #8]
     fe8:	9100      	str	r1, [sp, #0]
     fea:	68f9      	ldr	r1, [r7, #12]
     fec:	9101      	str	r1, [sp, #4]
     fee:	1d39      	adds	r1, r7, #4
     ff0:	9102      	str	r1, [sp, #8]
     ff2:	2020      	movs	r0, #32
     ff4:	6f79      	ldr	r1, [r7, #116]	; 0x74
     ff6:	f000 f8d7 	bl	11a8 <fput_pad>
     ffa:	e00c      	b.n	1016 <_doprint+0x6d2>
     ffc:	e00b      	b.n	1016 <_doprint+0x6d2>
     ffe:	6dfb      	ldr	r3, [r7, #92]	; 0x5c
    1000:	1c5a      	adds	r2, r3, #1
    1002:	65fa      	str	r2, [r7, #92]	; 0x5c
    1004:	781b      	ldrb	r3, [r3, #0]
    1006:	b25a      	sxtb	r2, r3
    1008:	68bb      	ldr	r3, [r7, #8]
    100a:	4610      	mov	r0, r2
    100c:	68f9      	ldr	r1, [r7, #12]
    100e:	4798      	blx	r3
    1010:	69fb      	ldr	r3, [r7, #28]
    1012:	3301      	adds	r3, #1
    1014:	61fb      	str	r3, [r7, #28]
    1016:	6dfb      	ldr	r3, [r7, #92]	; 0x5c
    1018:	781b      	ldrb	r3, [r3, #0]
    101a:	2b00      	cmp	r3, #0
    101c:	d1ef      	bne.n	ffe <_doprint+0x6ba>
    101e:	6efb      	ldr	r3, [r7, #108]	; 0x6c
    1020:	f003 0301 	and.w	r3, r3, #1
    1024:	2b00      	cmp	r3, #0
    1026:	d00d      	beq.n	1044 <_doprint+0x700>
    1028:	6eba      	ldr	r2, [r7, #104]	; 0x68
    102a:	f107 031c 	add.w	r3, r7, #28
    102e:	68b9      	ldr	r1, [r7, #8]
    1030:	9100      	str	r1, [sp, #0]
    1032:	68f9      	ldr	r1, [r7, #12]
    1034:	9101      	str	r1, [sp, #4]
    1036:	1d39      	adds	r1, r7, #4
    1038:	9102      	str	r1, [sp, #8]
    103a:	2020      	movs	r0, #32
    103c:	6f79      	ldr	r1, [r7, #116]	; 0x74
    103e:	f000 f8b3 	bl	11a8 <fput_pad>
    1042:	e013      	b.n	106c <_doprint+0x728>
    1044:	e012      	b.n	106c <_doprint+0x728>
    1046:	f8d7 3088 	ldr.w	r3, [r7, #136]	; 0x88
    104a:	1d1a      	adds	r2, r3, #4
    104c:	f8c7 2088 	str.w	r2, [r7, #136]	; 0x88
    1050:	681b      	ldr	r3, [r3, #0]
    1052:	647b      	str	r3, [r7, #68]	; 0x44
    1054:	69fa      	ldr	r2, [r7, #28]
    1056:	6c7b      	ldr	r3, [r7, #68]	; 0x44
    1058:	601a      	str	r2, [r3, #0]
    105a:	e007      	b.n	106c <_doprint+0x728>
    105c:	68bb      	ldr	r3, [r7, #8]
    105e:	6cf8      	ldr	r0, [r7, #76]	; 0x4c
    1060:	68f9      	ldr	r1, [r7, #12]
    1062:	4798      	blx	r3
    1064:	69fb      	ldr	r3, [r7, #28]
    1066:	3301      	adds	r3, #1
    1068:	61fb      	str	r3, [r7, #28]
    106a:	bf00      	nop
    106c:	6ffb      	ldr	r3, [r7, #124]	; 0x7c
    106e:	3301      	adds	r3, #1
    1070:	67fb      	str	r3, [r7, #124]	; 0x7c
    1072:	6ffb      	ldr	r3, [r7, #124]	; 0x7c
    1074:	781b      	ldrb	r3, [r3, #0]
    1076:	b25b      	sxtb	r3, r3
    1078:	64fb      	str	r3, [r7, #76]	; 0x4c
    107a:	6cfb      	ldr	r3, [r7, #76]	; 0x4c
    107c:	2b00      	cmp	r3, #0
    107e:	f47f ac75 	bne.w	96c <_doprint+0x28>
    1082:	687b      	ldr	r3, [r7, #4]
    1084:	2b00      	cmp	r3, #0
    1086:	d001      	beq.n	108c <_doprint+0x748>
    1088:	69fb      	ldr	r3, [r7, #28]
    108a:	e000      	b.n	108e <_doprint+0x74a>
    108c:	6d3b      	ldr	r3, [r7, #80]	; 0x50
    108e:	4618      	mov	r0, r3
    1090:	3780      	adds	r7, #128	; 0x80
    1092:	46bd      	mov	sp, r7
    1094:	bd80      	pop	{r7, pc}
    1096:	bf00      	nop

00001098 <mknumstr>:
    1098:	b480      	push	{r7}
    109a:	b08d      	sub	sp, #52	; 0x34
    109c:	af00      	add	r7, sp, #0
    109e:	60f8      	str	r0, [r7, #12]
    10a0:	60b9      	str	r1, [r7, #8]
    10a2:	607a      	str	r2, [r7, #4]
    10a4:	603b      	str	r3, [r7, #0]
    10a6:	2300      	movs	r3, #0
    10a8:	61fb      	str	r3, [r7, #28]
    10aa:	68fb      	ldr	r3, [r7, #12]
    10ac:	61bb      	str	r3, [r7, #24]
    10ae:	69bb      	ldr	r3, [r7, #24]
    10b0:	1c5a      	adds	r2, r3, #1
    10b2:	61ba      	str	r2, [r7, #24]
    10b4:	2200      	movs	r2, #0
    10b6:	701a      	strb	r2, [r3, #0]
    10b8:	687b      	ldr	r3, [r7, #4]
    10ba:	2b00      	cmp	r3, #0
    10bc:	d033      	beq.n	1126 <mknumstr+0x8e>
    10be:	68bb      	ldr	r3, [r7, #8]
    10c0:	681b      	ldr	r3, [r3, #0]
    10c2:	62fb      	str	r3, [r7, #44]	; 0x2c
    10c4:	6afb      	ldr	r3, [r7, #44]	; 0x2c
    10c6:	2b00      	cmp	r3, #0
    10c8:	d106      	bne.n	10d8 <mknumstr+0x40>
    10ca:	69bb      	ldr	r3, [r7, #24]
    10cc:	2230      	movs	r2, #48	; 0x30
    10ce:	701a      	strb	r2, [r3, #0]
    10d0:	69fb      	ldr	r3, [r7, #28]
    10d2:	3301      	adds	r3, #1
    10d4:	61fb      	str	r3, [r7, #28]
    10d6:	e060      	b.n	119a <mknumstr+0x102>
    10d8:	e021      	b.n	111e <mknumstr+0x86>
    10da:	6afa      	ldr	r2, [r7, #44]	; 0x2c
    10dc:	683b      	ldr	r3, [r7, #0]
    10de:	fb92 f3f3 	sdiv	r3, r2, r3
    10e2:	617b      	str	r3, [r7, #20]
    10e4:	697b      	ldr	r3, [r7, #20]
    10e6:	683a      	ldr	r2, [r7, #0]
    10e8:	fb02 f303 	mul.w	r3, r2, r3
    10ec:	6afa      	ldr	r2, [r7, #44]	; 0x2c
    10ee:	1ad3      	subs	r3, r2, r3
    10f0:	62bb      	str	r3, [r7, #40]	; 0x28
    10f2:	6abb      	ldr	r3, [r7, #40]	; 0x28
    10f4:	2b00      	cmp	r3, #0
    10f6:	da04      	bge.n	1102 <mknumstr+0x6a>
    10f8:	6abb      	ldr	r3, [r7, #40]	; 0x28
    10fa:	f1c3 0330 	rsb	r3, r3, #48	; 0x30
    10fe:	62bb      	str	r3, [r7, #40]	; 0x28
    1100:	e002      	b.n	1108 <mknumstr+0x70>
    1102:	6abb      	ldr	r3, [r7, #40]	; 0x28
    1104:	3330      	adds	r3, #48	; 0x30
    1106:	62bb      	str	r3, [r7, #40]	; 0x28
    1108:	697b      	ldr	r3, [r7, #20]
    110a:	62fb      	str	r3, [r7, #44]	; 0x2c
    110c:	69bb      	ldr	r3, [r7, #24]
    110e:	1c5a      	adds	r2, r3, #1
    1110:	61ba      	str	r2, [r7, #24]
    1112:	6aba      	ldr	r2, [r7, #40]	; 0x28
    1114:	b2d2      	uxtb	r2, r2
    1116:	701a      	strb	r2, [r3, #0]
    1118:	69fb      	ldr	r3, [r7, #28]
    111a:	3301      	adds	r3, #1
    111c:	61fb      	str	r3, [r7, #28]
    111e:	6afb      	ldr	r3, [r7, #44]	; 0x2c
    1120:	2b00      	cmp	r3, #0
    1122:	d1da      	bne.n	10da <mknumstr+0x42>
    1124:	e039      	b.n	119a <mknumstr+0x102>
    1126:	68bb      	ldr	r3, [r7, #8]
    1128:	681b      	ldr	r3, [r3, #0]
    112a:	627b      	str	r3, [r7, #36]	; 0x24
    112c:	6a7b      	ldr	r3, [r7, #36]	; 0x24
    112e:	2b00      	cmp	r3, #0
    1130:	d106      	bne.n	1140 <mknumstr+0xa8>
    1132:	69bb      	ldr	r3, [r7, #24]
    1134:	2230      	movs	r2, #48	; 0x30
    1136:	701a      	strb	r2, [r3, #0]
    1138:	69fb      	ldr	r3, [r7, #28]
    113a:	3301      	adds	r3, #1
    113c:	61fb      	str	r3, [r7, #28]
    113e:	e02c      	b.n	119a <mknumstr+0x102>
    1140:	e028      	b.n	1194 <mknumstr+0xfc>
    1142:	683b      	ldr	r3, [r7, #0]
    1144:	6a7a      	ldr	r2, [r7, #36]	; 0x24
    1146:	fbb2 f3f3 	udiv	r3, r2, r3
    114a:	613b      	str	r3, [r7, #16]
    114c:	683b      	ldr	r3, [r7, #0]
    114e:	693a      	ldr	r2, [r7, #16]
    1150:	fb02 f303 	mul.w	r3, r2, r3
    1154:	6a7a      	ldr	r2, [r7, #36]	; 0x24
    1156:	1ad3      	subs	r3, r2, r3
    1158:	623b      	str	r3, [r7, #32]
    115a:	6a3b      	ldr	r3, [r7, #32]
    115c:	2b09      	cmp	r3, #9
    115e:	d803      	bhi.n	1168 <mknumstr+0xd0>
    1160:	6a3b      	ldr	r3, [r7, #32]
    1162:	3330      	adds	r3, #48	; 0x30
    1164:	623b      	str	r3, [r7, #32]
    1166:	e00a      	b.n	117e <mknumstr+0xe6>
    1168:	f897 3038 	ldrb.w	r3, [r7, #56]	; 0x38
    116c:	2b00      	cmp	r3, #0
    116e:	d001      	beq.n	1174 <mknumstr+0xdc>
    1170:	2341      	movs	r3, #65	; 0x41
    1172:	e000      	b.n	1176 <mknumstr+0xde>
    1174:	2361      	movs	r3, #97	; 0x61
    1176:	6a3a      	ldr	r2, [r7, #32]
    1178:	4413      	add	r3, r2
    117a:	3b0a      	subs	r3, #10
    117c:	623b      	str	r3, [r7, #32]
    117e:	693b      	ldr	r3, [r7, #16]
    1180:	627b      	str	r3, [r7, #36]	; 0x24
    1182:	69bb      	ldr	r3, [r7, #24]
    1184:	1c5a      	adds	r2, r3, #1
    1186:	61ba      	str	r2, [r7, #24]
    1188:	6a3a      	ldr	r2, [r7, #32]
    118a:	b2d2      	uxtb	r2, r2
    118c:	701a      	strb	r2, [r3, #0]
    118e:	69fb      	ldr	r3, [r7, #28]
    1190:	3301      	adds	r3, #1
    1192:	61fb      	str	r3, [r7, #28]
    1194:	6a7b      	ldr	r3, [r7, #36]	; 0x24
    1196:	2b00      	cmp	r3, #0
    1198:	d1d3      	bne.n	1142 <mknumstr+0xaa>
    119a:	69fb      	ldr	r3, [r7, #28]
    119c:	4618      	mov	r0, r3
    119e:	3734      	adds	r7, #52	; 0x34
    11a0:	46bd      	mov	sp, r7
    11a2:	f85d 7b04 	ldr.w	r7, [sp], #4
    11a6:	4770      	bx	lr

000011a8 <fput_pad>:
    11a8:	b580      	push	{r7, lr}
    11aa:	b086      	sub	sp, #24
    11ac:	af00      	add	r7, sp, #0
    11ae:	60f8      	str	r0, [r7, #12]
    11b0:	60b9      	str	r1, [r7, #8]
    11b2:	607a      	str	r2, [r7, #4]
    11b4:	603b      	str	r3, [r7, #0]
    11b6:	68bb      	ldr	r3, [r7, #8]
    11b8:	617b      	str	r3, [r7, #20]
    11ba:	e00e      	b.n	11da <fput_pad+0x32>
    11bc:	68fb      	ldr	r3, [r7, #12]
    11be:	b2db      	uxtb	r3, r3
    11c0:	b25a      	sxtb	r2, r3
    11c2:	6a3b      	ldr	r3, [r7, #32]
    11c4:	4610      	mov	r0, r2
    11c6:	6a79      	ldr	r1, [r7, #36]	; 0x24
    11c8:	4798      	blx	r3
    11ca:	683b      	ldr	r3, [r7, #0]
    11cc:	681b      	ldr	r3, [r3, #0]
    11ce:	1c5a      	adds	r2, r3, #1
    11d0:	683b      	ldr	r3, [r7, #0]
    11d2:	601a      	str	r2, [r3, #0]
    11d4:	697b      	ldr	r3, [r7, #20]
    11d6:	3301      	adds	r3, #1
    11d8:	617b      	str	r3, [r7, #20]
    11da:	697a      	ldr	r2, [r7, #20]
    11dc:	687b      	ldr	r3, [r7, #4]
    11de:	429a      	cmp	r2, r3
    11e0:	dbec      	blt.n	11bc <fput_pad+0x14>
    11e2:	3718      	adds	r7, #24
    11e4:	46bd      	mov	sp, r7
    11e6:	bd80      	pop	{r7, pc}

000011e8 <init_data_bss>:
    11e8:	b480      	push	{r7}
    11ea:	b089      	sub	sp, #36	; 0x24
    11ec:	af00      	add	r7, sp, #0
    11ee:	4b28      	ldr	r3, [pc, #160]	; (1290 <init_data_bss+0xa8>)
    11f0:	60fb      	str	r3, [r7, #12]
    11f2:	4a28      	ldr	r2, [pc, #160]	; (1294 <init_data_bss+0xac>)
    11f4:	4b28      	ldr	r3, [pc, #160]	; (1298 <init_data_bss+0xb0>)
    11f6:	429a      	cmp	r2, r3
    11f8:	d016      	beq.n	1228 <init_data_bss+0x40>
    11fa:	2300      	movs	r3, #0
    11fc:	61fb      	str	r3, [r7, #28]
    11fe:	e00a      	b.n	1216 <init_data_bss+0x2e>
    1200:	4b25      	ldr	r3, [pc, #148]	; (1298 <init_data_bss+0xb0>)
    1202:	69fa      	ldr	r2, [r7, #28]
    1204:	f853 1022 	ldr.w	r1, [r3, r2, lsl #2]
    1208:	4b22      	ldr	r3, [pc, #136]	; (1294 <init_data_bss+0xac>)
    120a:	69fa      	ldr	r2, [r7, #28]
    120c:	f843 1022 	str.w	r1, [r3, r2, lsl #2]
    1210:	69fb      	ldr	r3, [r7, #28]
    1212:	3301      	adds	r3, #1
    1214:	61fb      	str	r3, [r7, #28]
    1216:	68fb      	ldr	r3, [r7, #12]
    1218:	089a      	lsrs	r2, r3, #2
    121a:	69fb      	ldr	r3, [r7, #28]
    121c:	429a      	cmp	r2, r3
    121e:	d8ef      	bhi.n	1200 <init_data_bss+0x18>
    1220:	4b1e      	ldr	r3, [pc, #120]	; (129c <init_data_bss+0xb4>)
    1222:	4a1c      	ldr	r2, [pc, #112]	; (1294 <init_data_bss+0xac>)
    1224:	609a      	str	r2, [r3, #8]
    1226:	e002      	b.n	122e <init_data_bss+0x46>
    1228:	4b1c      	ldr	r3, [pc, #112]	; (129c <init_data_bss+0xb4>)
    122a:	4a1b      	ldr	r2, [pc, #108]	; (1298 <init_data_bss+0xb0>)
    122c:	609a      	str	r2, [r3, #8]
    122e:	4b1c      	ldr	r3, [pc, #112]	; (12a0 <init_data_bss+0xb8>)
    1230:	61bb      	str	r3, [r7, #24]
    1232:	4b1c      	ldr	r3, [pc, #112]	; (12a4 <init_data_bss+0xbc>)
    1234:	617b      	str	r3, [r7, #20]
    1236:	4b1c      	ldr	r3, [pc, #112]	; (12a8 <init_data_bss+0xc0>)
    1238:	60bb      	str	r3, [r7, #8]
    123a:	68ba      	ldr	r2, [r7, #8]
    123c:	697b      	ldr	r3, [r7, #20]
    123e:	1ad3      	subs	r3, r2, r3
    1240:	61fb      	str	r3, [r7, #28]
    1242:	e007      	b.n	1254 <init_data_bss+0x6c>
    1244:	69bb      	ldr	r3, [r7, #24]
    1246:	1c5a      	adds	r2, r3, #1
    1248:	61ba      	str	r2, [r7, #24]
    124a:	697a      	ldr	r2, [r7, #20]
    124c:	1c51      	adds	r1, r2, #1
    124e:	6179      	str	r1, [r7, #20]
    1250:	7812      	ldrb	r2, [r2, #0]
    1252:	701a      	strb	r2, [r3, #0]
    1254:	69fb      	ldr	r3, [r7, #28]
    1256:	1e5a      	subs	r2, r3, #1
    1258:	61fa      	str	r2, [r7, #28]
    125a:	2b00      	cmp	r3, #0
    125c:	d1f2      	bne.n	1244 <init_data_bss+0x5c>
    125e:	4b13      	ldr	r3, [pc, #76]	; (12ac <init_data_bss+0xc4>)
    1260:	613b      	str	r3, [r7, #16]
    1262:	4b13      	ldr	r3, [pc, #76]	; (12b0 <init_data_bss+0xc8>)
    1264:	607b      	str	r3, [r7, #4]
    1266:	687a      	ldr	r2, [r7, #4]
    1268:	693b      	ldr	r3, [r7, #16]
    126a:	1ad3      	subs	r3, r2, r3
    126c:	61fb      	str	r3, [r7, #28]
    126e:	e004      	b.n	127a <init_data_bss+0x92>
    1270:	693b      	ldr	r3, [r7, #16]
    1272:	1c5a      	adds	r2, r3, #1
    1274:	613a      	str	r2, [r7, #16]
    1276:	2200      	movs	r2, #0
    1278:	701a      	strb	r2, [r3, #0]
    127a:	69fb      	ldr	r3, [r7, #28]
    127c:	1e5a      	subs	r2, r3, #1
    127e:	61fa      	str	r2, [r7, #28]
    1280:	2b00      	cmp	r3, #0
    1282:	d1f5      	bne.n	1270 <init_data_bss+0x88>
    1284:	3724      	adds	r7, #36	; 0x24
    1286:	46bd      	mov	sp, r7
    1288:	f85d 7b04 	ldr.w	r7, [sp], #4
    128c:	4770      	bx	lr
    128e:	bf00      	nop
	...
    129c:	e000ed00 	and	lr, r0, r0, lsl #26
    12a0:	1fff0000 	svcne	0x00ff0000
    12a4:	000050b4 	strheq	r5, [r0], -r4
    12a8:	00005158 	andeq	r5, r0, r8, asr r1
    12ac:	1fff00a4 	svcne	0x00ff00a4
    12b0:	1fff00ec 	svcne	0x00ff00ec

000012b4 <SystemInit>:
    12b4:	b480      	push	{r7}
    12b6:	af00      	add	r7, sp, #0
    12b8:	4b0b      	ldr	r3, [pc, #44]	; (12e8 <SystemInit+0x34>)	// r3 = &CPUID
    12ba:	4a0b      	ldr	r2, [pc, #44]	; (12e8 <SystemInit+0x34>)	// r2 = &CPUID
    12bc:	f8d2 2088 	ldr.w	r2, [r2, #136]	; 0x88				// r2 = CPACR
    12c0:	f442 0270 	orr.w	r2, r2, #15728640	; 0xf00000		// make sure control registers are on
    12c4:	f8c3 2088 	str.w	r2, [r3, #136]	; 0x88				//
    12c8:	4b08      	ldr	r3, [pc, #32]	; (12ec <SystemInit+0x38>)
    12ca:	f24c 5220 	movw	r2, #50464	; 0xc520
    12ce:	81da      	strh	r2, [r3, #14]
    12d0:	4b06      	ldr	r3, [pc, #24]	; (12ec <SystemInit+0x38>)
    12d2:	f64d 1228 	movw	r2, #55592	; 0xd928
    12d6:	81da      	strh	r2, [r3, #14]
    12d8:	4b04      	ldr	r3, [pc, #16]	; (12ec <SystemInit+0x38>)
    12da:	f44f 72e9 	mov.w	r2, #466	; 0x1d2
    12de:	801a      	strh	r2, [r3, #0]
    12e0:	46bd      	mov	sp, r7
    12e2:	f85d 7b04 	ldr.w	r7, [sp], #4
    12e6:	4770      	bx	lr
    12e8:	e000ed00 	and	lr, r0, r0, lsl #26
    12ec:	40052000 	andmi	r2, r5, r0

000012f0 <LPTMR0_IRQHandler>:
    12f0:	b580      	push	{r7, lr}
    12f2:	af00      	add	r7, sp, #0
    12f4:	2000      	movs	r0, #0
    12f6:	f000 ffa7 	bl	2248 <LPTMR_DRV_IRQHandler>
    12fa:	bd80      	pop	{r7, pc}

000012fc <lptmr_call_back>:
    12fc:	b580      	push	{r7, lr}
    12fe:	af00      	add	r7, sp, #0
    1300:	4b02      	ldr	r3, [pc, #8]	; (130c <lptmr_call_back+0x10>)
    1302:	681b      	ldr	r3, [r3, #0]
    1304:	4618      	mov	r0, r3
    1306:	f001 f8e1 	bl	24cc <GPIO_DRV_TogglePinOutput>
    130a:	bd80      	pop	{r7, pc}
    130c:	1fff0004 	svcne	0x00ff0004

00001310 <main>:
    1310:	b580      	push	{r7, lr}
    1312:	b086      	sub	sp, #24
    1314:	af00      	add	r7, sp, #0
    1316:	2300      	movs	r3, #0
    1318:	60fb      	str	r3, [r7, #12]
    131a:	2300      	movs	r3, #0
    131c:	613b      	str	r3, [r7, #16]
    131e:	2301      	movs	r3, #1
    1320:	743b      	strb	r3, [r7, #16]
    1322:	2301      	movs	r3, #1
    1324:	747b      	strb	r3, [r7, #17]
    1326:	2301      	movs	r3, #1
    1328:	74fb      	strb	r3, [r7, #19]
    132a:	f000 f8ef 	bl	150c <hardware_init>
    132e:	1d3a      	adds	r2, r7, #4
    1330:	f107 030c 	add.w	r3, r7, #12
    1334:	2000      	movs	r0, #0
    1336:	4611      	mov	r1, r2
    1338:	461a      	mov	r2, r3
    133a:	f000 fe05 	bl	1f48 <LPTMR_DRV_Init>
    133e:	2000      	movs	r0, #0
    1340:	490c      	ldr	r1, [pc, #48]	; (1374 <main+0x64>)
    1342:	f000 fed9 	bl	20f8 <LPTMR_DRV_SetTimerPeriodUs>
    1346:	2000      	movs	r0, #0
    1348:	490b      	ldr	r1, [pc, #44]	; (1378 <main+0x68>)
    134a:	f000 ff49 	bl	21e0 <LPTMR_DRV_InstallCallback>
    134e:	2000      	movs	r0, #0
    1350:	f000 fea2 	bl	2098 <LPTMR_DRV_Start>
    1354:	4809      	ldr	r0, [pc, #36]	; (137c <main+0x6c>)
    1356:	f001 f871 	bl	243c <GPIO_DRV_OutputPinInit>
    135a:	4809      	ldr	r0, [pc, #36]	; (1380 <main+0x70>)
    135c:	f7ff fa50 	bl	800 <debug_printf>
    1360:	f7ff faa8 	bl	8b4 <debug_getchar>
    1364:	4603      	mov	r3, r0
    1366:	75fb      	strb	r3, [r7, #23]
    1368:	7dfb      	ldrb	r3, [r7, #23]
    136a:	4618      	mov	r0, r3
    136c:	f7ff fa8c 	bl	888 <debug_putchar>
    1370:	e7f6      	b.n	1360 <main+0x50>
    1372:	bf00      	nop
    1374:	0007a120 	andeq	sl, r7, r0, lsr #2
    1378:	000012fd 	strdeq	r1, [r0], -sp
    137c:	1fff0004 	svcne	0x00ff0004
    1380:	000047b8 			; <UNDEFINED> instruction: 0x000047b8

00001384 <PORT_HAL_SetMuxMode>:
    1384:	b580      	push	{r7, lr}
    1386:	b084      	sub	sp, #16
    1388:	af00      	add	r7, sp, #0
    138a:	60f8      	str	r0, [r7, #12]
    138c:	60b9      	str	r1, [r7, #8]
    138e:	4613      	mov	r3, r2
    1390:	71fb      	strb	r3, [r7, #7]
    1392:	68bb      	ldr	r3, [r7, #8]
    1394:	2b1f      	cmp	r3, #31
    1396:	d905      	bls.n	13a4 <PORT_HAL_SetMuxMode+0x20>
    1398:	480d      	ldr	r0, [pc, #52]	; (13d0 <PORT_HAL_SetMuxMode+0x4c>)
    139a:	21ff      	movs	r1, #255	; 0xff
    139c:	4a0d      	ldr	r2, [pc, #52]	; (13d4 <PORT_HAL_SetMuxMode+0x50>)
    139e:	4b0e      	ldr	r3, [pc, #56]	; (13d8 <PORT_HAL_SetMuxMode+0x54>)
    13a0:	f002 fa78 	bl	3894 <__assert_func>
    13a4:	68fb      	ldr	r3, [r7, #12]
    13a6:	68ba      	ldr	r2, [r7, #8]
    13a8:	f853 3022 	ldr.w	r3, [r3, r2, lsl #2]
    13ac:	f023 7380 	bic.w	r3, r3, #16777216	; 0x1000000
    13b0:	f423 63e0 	bic.w	r3, r3, #1792	; 0x700
    13b4:	79fa      	ldrb	r2, [r7, #7]
    13b6:	0212      	lsls	r2, r2, #8
    13b8:	f402 62e0 	and.w	r2, r2, #1792	; 0x700
    13bc:	ea43 0102 	orr.w	r1, r3, r2
    13c0:	68fb      	ldr	r3, [r7, #12]
    13c2:	68ba      	ldr	r2, [r7, #8]
    13c4:	f843 1022 	str.w	r1, [r3, r2, lsl #2]
    13c8:	3710      	adds	r7, #16
    13ca:	46bd      	mov	sp, r7
    13cc:	bd80      	pop	{r7, pc}
    13ce:	bf00      	nop
    13d0:	000047cc 	andeq	r4, r0, ip, asr #15
    13d4:	00004d8c 	andeq	r4, r0, ip, lsl #27
    13d8:	00004800 	andeq	r4, r0, r0, lsl #16

000013dc <SMC_HAL_SetProtection>:
    13dc:	b480      	push	{r7}
    13de:	b083      	sub	sp, #12
    13e0:	af00      	add	r7, sp, #0
    13e2:	6078      	str	r0, [r7, #4]
    13e4:	460b      	mov	r3, r1
    13e6:	70fb      	strb	r3, [r7, #3]
    13e8:	687b      	ldr	r3, [r7, #4]
    13ea:	78fa      	ldrb	r2, [r7, #3]
    13ec:	701a      	strb	r2, [r3, #0]
    13ee:	370c      	adds	r7, #12
    13f0:	46bd      	mov	sp, r7
    13f2:	f85d 7b04 	ldr.w	r7, [sp], #4
    13f6:	4770      	bx	lr

000013f8 <BOARD_InitOsc0>:
    13f8:	b580      	push	{r7, lr}
    13fa:	b084      	sub	sp, #16
    13fc:	af00      	add	r7, sp, #0
    13fe:	463b      	mov	r3, r7
    1400:	2200      	movs	r2, #0
    1402:	601a      	str	r2, [r3, #0]
    1404:	3304      	adds	r3, #4
    1406:	2200      	movs	r2, #0
    1408:	601a      	str	r2, [r3, #0]
    140a:	3304      	adds	r3, #4
    140c:	2200      	movs	r2, #0
    140e:	601a      	str	r2, [r3, #0]
    1410:	3304      	adds	r3, #4
    1412:	2200      	movs	r2, #0
    1414:	601a      	str	r2, [r3, #0]
    1416:	3304      	adds	r3, #4
    1418:	4b06      	ldr	r3, [pc, #24]	; (1434 <BOARD_InitOsc0+0x3c>)
    141a:	603b      	str	r3, [r7, #0]
    141c:	2302      	movs	r3, #2
    141e:	727b      	strb	r3, [r7, #9]
    1420:	2301      	movs	r3, #1
    1422:	72bb      	strb	r3, [r7, #10]
    1424:	463b      	mov	r3, r7
    1426:	2000      	movs	r0, #0
    1428:	4619      	mov	r1, r3
    142a:	f001 fc85 	bl	2d38 <CLOCK_SYS_OscInit>
    142e:	3710      	adds	r7, #16
    1430:	46bd      	mov	sp, r7
    1432:	bd80      	pop	{r7, pc}
    1434:	007a1200 	rsbseq	r1, sl, r0, lsl #4

00001438 <BOARD_InitRtcOsc>:
    1438:	b580      	push	{r7, lr}
    143a:	b084      	sub	sp, #16
    143c:	af00      	add	r7, sp, #0
    143e:	4a06      	ldr	r2, [pc, #24]	; (1458 <BOARD_InitRtcOsc+0x20>)
    1440:	1d3b      	adds	r3, r7, #4
    1442:	ca07      	ldmia	r2, {r0, r1, r2}
    1444:	e883 0007 	stmia.w	r3, {r0, r1, r2}
    1448:	1d3b      	adds	r3, r7, #4
    144a:	2000      	movs	r0, #0
    144c:	4619      	mov	r1, r3
    144e:	f001 fd0f 	bl	2e70 <CLOCK_SYS_RtcOscInit>
    1452:	3710      	adds	r7, #16
    1454:	46bd      	mov	sp, r7
    1456:	bd80      	pop	{r7, pc}
    1458:	0000480c 	andeq	r4, r0, ip, lsl #16

0000145c <CLOCK_SetBootConfig>:
    145c:	b580      	push	{r7, lr}
    145e:	b082      	sub	sp, #8
    1460:	af00      	add	r7, sp, #0
    1462:	6078      	str	r0, [r7, #4]
    1464:	687b      	ldr	r3, [r7, #4]
    1466:	3311      	adds	r3, #17
    1468:	4618      	mov	r0, r3
    146a:	f001 f929 	bl	26c0 <CLOCK_SYS_SetSimConfigration>
    146e:	687b      	ldr	r3, [r7, #4]
    1470:	330e      	adds	r3, #14
    1472:	2000      	movs	r0, #0
    1474:	4619      	mov	r1, r3
    1476:	f001 fcd3 	bl	2e20 <CLOCK_SYS_SetOscerConfigration>
    147a:	687b      	ldr	r3, [r7, #4]
    147c:	4618      	mov	r0, r3
    147e:	f001 fc09 	bl	2c94 <CLOCK_SYS_BootToPee>
    1482:	4b03      	ldr	r3, [pc, #12]	; (1490 <CLOCK_SetBootConfig+0x34>)
    1484:	4a03      	ldr	r2, [pc, #12]	; (1494 <CLOCK_SetBootConfig+0x38>)
    1486:	601a      	str	r2, [r3, #0]
    1488:	3708      	adds	r7, #8
    148a:	46bd      	mov	sp, r7
    148c:	bd80      	pop	{r7, pc}
    148e:	bf00      	nop
    1490:	1fff0000 	svcne	0x00ff0000
    1494:	07270e00 	streq	r0, [r7, -r0, lsl #28]!

00001498 <BOARD_ClockInit>:
    1498:	b580      	push	{r7, lr}
    149a:	b082      	sub	sp, #8
    149c:	af00      	add	r7, sp, #0
    149e:	4812      	ldr	r0, [pc, #72]	; (14e8 <BOARD_ClockInit+0x50>)
    14a0:	21aa      	movs	r1, #170	; 0xaa
    14a2:	f7ff ff9b 	bl	13dc <SMC_HAL_SetProtection>
    14a6:	2300      	movs	r3, #0
    14a8:	603b      	str	r3, [r7, #0]
    14aa:	2300      	movs	r3, #0
    14ac:	80bb      	strh	r3, [r7, #4]
    14ae:	f44f 7380 	mov.w	r3, #256	; 0x100
    14b2:	803b      	strh	r3, [r7, #0]
    14b4:	480d      	ldr	r0, [pc, #52]	; (14ec <BOARD_ClockInit+0x54>)
    14b6:	2112      	movs	r1, #18
    14b8:	2200      	movs	r2, #0
    14ba:	f7ff ff63 	bl	1384 <PORT_HAL_SetMuxMode>
    14be:	480b      	ldr	r0, [pc, #44]	; (14ec <BOARD_ClockInit+0x54>)
    14c0:	2113      	movs	r1, #19
    14c2:	2200      	movs	r2, #0
    14c4:	f7ff ff5e 	bl	1384 <PORT_HAL_SetMuxMode>
    14c8:	f7ff ff96 	bl	13f8 <BOARD_InitOsc0>
    14cc:	f7ff ffb4 	bl	1438 <BOARD_InitRtcOsc>
    14d0:	463b      	mov	r3, r7
    14d2:	4805      	ldr	r0, [pc, #20]	; (14e8 <BOARD_ClockInit+0x50>)
    14d4:	4619      	mov	r1, r3
    14d6:	f000 f9a9 	bl	182c <SMC_HAL_SetMode>
    14da:	4805      	ldr	r0, [pc, #20]	; (14f0 <BOARD_ClockInit+0x58>)
    14dc:	f7ff ffbe 	bl	145c <CLOCK_SetBootConfig>
    14e0:	3708      	adds	r7, #8
    14e2:	46bd      	mov	sp, r7
    14e4:	bd80      	pop	{r7, pc}
    14e6:	bf00      	nop
    14e8:	4007e000 	andmi	lr, r7, r0
    14ec:	40049000 	andmi	r9, r4, r0
    14f0:	00004d74 	andeq	r4, r0, r4, ror sp

000014f4 <dbg_uart_init>:
    14f4:	b580      	push	{r7, lr}
    14f6:	af00      	add	r7, sp, #0
    14f8:	2001      	movs	r0, #1
    14fa:	f000 f841 	bl	1580 <configure_uart_pins>
    14fe:	2001      	movs	r0, #1
    1500:	f44f 31e1 	mov.w	r1, #115200	; 0x1c200
    1504:	2210      	movs	r2, #16
    1506:	f7ff f893 	bl	630 <DbgConsole_Init>
    150a:	bd80      	pop	{r7, pc}

0000150c <hardware_init>:
    150c:	b580      	push	{r7, lr}
    150e:	af00      	add	r7, sp, #0
    1510:	2000      	movs	r0, #0
    1512:	f001 fa13 	bl	293c <CLOCK_SYS_EnablePortClock>
    1516:	2004      	movs	r0, #4
    1518:	f001 fa10 	bl	293c <CLOCK_SYS_EnablePortClock>
    151c:	f7ff ffbc 	bl	1498 <BOARD_ClockInit>
    1520:	f7ff ffe8 	bl	14f4 <dbg_uart_init>
    1524:	bd80      	pop	{r7, pc}
    1526:	bf00      	nop

00001528 <PORT_HAL_SetMuxMode>:
    1528:	b580      	push	{r7, lr}
    152a:	b084      	sub	sp, #16
    152c:	af00      	add	r7, sp, #0
    152e:	60f8      	str	r0, [r7, #12]
    1530:	60b9      	str	r1, [r7, #8]
    1532:	4613      	mov	r3, r2
    1534:	71fb      	strb	r3, [r7, #7]
    1536:	68bb      	ldr	r3, [r7, #8]
    1538:	2b1f      	cmp	r3, #31
    153a:	d905      	bls.n	1548 <PORT_HAL_SetMuxMode+0x20>
    153c:	480d      	ldr	r0, [pc, #52]	; (1574 <PORT_HAL_SetMuxMode+0x4c>)
    153e:	21ff      	movs	r1, #255	; 0xff
    1540:	4a0d      	ldr	r2, [pc, #52]	; (1578 <PORT_HAL_SetMuxMode+0x50>)
    1542:	4b0e      	ldr	r3, [pc, #56]	; (157c <PORT_HAL_SetMuxMode+0x54>)
    1544:	f002 f9a6 	bl	3894 <__assert_func>
    1548:	68fb      	ldr	r3, [r7, #12]
    154a:	68ba      	ldr	r2, [r7, #8]
    154c:	f853 3022 	ldr.w	r3, [r3, r2, lsl #2]
    1550:	f023 7380 	bic.w	r3, r3, #16777216	; 0x1000000
    1554:	f423 63e0 	bic.w	r3, r3, #1792	; 0x700
    1558:	79fa      	ldrb	r2, [r7, #7]
    155a:	0212      	lsls	r2, r2, #8
    155c:	f402 62e0 	and.w	r2, r2, #1792	; 0x700
    1560:	ea43 0102 	orr.w	r1, r3, r2
    1564:	68fb      	ldr	r3, [r7, #12]
    1566:	68ba      	ldr	r2, [r7, #8]
    1568:	f843 1022 	str.w	r1, [r3, r2, lsl #2]
    156c:	3710      	adds	r7, #16
    156e:	46bd      	mov	sp, r7
    1570:	bd80      	pop	{r7, pc}
    1572:	bf00      	nop
    1574:	00004818 	andeq	r4, r0, r8, lsl r8
    1578:	00004da0 	andeq	r4, r0, r0, lsr #27
    157c:	0000484c 	andeq	r4, r0, ip, asr #16

00001580 <configure_uart_pins>:
    1580:	b580      	push	{r7, lr}
    1582:	b082      	sub	sp, #8
    1584:	af00      	add	r7, sp, #0
    1586:	6078      	str	r0, [r7, #4]
    1588:	687b      	ldr	r3, [r7, #4]
    158a:	2b01      	cmp	r3, #1
    158c:	d000      	beq.n	1590 <configure_uart_pins+0x10>
    158e:	e00a      	b.n	15a6 <configure_uart_pins+0x26>
    1590:	4806      	ldr	r0, [pc, #24]	; (15ac <configure_uart_pins+0x2c>)
    1592:	2100      	movs	r1, #0
    1594:	2203      	movs	r2, #3
    1596:	f7ff ffc7 	bl	1528 <PORT_HAL_SetMuxMode>
    159a:	4804      	ldr	r0, [pc, #16]	; (15ac <configure_uart_pins+0x2c>)
    159c:	2101      	movs	r1, #1
    159e:	2203      	movs	r2, #3
    15a0:	f7ff ffc2 	bl	1528 <PORT_HAL_SetMuxMode>
    15a4:	bf00      	nop
    15a6:	3708      	adds	r7, #8
    15a8:	46bd      	mov	sp, r7
    15aa:	bd80      	pop	{r7, pc}
    15ac:	4004d000 	andmi	sp, r4, r0

000015b0 <UART_HAL_SetBaudRate>:
    15b0:	b480      	push	{r7}
    15b2:	b087      	sub	sp, #28
    15b4:	af00      	add	r7, sp, #0
    15b6:	60f8      	str	r0, [r7, #12]
    15b8:	60b9      	str	r1, [r7, #8]
    15ba:	607a      	str	r2, [r7, #4]
    15bc:	687b      	ldr	r3, [r7, #4]
    15be:	011b      	lsls	r3, r3, #4
    15c0:	68ba      	ldr	r2, [r7, #8]
    15c2:	fbb2 f3f3 	udiv	r3, r2, r3
    15c6:	82fb      	strh	r3, [r7, #22]
    15c8:	8afb      	ldrh	r3, [r7, #22]
    15ca:	f5b3 5f00 	cmp.w	r3, #8192	; 0x2000
    15ce:	d202      	bcs.n	15d6 <UART_HAL_SetBaudRate+0x26>
    15d0:	8afb      	ldrh	r3, [r7, #22]
    15d2:	2b00      	cmp	r3, #0
    15d4:	d101      	bne.n	15da <UART_HAL_SetBaudRate+0x2a>
    15d6:	2302      	movs	r3, #2
    15d8:	e033      	b.n	1642 <UART_HAL_SetBaudRate+0x92>
    15da:	68fb      	ldr	r3, [r7, #12]
    15dc:	781b      	ldrb	r3, [r3, #0]
    15de:	b2db      	uxtb	r3, r3
    15e0:	f023 031f 	bic.w	r3, r3, #31
    15e4:	b2da      	uxtb	r2, r3
    15e6:	8afb      	ldrh	r3, [r7, #22]
    15e8:	0a1b      	lsrs	r3, r3, #8
    15ea:	b29b      	uxth	r3, r3
    15ec:	b2db      	uxtb	r3, r3
    15ee:	f003 031f 	and.w	r3, r3, #31
    15f2:	b2db      	uxtb	r3, r3
    15f4:	4313      	orrs	r3, r2
    15f6:	b2da      	uxtb	r2, r3
    15f8:	68fb      	ldr	r3, [r7, #12]
    15fa:	701a      	strb	r2, [r3, #0]
    15fc:	8afb      	ldrh	r3, [r7, #22]
    15fe:	b2da      	uxtb	r2, r3
    1600:	68fb      	ldr	r3, [r7, #12]
    1602:	705a      	strb	r2, [r3, #1]
    1604:	68bb      	ldr	r3, [r7, #8]
    1606:	015a      	lsls	r2, r3, #5
    1608:	687b      	ldr	r3, [r7, #4]
    160a:	011b      	lsls	r3, r3, #4
    160c:	fbb2 f3f3 	udiv	r3, r2, r3
    1610:	b29a      	uxth	r2, r3
    1612:	8afb      	ldrh	r3, [r7, #22]
    1614:	4619      	mov	r1, r3
    1616:	02c9      	lsls	r1, r1, #11
    1618:	1acb      	subs	r3, r1, r3
    161a:	015b      	lsls	r3, r3, #5
    161c:	b29b      	uxth	r3, r3
    161e:	4413      	add	r3, r2
    1620:	82bb      	strh	r3, [r7, #20]
    1622:	68fb      	ldr	r3, [r7, #12]
    1624:	7a9b      	ldrb	r3, [r3, #10]
    1626:	b2db      	uxtb	r3, r3
    1628:	f023 031f 	bic.w	r3, r3, #31
    162c:	b2da      	uxtb	r2, r3
    162e:	8abb      	ldrh	r3, [r7, #20]
    1630:	b2db      	uxtb	r3, r3
    1632:	f003 031f 	and.w	r3, r3, #31
    1636:	b2db      	uxtb	r3, r3
    1638:	4313      	orrs	r3, r2
    163a:	b2da      	uxtb	r2, r3
    163c:	68fb      	ldr	r3, [r7, #12]
    163e:	729a      	strb	r2, [r3, #10]
    1640:	2300      	movs	r3, #0
    1642:	4618      	mov	r0, r3
    1644:	371c      	adds	r7, #28
    1646:	46bd      	mov	sp, r7
    1648:	f85d 7b04 	ldr.w	r7, [sp], #4
    164c:	4770      	bx	lr
    164e:	bf00      	nop

00001650 <UART_HAL_SetParityMode>:
    1650:	b480      	push	{r7}
    1652:	b083      	sub	sp, #12
    1654:	af00      	add	r7, sp, #0
    1656:	6078      	str	r0, [r7, #4]
    1658:	460b      	mov	r3, r1
    165a:	70fb      	strb	r3, [r7, #3]
    165c:	687b      	ldr	r3, [r7, #4]
    165e:	3302      	adds	r3, #2
    1660:	f103 7304 	add.w	r3, r3, #34603008	; 0x2100000
    1664:	015b      	lsls	r3, r3, #5
    1666:	3304      	adds	r3, #4
    1668:	78fa      	ldrb	r2, [r7, #3]
    166a:	0852      	lsrs	r2, r2, #1
    166c:	b2d2      	uxtb	r2, r2
    166e:	701a      	strb	r2, [r3, #0]
    1670:	687b      	ldr	r3, [r7, #4]
    1672:	3302      	adds	r3, #2
    1674:	f103 7304 	add.w	r3, r3, #34603008	; 0x2100000
    1678:	015b      	lsls	r3, r3, #5
    167a:	78fa      	ldrb	r2, [r7, #3]
    167c:	f002 0201 	and.w	r2, r2, #1
    1680:	b2d2      	uxtb	r2, r2
    1682:	701a      	strb	r2, [r3, #0]
    1684:	370c      	adds	r7, #12
    1686:	46bd      	mov	sp, r7
    1688:	f85d 7b04 	ldr.w	r7, [sp], #4
    168c:	4770      	bx	lr
    168e:	bf00      	nop

00001690 <UART_HAL_Putchar>:
    1690:	b480      	push	{r7}
    1692:	b085      	sub	sp, #20
    1694:	af00      	add	r7, sp, #0
    1696:	6078      	str	r0, [r7, #4]
    1698:	460b      	mov	r3, r1
    169a:	70fb      	strb	r3, [r7, #3]
    169c:	687b      	ldr	r3, [r7, #4]
    169e:	791b      	ldrb	r3, [r3, #4]
    16a0:	73fb      	strb	r3, [r7, #15]
    16a2:	7bfb      	ldrb	r3, [r7, #15]
    16a4:	3301      	adds	r3, #1
    16a6:	73fb      	strb	r3, [r7, #15]
    16a8:	687b      	ldr	r3, [r7, #4]
    16aa:	78fa      	ldrb	r2, [r7, #3]
    16ac:	71da      	strb	r2, [r3, #7]
    16ae:	3714      	adds	r7, #20
    16b0:	46bd      	mov	sp, r7
    16b2:	f85d 7b04 	ldr.w	r7, [sp], #4
    16b6:	4770      	bx	lr

000016b8 <UART_HAL_Getchar>:
    16b8:	b480      	push	{r7}
    16ba:	b085      	sub	sp, #20
    16bc:	af00      	add	r7, sp, #0
    16be:	6078      	str	r0, [r7, #4]
    16c0:	6039      	str	r1, [r7, #0]
    16c2:	687b      	ldr	r3, [r7, #4]
    16c4:	791b      	ldrb	r3, [r3, #4]
    16c6:	73fb      	strb	r3, [r7, #15]
    16c8:	7bfb      	ldrb	r3, [r7, #15]
    16ca:	3301      	adds	r3, #1
    16cc:	73fb      	strb	r3, [r7, #15]
    16ce:	687b      	ldr	r3, [r7, #4]
    16d0:	79db      	ldrb	r3, [r3, #7]
    16d2:	b2da      	uxtb	r2, r3
    16d4:	683b      	ldr	r3, [r7, #0]
    16d6:	701a      	strb	r2, [r3, #0]
    16d8:	3714      	adds	r7, #20
    16da:	46bd      	mov	sp, r7
    16dc:	f85d 7b04 	ldr.w	r7, [sp], #4
    16e0:	4770      	bx	lr
    16e2:	bf00      	nop

000016e4 <UART_HAL_SendDataPolling>:
    16e4:	b580      	push	{r7, lr}
    16e6:	b084      	sub	sp, #16
    16e8:	af00      	add	r7, sp, #0
    16ea:	60f8      	str	r0, [r7, #12]
    16ec:	60b9      	str	r1, [r7, #8]
    16ee:	607a      	str	r2, [r7, #4]
    16f0:	e012      	b.n	1718 <UART_HAL_SendDataPolling+0x34>
    16f2:	bf00      	nop
    16f4:	68fb      	ldr	r3, [r7, #12]
    16f6:	3304      	adds	r3, #4
    16f8:	f103 7304 	add.w	r3, r3, #34603008	; 0x2100000
    16fc:	015b      	lsls	r3, r3, #5
    16fe:	331c      	adds	r3, #28
    1700:	781b      	ldrb	r3, [r3, #0]
    1702:	b2db      	uxtb	r3, r3
    1704:	2b00      	cmp	r3, #0
    1706:	d0f5      	beq.n	16f4 <UART_HAL_SendDataPolling+0x10>
    1708:	68bb      	ldr	r3, [r7, #8]
    170a:	1c5a      	adds	r2, r3, #1
    170c:	60ba      	str	r2, [r7, #8]
    170e:	781b      	ldrb	r3, [r3, #0]
    1710:	68f8      	ldr	r0, [r7, #12]
    1712:	4619      	mov	r1, r3
    1714:	f7ff ffbc 	bl	1690 <UART_HAL_Putchar>
    1718:	687b      	ldr	r3, [r7, #4]
    171a:	1e5a      	subs	r2, r3, #1
    171c:	607a      	str	r2, [r7, #4]
    171e:	2b00      	cmp	r3, #0
    1720:	d1e7      	bne.n	16f2 <UART_HAL_SendDataPolling+0xe>
    1722:	3710      	adds	r7, #16
    1724:	46bd      	mov	sp, r7
    1726:	bd80      	pop	{r7, pc}

00001728 <UART_HAL_ReceiveDataPolling>:
    1728:	b580      	push	{r7, lr}
    172a:	b086      	sub	sp, #24
    172c:	af00      	add	r7, sp, #0
    172e:	60f8      	str	r0, [r7, #12]
    1730:	60b9      	str	r1, [r7, #8]
    1732:	607a      	str	r2, [r7, #4]
    1734:	2300      	movs	r3, #0
    1736:	75fb      	strb	r3, [r7, #23]
    1738:	2300      	movs	r3, #0
    173a:	75bb      	strb	r3, [r7, #22]
    173c:	e026      	b.n	178c <UART_HAL_ReceiveDataPolling+0x64>
    173e:	bf00      	nop
    1740:	68fb      	ldr	r3, [r7, #12]
    1742:	3304      	adds	r3, #4
    1744:	f103 7304 	add.w	r3, r3, #34603008	; 0x2100000
    1748:	015b      	lsls	r3, r3, #5
    174a:	3314      	adds	r3, #20
    174c:	781b      	ldrb	r3, [r3, #0]
    174e:	b2db      	uxtb	r3, r3
    1750:	2b00      	cmp	r3, #0
    1752:	d0f5      	beq.n	1740 <UART_HAL_ReceiveDataPolling+0x18>
    1754:	68bb      	ldr	r3, [r7, #8]
    1756:	1c5a      	adds	r2, r3, #1
    1758:	60ba      	str	r2, [r7, #8]
    175a:	68f8      	ldr	r0, [r7, #12]
    175c:	4619      	mov	r1, r3
    175e:	f7ff ffab 	bl	16b8 <UART_HAL_Getchar>
    1762:	68fb      	ldr	r3, [r7, #12]
    1764:	3304      	adds	r3, #4
    1766:	f103 7304 	add.w	r3, r3, #34603008	; 0x2100000
    176a:	015b      	lsls	r3, r3, #5
    176c:	330c      	adds	r3, #12
    176e:	781b      	ldrb	r3, [r3, #0]
    1770:	b2db      	uxtb	r3, r3
    1772:	2b00      	cmp	r3, #0
    1774:	d00a      	beq.n	178c <UART_HAL_ReceiveDataPolling+0x64>
    1776:	68fb      	ldr	r3, [r7, #12]
    1778:	791b      	ldrb	r3, [r3, #4]
    177a:	75bb      	strb	r3, [r7, #22]
    177c:	68fb      	ldr	r3, [r7, #12]
    177e:	79db      	ldrb	r3, [r3, #7]
    1780:	75bb      	strb	r3, [r7, #22]
    1782:	7dbb      	ldrb	r3, [r7, #22]
    1784:	3301      	adds	r3, #1
    1786:	75bb      	strb	r3, [r7, #22]
    1788:	230f      	movs	r3, #15
    178a:	75fb      	strb	r3, [r7, #23]
    178c:	687b      	ldr	r3, [r7, #4]
    178e:	1e5a      	subs	r2, r3, #1
    1790:	607a      	str	r2, [r7, #4]
    1792:	2b00      	cmp	r3, #0
    1794:	d1d3      	bne.n	173e <UART_HAL_ReceiveDataPolling+0x16>
    1796:	7dfb      	ldrb	r3, [r7, #23]
    1798:	4618      	mov	r0, r3
    179a:	3718      	adds	r7, #24
    179c:	46bd      	mov	sp, r7
    179e:	bd80      	pop	{r7, pc}

000017a0 <SMC_HAL_SetPowerModeRun>:
    17a0:	b580      	push	{r7, lr}
    17a2:	b082      	sub	sp, #8
    17a4:	af00      	add	r7, sp, #0
    17a6:	6078      	str	r0, [r7, #4]
    17a8:	687b      	ldr	r3, [r7, #4]
    17aa:	785b      	ldrb	r3, [r3, #1]
    17ac:	b2db      	uxtb	r3, r3
    17ae:	f023 0360 	bic.w	r3, r3, #96	; 0x60
    17b2:	b2da      	uxtb	r2, r3
    17b4:	687b      	ldr	r3, [r7, #4]
    17b6:	705a      	strb	r2, [r3, #1]
    17b8:	bf00      	nop
    17ba:	6878      	ldr	r0, [r7, #4]
    17bc:	f000 f91e 	bl	19fc <SMC_HAL_GetStat>
    17c0:	4603      	mov	r3, r0
    17c2:	2b01      	cmp	r3, #1
    17c4:	d1f9      	bne.n	17ba <SMC_HAL_SetPowerModeRun+0x1a>
    17c6:	3708      	adds	r7, #8
    17c8:	46bd      	mov	sp, r7
    17ca:	bd80      	pop	{r7, pc}

000017cc <SMC_HAL_SetPowerModeVlpr>:
    17cc:	b580      	push	{r7, lr}
    17ce:	b082      	sub	sp, #8
    17d0:	af00      	add	r7, sp, #0
    17d2:	6078      	str	r0, [r7, #4]
    17d4:	687b      	ldr	r3, [r7, #4]
    17d6:	785b      	ldrb	r3, [r3, #1]
    17d8:	b2db      	uxtb	r3, r3
    17da:	f023 0360 	bic.w	r3, r3, #96	; 0x60
    17de:	b2db      	uxtb	r3, r3
    17e0:	f043 0340 	orr.w	r3, r3, #64	; 0x40
    17e4:	b2da      	uxtb	r2, r3
    17e6:	687b      	ldr	r3, [r7, #4]
    17e8:	705a      	strb	r2, [r3, #1]
    17ea:	bf00      	nop
    17ec:	6878      	ldr	r0, [r7, #4]
    17ee:	f000 f905 	bl	19fc <SMC_HAL_GetStat>
    17f2:	4603      	mov	r3, r0
    17f4:	2b04      	cmp	r3, #4
    17f6:	d1f9      	bne.n	17ec <SMC_HAL_SetPowerModeVlpr+0x20>
    17f8:	3708      	adds	r7, #8
    17fa:	46bd      	mov	sp, r7
    17fc:	bd80      	pop	{r7, pc}
    17fe:	bf00      	nop

00001800 <SMC_HAL_SetPowerModeHsrun>:
    1800:	b580      	push	{r7, lr}
    1802:	b082      	sub	sp, #8
    1804:	af00      	add	r7, sp, #0
    1806:	6078      	str	r0, [r7, #4]
    1808:	687b      	ldr	r3, [r7, #4]
    180a:	785b      	ldrb	r3, [r3, #1]
    180c:	b2db      	uxtb	r3, r3
    180e:	f043 0360 	orr.w	r3, r3, #96	; 0x60
    1812:	b2da      	uxtb	r2, r3
    1814:	687b      	ldr	r3, [r7, #4]
    1816:	705a      	strb	r2, [r3, #1]
    1818:	bf00      	nop
    181a:	6878      	ldr	r0, [r7, #4]
    181c:	f000 f8ee 	bl	19fc <SMC_HAL_GetStat>
    1820:	4603      	mov	r3, r0
    1822:	2b80      	cmp	r3, #128	; 0x80
    1824:	d1f9      	bne.n	181a <SMC_HAL_SetPowerModeHsrun+0x1a>
    1826:	3708      	adds	r7, #8
    1828:	46bd      	mov	sp, r7
    182a:	bd80      	pop	{r7, pc}

0000182c <SMC_HAL_SetMode>:
    182c:	b580      	push	{r7, lr}
    182e:	b084      	sub	sp, #16
    1830:	af00      	add	r7, sp, #0
    1832:	6078      	str	r0, [r7, #4]
    1834:	6039      	str	r1, [r7, #0]
    1836:	6878      	ldr	r0, [r7, #4]
    1838:	f000 f8e0 	bl	19fc <SMC_HAL_GetStat>
    183c:	4603      	mov	r3, r0
    183e:	73bb      	strb	r3, [r7, #14]
    1840:	7bbb      	ldrb	r3, [r7, #14]
    1842:	2b04      	cmp	r3, #4
    1844:	d010      	beq.n	1868 <SMC_HAL_SetMode+0x3c>
    1846:	2b80      	cmp	r3, #128	; 0x80
    1848:	d01a      	beq.n	1880 <SMC_HAL_SetMode+0x54>
    184a:	2b01      	cmp	r3, #1
    184c:	d000      	beq.n	1850 <SMC_HAL_SetMode+0x24>
    184e:	e02e      	b.n	18ae <SMC_HAL_SetMode+0x82>
    1850:	683b      	ldr	r3, [r7, #0]
    1852:	881b      	ldrh	r3, [r3, #0]
    1854:	f003 0310 	and.w	r3, r3, #16
    1858:	b29b      	uxth	r3, r3
    185a:	2b00      	cmp	r3, #0
    185c:	d003      	beq.n	1866 <SMC_HAL_SetMode+0x3a>
    185e:	6878      	ldr	r0, [r7, #4]
    1860:	f7ff ffb4 	bl	17cc <SMC_HAL_SetPowerModeVlpr>
    1864:	e023      	b.n	18ae <SMC_HAL_SetMode+0x82>
    1866:	e022      	b.n	18ae <SMC_HAL_SetMode+0x82>
    1868:	683b      	ldr	r3, [r7, #0]
    186a:	881b      	ldrh	r3, [r3, #0]
    186c:	f403 7383 	and.w	r3, r3, #262	; 0x106
    1870:	b29b      	uxth	r3, r3
    1872:	2b00      	cmp	r3, #0
    1874:	d003      	beq.n	187e <SMC_HAL_SetMode+0x52>
    1876:	6878      	ldr	r0, [r7, #4]
    1878:	f7ff ff92 	bl	17a0 <SMC_HAL_SetPowerModeRun>
    187c:	e017      	b.n	18ae <SMC_HAL_SetMode+0x82>
    187e:	e016      	b.n	18ae <SMC_HAL_SetMode+0x82>
    1880:	683b      	ldr	r3, [r7, #0]
    1882:	881a      	ldrh	r2, [r3, #0]
    1884:	f240 1301 	movw	r3, #257	; 0x101
    1888:	4013      	ands	r3, r2
    188a:	b29b      	uxth	r3, r3
    188c:	2b00      	cmp	r3, #0
    188e:	d10d      	bne.n	18ac <SMC_HAL_SetMode+0x80>
    1890:	6878      	ldr	r0, [r7, #4]
    1892:	f7ff ff85 	bl	17a0 <SMC_HAL_SetPowerModeRun>
    1896:	683b      	ldr	r3, [r7, #0]
    1898:	881b      	ldrh	r3, [r3, #0]
    189a:	f003 0310 	and.w	r3, r3, #16
    189e:	b29b      	uxth	r3, r3
    18a0:	2b00      	cmp	r3, #0
    18a2:	d003      	beq.n	18ac <SMC_HAL_SetMode+0x80>
    18a4:	6878      	ldr	r0, [r7, #4]
    18a6:	f7ff ff91 	bl	17cc <SMC_HAL_SetPowerModeVlpr>
    18aa:	e7ff      	b.n	18ac <SMC_HAL_SetMode+0x80>
    18ac:	bf00      	nop
    18ae:	683b      	ldr	r3, [r7, #0]
    18b0:	881b      	ldrh	r3, [r3, #0]
    18b2:	2b10      	cmp	r3, #16
    18b4:	d026      	beq.n	1904 <SMC_HAL_SetMode+0xd8>
    18b6:	2b10      	cmp	r3, #16
    18b8:	dc0b      	bgt.n	18d2 <SMC_HAL_SetMode+0xa6>
    18ba:	2b02      	cmp	r3, #2
    18bc:	d022      	beq.n	1904 <SMC_HAL_SetMode+0xd8>
    18be:	2b02      	cmp	r3, #2
    18c0:	dc02      	bgt.n	18c8 <SMC_HAL_SetMode+0x9c>
    18c2:	2b01      	cmp	r3, #1
    18c4:	d012      	beq.n	18ec <SMC_HAL_SetMode+0xc0>
    18c6:	e091      	b.n	19ec <SMC_HAL_SetMode+0x1c0>
    18c8:	2b04      	cmp	r3, #4
    18ca:	d029      	beq.n	1920 <SMC_HAL_SetMode+0xf4>
    18cc:	2b08      	cmp	r3, #8
    18ce:	d011      	beq.n	18f4 <SMC_HAL_SetMode+0xc8>
    18d0:	e08c      	b.n	19ec <SMC_HAL_SetMode+0x1c0>
    18d2:	2b40      	cmp	r3, #64	; 0x40
    18d4:	d024      	beq.n	1920 <SMC_HAL_SetMode+0xf4>
    18d6:	2b40      	cmp	r3, #64	; 0x40
    18d8:	dc02      	bgt.n	18e0 <SMC_HAL_SetMode+0xb4>
    18da:	2b20      	cmp	r3, #32
    18dc:	d020      	beq.n	1920 <SMC_HAL_SetMode+0xf4>
    18de:	e085      	b.n	19ec <SMC_HAL_SetMode+0x1c0>
    18e0:	2b80      	cmp	r3, #128	; 0x80
    18e2:	d01d      	beq.n	1920 <SMC_HAL_SetMode+0xf4>
    18e4:	f5b3 7f80 	cmp.w	r3, #256	; 0x100
    18e8:	d008      	beq.n	18fc <SMC_HAL_SetMode+0xd0>
    18ea:	e07f      	b.n	19ec <SMC_HAL_SetMode+0x1c0>
    18ec:	6878      	ldr	r0, [r7, #4]
    18ee:	f7ff ff57 	bl	17a0 <SMC_HAL_SetPowerModeRun>
    18f2:	e07b      	b.n	19ec <SMC_HAL_SetMode+0x1c0>
    18f4:	6878      	ldr	r0, [r7, #4]
    18f6:	f7ff ff69 	bl	17cc <SMC_HAL_SetPowerModeVlpr>
    18fa:	e077      	b.n	19ec <SMC_HAL_SetMode+0x1c0>
    18fc:	6878      	ldr	r0, [r7, #4]
    18fe:	f7ff ff7f 	bl	1800 <SMC_HAL_SetPowerModeHsrun>
    1902:	e073      	b.n	19ec <SMC_HAL_SetMode+0x1c0>
    1904:	4b3c      	ldr	r3, [pc, #240]	; (19f8 <SMC_HAL_SetMode+0x1cc>)
    1906:	4a3c      	ldr	r2, [pc, #240]	; (19f8 <SMC_HAL_SetMode+0x1cc>)
    1908:	6912      	ldr	r2, [r2, #16]
    190a:	f022 0204 	bic.w	r2, r2, #4
    190e:	611a      	str	r2, [r3, #16]
    1910:	687b      	ldr	r3, [r7, #4]
    1912:	785b      	ldrb	r3, [r3, #1]
    1914:	b2db      	uxtb	r3, r3
    1916:	60bb      	str	r3, [r7, #8]
    1918:	68bb      	ldr	r3, [r7, #8]
    191a:	60bb      	str	r3, [r7, #8]
    191c:	bf30      	wfi
    191e:	e065      	b.n	19ec <SMC_HAL_SetMode+0x1c0>
    1920:	687b      	ldr	r3, [r7, #4]
    1922:	789b      	ldrb	r3, [r3, #2]
    1924:	b2db      	uxtb	r3, r3
    1926:	f003 033f 	and.w	r3, r3, #63	; 0x3f
    192a:	b2da      	uxtb	r2, r3
    192c:	683b      	ldr	r3, [r7, #0]
    192e:	791b      	ldrb	r3, [r3, #4]
    1930:	019b      	lsls	r3, r3, #6
    1932:	b2db      	uxtb	r3, r3
    1934:	4313      	orrs	r3, r2
    1936:	b2da      	uxtb	r2, r3
    1938:	687b      	ldr	r3, [r7, #4]
    193a:	709a      	strb	r2, [r3, #2]
    193c:	687b      	ldr	r3, [r7, #4]
    193e:	3302      	adds	r3, #2
    1940:	f103 7304 	add.w	r3, r3, #34603008	; 0x2100000
    1944:	015b      	lsls	r3, r3, #5
    1946:	3314      	adds	r3, #20
    1948:	683a      	ldr	r2, [r7, #0]
    194a:	78d2      	ldrb	r2, [r2, #3]
    194c:	701a      	strb	r2, [r3, #0]
    194e:	683b      	ldr	r3, [r7, #0]
    1950:	881b      	ldrh	r3, [r3, #0]
    1952:	2b04      	cmp	r3, #4
    1954:	d102      	bne.n	195c <SMC_HAL_SetMode+0x130>
    1956:	2300      	movs	r3, #0
    1958:	73fb      	strb	r3, [r7, #15]
    195a:	e02d      	b.n	19b8 <SMC_HAL_SetMode+0x18c>
    195c:	683b      	ldr	r3, [r7, #0]
    195e:	881b      	ldrh	r3, [r3, #0]
    1960:	2b20      	cmp	r3, #32
    1962:	d102      	bne.n	196a <SMC_HAL_SetMode+0x13e>
    1964:	2302      	movs	r3, #2
    1966:	73fb      	strb	r3, [r7, #15]
    1968:	e026      	b.n	19b8 <SMC_HAL_SetMode+0x18c>
    196a:	683b      	ldr	r3, [r7, #0]
    196c:	881b      	ldrh	r3, [r3, #0]
    196e:	2b40      	cmp	r3, #64	; 0x40
    1970:	d111      	bne.n	1996 <SMC_HAL_SetMode+0x16a>
    1972:	2303      	movs	r3, #3
    1974:	73fb      	strb	r3, [r7, #15]
    1976:	687b      	ldr	r3, [r7, #4]
    1978:	789b      	ldrb	r3, [r3, #2]
    197a:	b2db      	uxtb	r3, r3
    197c:	f023 0307 	bic.w	r3, r3, #7
    1980:	b2da      	uxtb	r2, r3
    1982:	683b      	ldr	r3, [r7, #0]
    1984:	789b      	ldrb	r3, [r3, #2]
    1986:	f003 0307 	and.w	r3, r3, #7
    198a:	b2db      	uxtb	r3, r3
    198c:	4313      	orrs	r3, r2
    198e:	b2da      	uxtb	r2, r3
    1990:	687b      	ldr	r3, [r7, #4]
    1992:	709a      	strb	r2, [r3, #2]
    1994:	e010      	b.n	19b8 <SMC_HAL_SetMode+0x18c>
    1996:	2304      	movs	r3, #4
    1998:	73fb      	strb	r3, [r7, #15]
    199a:	687b      	ldr	r3, [r7, #4]
    199c:	789b      	ldrb	r3, [r3, #2]
    199e:	b2db      	uxtb	r3, r3
    19a0:	f023 0307 	bic.w	r3, r3, #7
    19a4:	b2da      	uxtb	r2, r3
    19a6:	683b      	ldr	r3, [r7, #0]
    19a8:	789b      	ldrb	r3, [r3, #2]
    19aa:	f003 0307 	and.w	r3, r3, #7
    19ae:	b2db      	uxtb	r3, r3
    19b0:	4313      	orrs	r3, r2
    19b2:	b2da      	uxtb	r2, r3
    19b4:	687b      	ldr	r3, [r7, #4]
    19b6:	709a      	strb	r2, [r3, #2]
    19b8:	687b      	ldr	r3, [r7, #4]
    19ba:	785b      	ldrb	r3, [r3, #1]
    19bc:	b2db      	uxtb	r3, r3
    19be:	f023 0307 	bic.w	r3, r3, #7
    19c2:	b2da      	uxtb	r2, r3
    19c4:	7bfb      	ldrb	r3, [r7, #15]
    19c6:	f003 0307 	and.w	r3, r3, #7
    19ca:	b2db      	uxtb	r3, r3
    19cc:	4313      	orrs	r3, r2
    19ce:	b2da      	uxtb	r2, r3
    19d0:	687b      	ldr	r3, [r7, #4]
    19d2:	705a      	strb	r2, [r3, #1]
    19d4:	4b08      	ldr	r3, [pc, #32]	; (19f8 <SMC_HAL_SetMode+0x1cc>)
    19d6:	4a08      	ldr	r2, [pc, #32]	; (19f8 <SMC_HAL_SetMode+0x1cc>)
    19d8:	6912      	ldr	r2, [r2, #16]
    19da:	f042 0204 	orr.w	r2, r2, #4
    19de:	611a      	str	r2, [r3, #16]
    19e0:	687b      	ldr	r3, [r7, #4]
    19e2:	785b      	ldrb	r3, [r3, #1]
    19e4:	b2db      	uxtb	r3, r3
    19e6:	60bb      	str	r3, [r7, #8]
    19e8:	bf30      	wfi
    19ea:	bf00      	nop
    19ec:	2300      	movs	r3, #0
    19ee:	4618      	mov	r0, r3
    19f0:	3710      	adds	r7, #16
    19f2:	46bd      	mov	sp, r7
    19f4:	bd80      	pop	{r7, pc}
    19f6:	bf00      	nop
    19f8:	e000ed00 	and	lr, r0, r0, lsl #26

000019fc <SMC_HAL_GetStat>:
    19fc:	b480      	push	{r7}
    19fe:	b083      	sub	sp, #12
    1a00:	af00      	add	r7, sp, #0
    1a02:	6078      	str	r0, [r7, #4]
    1a04:	687b      	ldr	r3, [r7, #4]
    1a06:	78db      	ldrb	r3, [r3, #3]
    1a08:	b2db      	uxtb	r3, r3
    1a0a:	4618      	mov	r0, r3
    1a0c:	370c      	adds	r7, #12
    1a0e:	46bd      	mov	sp, r7
    1a10:	f85d 7b04 	ldr.w	r7, [sp], #4
    1a14:	4770      	bx	lr
    1a16:	bf00      	nop

00001a18 <LPUART_HAL_Putchar>:
    1a18:	b480      	push	{r7}
    1a1a:	b083      	sub	sp, #12
    1a1c:	af00      	add	r7, sp, #0
    1a1e:	6078      	str	r0, [r7, #4]
    1a20:	460b      	mov	r3, r1
    1a22:	70fb      	strb	r3, [r7, #3]
    1a24:	78fa      	ldrb	r2, [r7, #3]
    1a26:	687b      	ldr	r3, [r7, #4]
    1a28:	60da      	str	r2, [r3, #12]
    1a2a:	370c      	adds	r7, #12
    1a2c:	46bd      	mov	sp, r7
    1a2e:	f85d 7b04 	ldr.w	r7, [sp], #4
    1a32:	4770      	bx	lr

00001a34 <LPUART_HAL_Getchar>:
    1a34:	b480      	push	{r7}
    1a36:	b083      	sub	sp, #12
    1a38:	af00      	add	r7, sp, #0
    1a3a:	6078      	str	r0, [r7, #4]
    1a3c:	6039      	str	r1, [r7, #0]
    1a3e:	687b      	ldr	r3, [r7, #4]
    1a40:	68db      	ldr	r3, [r3, #12]
    1a42:	b2da      	uxtb	r2, r3
    1a44:	683b      	ldr	r3, [r7, #0]
    1a46:	701a      	strb	r2, [r3, #0]
    1a48:	370c      	adds	r7, #12
    1a4a:	46bd      	mov	sp, r7
    1a4c:	f85d 7b04 	ldr.w	r7, [sp], #4
    1a50:	4770      	bx	lr
    1a52:	bf00      	nop

00001a54 <LPUART_HAL_SetBaudRate>:
    1a54:	b480      	push	{r7}
    1a56:	b08b      	sub	sp, #44	; 0x2c
    1a58:	af00      	add	r7, sp, #0
    1a5a:	60f8      	str	r0, [r7, #12]
    1a5c:	60b9      	str	r1, [r7, #8]
    1a5e:	607a      	str	r2, [r7, #4]
    1a60:	2304      	movs	r3, #4
    1a62:	61fb      	str	r3, [r7, #28]
    1a64:	687b      	ldr	r3, [r7, #4]
    1a66:	69fa      	ldr	r2, [r7, #28]
    1a68:	fb02 f303 	mul.w	r3, r2, r3
    1a6c:	68ba      	ldr	r2, [r7, #8]
    1a6e:	fbb2 f3f3 	udiv	r3, r2, r3
    1a72:	84fb      	strh	r3, [r7, #38]	; 0x26
    1a74:	8cfb      	ldrh	r3, [r7, #38]	; 0x26
    1a76:	2b00      	cmp	r3, #0
    1a78:	d101      	bne.n	1a7e <LPUART_HAL_SetBaudRate+0x2a>
    1a7a:	2301      	movs	r3, #1
    1a7c:	84fb      	strh	r3, [r7, #38]	; 0x26
    1a7e:	8cfb      	ldrh	r3, [r7, #38]	; 0x26
    1a80:	69fa      	ldr	r2, [r7, #28]
    1a82:	fb02 f303 	mul.w	r3, r2, r3
    1a86:	68ba      	ldr	r2, [r7, #8]
    1a88:	fbb2 f3f3 	udiv	r3, r2, r3
    1a8c:	613b      	str	r3, [r7, #16]
    1a8e:	693a      	ldr	r2, [r7, #16]
    1a90:	687b      	ldr	r3, [r7, #4]
    1a92:	429a      	cmp	r2, r3
    1a94:	d904      	bls.n	1aa0 <LPUART_HAL_SetBaudRate+0x4c>
    1a96:	693a      	ldr	r2, [r7, #16]
    1a98:	687b      	ldr	r3, [r7, #4]
    1a9a:	1ad3      	subs	r3, r2, r3
    1a9c:	617b      	str	r3, [r7, #20]
    1a9e:	e003      	b.n	1aa8 <LPUART_HAL_SetBaudRate+0x54>
    1aa0:	687a      	ldr	r2, [r7, #4]
    1aa2:	693b      	ldr	r3, [r7, #16]
    1aa4:	1ad3      	subs	r3, r2, r3
    1aa6:	617b      	str	r3, [r7, #20]
    1aa8:	2305      	movs	r3, #5
    1aaa:	847b      	strh	r3, [r7, #34]	; 0x22
    1aac:	e02e      	b.n	1b0c <LPUART_HAL_SetBaudRate+0xb8>
    1aae:	8c7b      	ldrh	r3, [r7, #34]	; 0x22
    1ab0:	687a      	ldr	r2, [r7, #4]
    1ab2:	fb02 f303 	mul.w	r3, r2, r3
    1ab6:	68ba      	ldr	r2, [r7, #8]
    1ab8:	fbb2 f3f3 	udiv	r3, r2, r3
    1abc:	84bb      	strh	r3, [r7, #36]	; 0x24
    1abe:	8cbb      	ldrh	r3, [r7, #36]	; 0x24
    1ac0:	2b00      	cmp	r3, #0
    1ac2:	d101      	bne.n	1ac8 <LPUART_HAL_SetBaudRate+0x74>
    1ac4:	2301      	movs	r3, #1
    1ac6:	84bb      	strh	r3, [r7, #36]	; 0x24
    1ac8:	8c7b      	ldrh	r3, [r7, #34]	; 0x22
    1aca:	8cba      	ldrh	r2, [r7, #36]	; 0x24
    1acc:	fb02 f303 	mul.w	r3, r2, r3
    1ad0:	68ba      	ldr	r2, [r7, #8]
    1ad2:	fbb2 f3f3 	udiv	r3, r2, r3
    1ad6:	613b      	str	r3, [r7, #16]
    1ad8:	693a      	ldr	r2, [r7, #16]
    1ada:	687b      	ldr	r3, [r7, #4]
    1adc:	429a      	cmp	r2, r3
    1ade:	d904      	bls.n	1aea <LPUART_HAL_SetBaudRate+0x96>
    1ae0:	693a      	ldr	r2, [r7, #16]
    1ae2:	687b      	ldr	r3, [r7, #4]
    1ae4:	1ad3      	subs	r3, r2, r3
    1ae6:	61bb      	str	r3, [r7, #24]
    1ae8:	e003      	b.n	1af2 <LPUART_HAL_SetBaudRate+0x9e>
    1aea:	687a      	ldr	r2, [r7, #4]
    1aec:	693b      	ldr	r3, [r7, #16]
    1aee:	1ad3      	subs	r3, r2, r3
    1af0:	61bb      	str	r3, [r7, #24]
    1af2:	69ba      	ldr	r2, [r7, #24]
    1af4:	697b      	ldr	r3, [r7, #20]
    1af6:	429a      	cmp	r2, r3
    1af8:	d805      	bhi.n	1b06 <LPUART_HAL_SetBaudRate+0xb2>
    1afa:	69bb      	ldr	r3, [r7, #24]
    1afc:	617b      	str	r3, [r7, #20]
    1afe:	8c7b      	ldrh	r3, [r7, #34]	; 0x22
    1b00:	61fb      	str	r3, [r7, #28]
    1b02:	8cbb      	ldrh	r3, [r7, #36]	; 0x24
    1b04:	84fb      	strh	r3, [r7, #38]	; 0x26
    1b06:	8c7b      	ldrh	r3, [r7, #34]	; 0x22
    1b08:	3301      	adds	r3, #1
    1b0a:	847b      	strh	r3, [r7, #34]	; 0x22
    1b0c:	8c7b      	ldrh	r3, [r7, #34]	; 0x22
    1b0e:	2b20      	cmp	r3, #32
    1b10:	d9cd      	bls.n	1aae <LPUART_HAL_SetBaudRate+0x5a>
    1b12:	687a      	ldr	r2, [r7, #4]
    1b14:	4b1b      	ldr	r3, [pc, #108]	; (1b84 <LPUART_HAL_SetBaudRate+0x130>)
    1b16:	fba3 1302 	umull	r1, r3, r3, r2
    1b1a:	095a      	lsrs	r2, r3, #5
    1b1c:	4613      	mov	r3, r2
    1b1e:	005b      	lsls	r3, r3, #1
    1b20:	441a      	add	r2, r3
    1b22:	697b      	ldr	r3, [r7, #20]
    1b24:	429a      	cmp	r2, r3
    1b26:	d926      	bls.n	1b76 <LPUART_HAL_SetBaudRate+0x122>
    1b28:	69fb      	ldr	r3, [r7, #28]
    1b2a:	2b03      	cmp	r3, #3
    1b2c:	d909      	bls.n	1b42 <LPUART_HAL_SetBaudRate+0xee>
    1b2e:	69fb      	ldr	r3, [r7, #28]
    1b30:	2b07      	cmp	r3, #7
    1b32:	d806      	bhi.n	1b42 <LPUART_HAL_SetBaudRate+0xee>
    1b34:	68fb      	ldr	r3, [r7, #12]
    1b36:	f103 7304 	add.w	r3, r3, #34603008	; 0x2100000
    1b3a:	015b      	lsls	r3, r3, #5
    1b3c:	3344      	adds	r3, #68	; 0x44
    1b3e:	2201      	movs	r2, #1
    1b40:	601a      	str	r2, [r3, #0]
    1b42:	68fb      	ldr	r3, [r7, #12]
    1b44:	681b      	ldr	r3, [r3, #0]
    1b46:	f023 52f8 	bic.w	r2, r3, #520093696	; 0x1f000000
    1b4a:	69fb      	ldr	r3, [r7, #28]
    1b4c:	3b01      	subs	r3, #1
    1b4e:	061b      	lsls	r3, r3, #24
    1b50:	f003 53f8 	and.w	r3, r3, #520093696	; 0x1f000000
    1b54:	431a      	orrs	r2, r3
    1b56:	68fb      	ldr	r3, [r7, #12]
    1b58:	601a      	str	r2, [r3, #0]
    1b5a:	68fb      	ldr	r3, [r7, #12]
    1b5c:	681b      	ldr	r3, [r3, #0]
    1b5e:	f423 53ff 	bic.w	r3, r3, #8160	; 0x1fe0
    1b62:	f023 031f 	bic.w	r3, r3, #31
    1b66:	8cfa      	ldrh	r2, [r7, #38]	; 0x26
    1b68:	f3c2 020c 	ubfx	r2, r2, #0, #13
    1b6c:	431a      	orrs	r2, r3
    1b6e:	68fb      	ldr	r3, [r7, #12]
    1b70:	601a      	str	r2, [r3, #0]
    1b72:	2300      	movs	r3, #0
    1b74:	e000      	b.n	1b78 <LPUART_HAL_SetBaudRate+0x124>
    1b76:	2302      	movs	r3, #2
    1b78:	4618      	mov	r0, r3
    1b7a:	372c      	adds	r7, #44	; 0x2c
    1b7c:	46bd      	mov	sp, r7
    1b7e:	f85d 7b04 	ldr.w	r7, [sp], #4
    1b82:	4770      	bx	lr
    1b84:	51eb851f 	mvnpl	r8, pc, lsl r5

00001b88 <LPUART_HAL_SetBitCountPerChar>:
    1b88:	b480      	push	{r7}
    1b8a:	b083      	sub	sp, #12
    1b8c:	af00      	add	r7, sp, #0
    1b8e:	6078      	str	r0, [r7, #4]
    1b90:	460b      	mov	r3, r1
    1b92:	70fb      	strb	r3, [r7, #3]
    1b94:	78fb      	ldrb	r3, [r7, #3]
    1b96:	2b02      	cmp	r3, #2
    1b98:	d107      	bne.n	1baa <LPUART_HAL_SetBitCountPerChar+0x22>
    1b9a:	687b      	ldr	r3, [r7, #4]
    1b9c:	f103 7304 	add.w	r3, r3, #34603008	; 0x2100000
    1ba0:	015b      	lsls	r3, r3, #5
    1ba2:	3374      	adds	r3, #116	; 0x74
    1ba4:	2201      	movs	r2, #1
    1ba6:	601a      	str	r2, [r3, #0]
    1ba8:	e00e      	b.n	1bc8 <LPUART_HAL_SetBitCountPerChar+0x40>
    1baa:	687b      	ldr	r3, [r7, #4]
    1bac:	3308      	adds	r3, #8
    1bae:	f103 7304 	add.w	r3, r3, #34603008	; 0x2100000
    1bb2:	015b      	lsls	r3, r3, #5
    1bb4:	3310      	adds	r3, #16
    1bb6:	78fa      	ldrb	r2, [r7, #3]
    1bb8:	601a      	str	r2, [r3, #0]
    1bba:	687b      	ldr	r3, [r7, #4]
    1bbc:	f103 7304 	add.w	r3, r3, #34603008	; 0x2100000
    1bc0:	015b      	lsls	r3, r3, #5
    1bc2:	3374      	adds	r3, #116	; 0x74
    1bc4:	2200      	movs	r2, #0
    1bc6:	601a      	str	r2, [r3, #0]
    1bc8:	370c      	adds	r7, #12
    1bca:	46bd      	mov	sp, r7
    1bcc:	f85d 7b04 	ldr.w	r7, [sp], #4
    1bd0:	4770      	bx	lr
    1bd2:	bf00      	nop

00001bd4 <LPUART_HAL_SetParityMode>:
    1bd4:	b480      	push	{r7}
    1bd6:	b083      	sub	sp, #12
    1bd8:	af00      	add	r7, sp, #0
    1bda:	6078      	str	r0, [r7, #4]
    1bdc:	460b      	mov	r3, r1
    1bde:	70fb      	strb	r3, [r7, #3]
    1be0:	687b      	ldr	r3, [r7, #4]
    1be2:	3308      	adds	r3, #8
    1be4:	f103 7304 	add.w	r3, r3, #34603008	; 0x2100000
    1be8:	015b      	lsls	r3, r3, #5
    1bea:	3304      	adds	r3, #4
    1bec:	78fa      	ldrb	r2, [r7, #3]
    1bee:	0852      	lsrs	r2, r2, #1
    1bf0:	b2d2      	uxtb	r2, r2
    1bf2:	601a      	str	r2, [r3, #0]
    1bf4:	687b      	ldr	r3, [r7, #4]
    1bf6:	3308      	adds	r3, #8
    1bf8:	f103 7304 	add.w	r3, r3, #34603008	; 0x2100000
    1bfc:	015b      	lsls	r3, r3, #5
    1bfe:	78fa      	ldrb	r2, [r7, #3]
    1c00:	f002 0201 	and.w	r2, r2, #1
    1c04:	601a      	str	r2, [r3, #0]
    1c06:	370c      	adds	r7, #12
    1c08:	46bd      	mov	sp, r7
    1c0a:	f85d 7b04 	ldr.w	r7, [sp], #4
    1c0e:	4770      	bx	lr

00001c10 <LPUART_HAL_SendDataPolling>:
    1c10:	b580      	push	{r7, lr}
    1c12:	b084      	sub	sp, #16
    1c14:	af00      	add	r7, sp, #0
    1c16:	60f8      	str	r0, [r7, #12]
    1c18:	60b9      	str	r1, [r7, #8]
    1c1a:	607a      	str	r2, [r7, #4]
    1c1c:	e011      	b.n	1c42 <LPUART_HAL_SendDataPolling+0x32>
    1c1e:	bf00      	nop
    1c20:	68fb      	ldr	r3, [r7, #12]
    1c22:	3304      	adds	r3, #4
    1c24:	f103 7304 	add.w	r3, r3, #34603008	; 0x2100000
    1c28:	015b      	lsls	r3, r3, #5
    1c2a:	335c      	adds	r3, #92	; 0x5c
    1c2c:	681b      	ldr	r3, [r3, #0]
    1c2e:	2b00      	cmp	r3, #0
    1c30:	d0f6      	beq.n	1c20 <LPUART_HAL_SendDataPolling+0x10>
    1c32:	68bb      	ldr	r3, [r7, #8]
    1c34:	1c5a      	adds	r2, r3, #1
    1c36:	60ba      	str	r2, [r7, #8]
    1c38:	781b      	ldrb	r3, [r3, #0]
    1c3a:	68f8      	ldr	r0, [r7, #12]
    1c3c:	4619      	mov	r1, r3
    1c3e:	f7ff feeb 	bl	1a18 <LPUART_HAL_Putchar>
    1c42:	687b      	ldr	r3, [r7, #4]
    1c44:	1e5a      	subs	r2, r3, #1
    1c46:	607a      	str	r2, [r7, #4]
    1c48:	2b00      	cmp	r3, #0
    1c4a:	d1e8      	bne.n	1c1e <LPUART_HAL_SendDataPolling+0xe>
    1c4c:	3710      	adds	r7, #16
    1c4e:	46bd      	mov	sp, r7
    1c50:	bd80      	pop	{r7, pc}
    1c52:	bf00      	nop

00001c54 <LPUART_HAL_ReceiveDataPolling>:
    1c54:	b580      	push	{r7, lr}
    1c56:	b086      	sub	sp, #24
    1c58:	af00      	add	r7, sp, #0
    1c5a:	60f8      	str	r0, [r7, #12]
    1c5c:	60b9      	str	r1, [r7, #8]
    1c5e:	607a      	str	r2, [r7, #4]
    1c60:	2300      	movs	r3, #0
    1c62:	75fb      	strb	r3, [r7, #23]
    1c64:	e023      	b.n	1cae <LPUART_HAL_ReceiveDataPolling+0x5a>
    1c66:	bf00      	nop
    1c68:	68fb      	ldr	r3, [r7, #12]
    1c6a:	3304      	adds	r3, #4
    1c6c:	f103 7304 	add.w	r3, r3, #34603008	; 0x2100000
    1c70:	015b      	lsls	r3, r3, #5
    1c72:	3354      	adds	r3, #84	; 0x54
    1c74:	681b      	ldr	r3, [r3, #0]
    1c76:	2b00      	cmp	r3, #0
    1c78:	d0f6      	beq.n	1c68 <LPUART_HAL_ReceiveDataPolling+0x14>
    1c7a:	68bb      	ldr	r3, [r7, #8]
    1c7c:	1c5a      	adds	r2, r3, #1
    1c7e:	60ba      	str	r2, [r7, #8]
    1c80:	68f8      	ldr	r0, [r7, #12]
    1c82:	4619      	mov	r1, r3
    1c84:	f7ff fed6 	bl	1a34 <LPUART_HAL_Getchar>
    1c88:	68fb      	ldr	r3, [r7, #12]
    1c8a:	3304      	adds	r3, #4
    1c8c:	f103 7304 	add.w	r3, r3, #34603008	; 0x2100000
    1c90:	015b      	lsls	r3, r3, #5
    1c92:	334c      	adds	r3, #76	; 0x4c
    1c94:	681b      	ldr	r3, [r3, #0]
    1c96:	2b00      	cmp	r3, #0
    1c98:	d009      	beq.n	1cae <LPUART_HAL_ReceiveDataPolling+0x5a>
    1c9a:	68fb      	ldr	r3, [r7, #12]
    1c9c:	3304      	adds	r3, #4
    1c9e:	f103 7304 	add.w	r3, r3, #34603008	; 0x2100000
    1ca2:	015b      	lsls	r3, r3, #5
    1ca4:	334c      	adds	r3, #76	; 0x4c
    1ca6:	2201      	movs	r2, #1
    1ca8:	601a      	str	r2, [r3, #0]
    1caa:	230f      	movs	r3, #15
    1cac:	75fb      	strb	r3, [r7, #23]
    1cae:	687b      	ldr	r3, [r7, #4]
    1cb0:	1e5a      	subs	r2, r3, #1
    1cb2:	607a      	str	r2, [r7, #4]
    1cb4:	2b00      	cmp	r3, #0
    1cb6:	d1d6      	bne.n	1c66 <LPUART_HAL_ReceiveDataPolling+0x12>
    1cb8:	7dfb      	ldrb	r3, [r7, #23]
    1cba:	4618      	mov	r0, r3
    1cbc:	3718      	adds	r7, #24
    1cbe:	46bd      	mov	sp, r7
    1cc0:	bd80      	pop	{r7, pc}
    1cc2:	bf00      	nop

00001cc4 <NVIC_EnableIRQ>:
    1cc4:	b480      	push	{r7}
    1cc6:	b083      	sub	sp, #12
    1cc8:	af00      	add	r7, sp, #0
    1cca:	4603      	mov	r3, r0
    1ccc:	71fb      	strb	r3, [r7, #7]
    1cce:	4b08      	ldr	r3, [pc, #32]	; (1cf0 <NVIC_EnableIRQ+0x2c>)
    1cd0:	f997 2007 	ldrsb.w	r2, [r7, #7]
    1cd4:	0952      	lsrs	r2, r2, #5
    1cd6:	79f9      	ldrb	r1, [r7, #7]
    1cd8:	f001 011f 	and.w	r1, r1, #31
    1cdc:	2001      	movs	r0, #1
    1cde:	fa00 f101 	lsl.w	r1, r0, r1
    1ce2:	f843 1022 	str.w	r1, [r3, r2, lsl #2]
    1ce6:	370c      	adds	r7, #12
    1ce8:	46bd      	mov	sp, r7
    1cea:	f85d 7b04 	ldr.w	r7, [sp], #4
    1cee:	4770      	bx	lr
    1cf0:	e000e100 	and	lr, r0, r0, lsl #2

00001cf4 <NVIC_DisableIRQ>:
    1cf4:	b480      	push	{r7}
    1cf6:	b083      	sub	sp, #12
    1cf8:	af00      	add	r7, sp, #0
    1cfa:	4603      	mov	r3, r0
    1cfc:	71fb      	strb	r3, [r7, #7]
    1cfe:	4b09      	ldr	r3, [pc, #36]	; (1d24 <NVIC_DisableIRQ+0x30>)
    1d00:	f997 2007 	ldrsb.w	r2, [r7, #7]
    1d04:	0952      	lsrs	r2, r2, #5
    1d06:	79f9      	ldrb	r1, [r7, #7]
    1d08:	f001 011f 	and.w	r1, r1, #31
    1d0c:	2001      	movs	r0, #1
    1d0e:	fa00 f101 	lsl.w	r1, r0, r1
    1d12:	3220      	adds	r2, #32
    1d14:	f843 1022 	str.w	r1, [r3, r2, lsl #2]
    1d18:	370c      	adds	r7, #12
    1d1a:	46bd      	mov	sp, r7
    1d1c:	f85d 7b04 	ldr.w	r7, [sp], #4
    1d20:	4770      	bx	lr
    1d22:	bf00      	nop
    1d24:	e000e100 	and	lr, r0, r0, lsl #2

00001d28 <LPTMR_HAL_Enable>:
    1d28:	b480      	push	{r7}
    1d2a:	b083      	sub	sp, #12
    1d2c:	af00      	add	r7, sp, #0
    1d2e:	6078      	str	r0, [r7, #4]
    1d30:	687b      	ldr	r3, [r7, #4]
    1d32:	f103 7304 	add.w	r3, r3, #34603008	; 0x2100000
    1d36:	015b      	lsls	r3, r3, #5
    1d38:	2201      	movs	r2, #1
    1d3a:	601a      	str	r2, [r3, #0]
    1d3c:	370c      	adds	r7, #12
    1d3e:	46bd      	mov	sp, r7
    1d40:	f85d 7b04 	ldr.w	r7, [sp], #4
    1d44:	4770      	bx	lr
    1d46:	bf00      	nop

00001d48 <LPTMR_HAL_Disable>:
    1d48:	b480      	push	{r7}
    1d4a:	b083      	sub	sp, #12
    1d4c:	af00      	add	r7, sp, #0
    1d4e:	6078      	str	r0, [r7, #4]
    1d50:	687b      	ldr	r3, [r7, #4]
    1d52:	f103 7304 	add.w	r3, r3, #34603008	; 0x2100000
    1d56:	015b      	lsls	r3, r3, #5
    1d58:	2200      	movs	r2, #0
    1d5a:	601a      	str	r2, [r3, #0]
    1d5c:	370c      	adds	r7, #12
    1d5e:	46bd      	mov	sp, r7
    1d60:	f85d 7b04 	ldr.w	r7, [sp], #4
    1d64:	4770      	bx	lr
    1d66:	bf00      	nop

00001d68 <LPTMR_HAL_ClearIntFlag>:
    1d68:	b480      	push	{r7}
    1d6a:	b083      	sub	sp, #12
    1d6c:	af00      	add	r7, sp, #0
    1d6e:	6078      	str	r0, [r7, #4]
    1d70:	687b      	ldr	r3, [r7, #4]
    1d72:	f103 7304 	add.w	r3, r3, #34603008	; 0x2100000
    1d76:	015b      	lsls	r3, r3, #5
    1d78:	331c      	adds	r3, #28
    1d7a:	2201      	movs	r2, #1
    1d7c:	601a      	str	r2, [r3, #0]
    1d7e:	370c      	adds	r7, #12
    1d80:	46bd      	mov	sp, r7
    1d82:	f85d 7b04 	ldr.w	r7, [sp], #4
    1d86:	4770      	bx	lr

00001d88 <LPTMR_HAL_SetIntCmd>:
    1d88:	b480      	push	{r7}
    1d8a:	b083      	sub	sp, #12
    1d8c:	af00      	add	r7, sp, #0
    1d8e:	6078      	str	r0, [r7, #4]
    1d90:	460b      	mov	r3, r1
    1d92:	70fb      	strb	r3, [r7, #3]
    1d94:	687b      	ldr	r3, [r7, #4]
    1d96:	f103 7304 	add.w	r3, r3, #34603008	; 0x2100000
    1d9a:	015b      	lsls	r3, r3, #5
    1d9c:	3318      	adds	r3, #24
    1d9e:	78fa      	ldrb	r2, [r7, #3]
    1da0:	601a      	str	r2, [r3, #0]
    1da2:	370c      	adds	r7, #12
    1da4:	46bd      	mov	sp, r7
    1da6:	f85d 7b04 	ldr.w	r7, [sp], #4
    1daa:	4770      	bx	lr

00001dac <LPTMR_HAL_SetCompareValue>:
    1dac:	b480      	push	{r7}
    1dae:	b083      	sub	sp, #12
    1db0:	af00      	add	r7, sp, #0
    1db2:	6078      	str	r0, [r7, #4]
    1db4:	6039      	str	r1, [r7, #0]
    1db6:	687b      	ldr	r3, [r7, #4]
    1db8:	689b      	ldr	r3, [r3, #8]
    1dba:	0c1b      	lsrs	r3, r3, #16
    1dbc:	041b      	lsls	r3, r3, #16
    1dbe:	683a      	ldr	r2, [r7, #0]
    1dc0:	b292      	uxth	r2, r2
    1dc2:	431a      	orrs	r2, r3
    1dc4:	687b      	ldr	r3, [r7, #4]
    1dc6:	609a      	str	r2, [r3, #8]
    1dc8:	370c      	adds	r7, #12
    1dca:	46bd      	mov	sp, r7
    1dcc:	f85d 7b04 	ldr.w	r7, [sp], #4
    1dd0:	4770      	bx	lr
    1dd2:	bf00      	nop

00001dd4 <SIM_HAL_EnableClock>:
    1dd4:	b480      	push	{r7}
    1dd6:	b083      	sub	sp, #12
    1dd8:	af00      	add	r7, sp, #0
    1dda:	6078      	str	r0, [r7, #4]
    1ddc:	460b      	mov	r3, r1
    1dde:	70fb      	strb	r3, [r7, #3]
    1de0:	687b      	ldr	r3, [r7, #4]
    1de2:	f503 5381 	add.w	r3, r3, #4128	; 0x1020
    1de6:	3314      	adds	r3, #20
    1de8:	78fa      	ldrb	r2, [r7, #3]
    1dea:	0952      	lsrs	r2, r2, #5
    1dec:	b2d2      	uxtb	r2, r2
    1dee:	f102 4280 	add.w	r2, r2, #1073741824	; 0x40000000
    1df2:	3a03      	subs	r2, #3
    1df4:	0092      	lsls	r2, r2, #2
    1df6:	4413      	add	r3, r2
    1df8:	f103 7304 	add.w	r3, r3, #34603008	; 0x2100000
    1dfc:	00da      	lsls	r2, r3, #3
    1dfe:	78fb      	ldrb	r3, [r7, #3]
    1e00:	f003 031f 	and.w	r3, r3, #31
    1e04:	4413      	add	r3, r2
    1e06:	009b      	lsls	r3, r3, #2
    1e08:	2201      	movs	r2, #1
    1e0a:	601a      	str	r2, [r3, #0]
    1e0c:	370c      	adds	r7, #12
    1e0e:	46bd      	mov	sp, r7
    1e10:	f85d 7b04 	ldr.w	r7, [sp], #4
    1e14:	4770      	bx	lr
    1e16:	bf00      	nop

00001e18 <SIM_HAL_GetGateCmd>:
    1e18:	b480      	push	{r7}
    1e1a:	b083      	sub	sp, #12
    1e1c:	af00      	add	r7, sp, #0
    1e1e:	6078      	str	r0, [r7, #4]
    1e20:	460b      	mov	r3, r1
    1e22:	70fb      	strb	r3, [r7, #3]
    1e24:	687b      	ldr	r3, [r7, #4]
    1e26:	f503 5381 	add.w	r3, r3, #4128	; 0x1020
    1e2a:	3314      	adds	r3, #20
    1e2c:	78fa      	ldrb	r2, [r7, #3]
    1e2e:	0952      	lsrs	r2, r2, #5
    1e30:	b2d2      	uxtb	r2, r2
    1e32:	f102 4280 	add.w	r2, r2, #1073741824	; 0x40000000
    1e36:	3a03      	subs	r2, #3
    1e38:	0092      	lsls	r2, r2, #2
    1e3a:	4413      	add	r3, r2
    1e3c:	f103 7304 	add.w	r3, r3, #34603008	; 0x2100000
    1e40:	00da      	lsls	r2, r3, #3
    1e42:	78fb      	ldrb	r3, [r7, #3]
    1e44:	f003 031f 	and.w	r3, r3, #31
    1e48:	4413      	add	r3, r2
    1e4a:	009b      	lsls	r3, r3, #2
    1e4c:	681b      	ldr	r3, [r3, #0]
    1e4e:	2b00      	cmp	r3, #0
    1e50:	bf0c      	ite	eq
    1e52:	2300      	moveq	r3, #0
    1e54:	2301      	movne	r3, #1
    1e56:	b2db      	uxtb	r3, r3
    1e58:	4618      	mov	r0, r3
    1e5a:	370c      	adds	r7, #12
    1e5c:	46bd      	mov	sp, r7
    1e5e:	f85d 7b04 	ldr.w	r7, [sp], #4
    1e62:	4770      	bx	lr

00001e64 <INT_SYS_EnableIRQ>:
    1e64:	b580      	push	{r7, lr}
    1e66:	b082      	sub	sp, #8
    1e68:	af00      	add	r7, sp, #0
    1e6a:	4603      	mov	r3, r0
    1e6c:	71fb      	strb	r3, [r7, #7]
    1e6e:	f997 3007 	ldrsb.w	r3, [r7, #7]
    1e72:	2b00      	cmp	r3, #0
    1e74:	da05      	bge.n	1e82 <INT_SYS_EnableIRQ+0x1e>
    1e76:	480c      	ldr	r0, [pc, #48]	; (1ea8 <INT_SYS_EnableIRQ+0x44>)
    1e78:	215d      	movs	r1, #93	; 0x5d
    1e7a:	4a0c      	ldr	r2, [pc, #48]	; (1eac <INT_SYS_EnableIRQ+0x48>)
    1e7c:	4b0c      	ldr	r3, [pc, #48]	; (1eb0 <INT_SYS_EnableIRQ+0x4c>)
    1e7e:	f001 fd09 	bl	3894 <__assert_func>
    1e82:	f997 3007 	ldrsb.w	r3, [r7, #7]
    1e86:	2b55      	cmp	r3, #85	; 0x55
    1e88:	dd05      	ble.n	1e96 <INT_SYS_EnableIRQ+0x32>
    1e8a:	4807      	ldr	r0, [pc, #28]	; (1ea8 <INT_SYS_EnableIRQ+0x44>)
    1e8c:	215e      	movs	r1, #94	; 0x5e
    1e8e:	4a07      	ldr	r2, [pc, #28]	; (1eac <INT_SYS_EnableIRQ+0x48>)
    1e90:	4b08      	ldr	r3, [pc, #32]	; (1eb4 <INT_SYS_EnableIRQ+0x50>)
    1e92:	f001 fcff 	bl	3894 <__assert_func>
    1e96:	f997 3007 	ldrsb.w	r3, [r7, #7]
    1e9a:	4618      	mov	r0, r3
    1e9c:	f7ff ff12 	bl	1cc4 <NVIC_EnableIRQ>
    1ea0:	3708      	adds	r7, #8
    1ea2:	46bd      	mov	sp, r7
    1ea4:	bd80      	pop	{r7, pc}
    1ea6:	bf00      	nop
    1ea8:	00004858 	andeq	r4, r0, r8, asr r8
    1eac:	00004dc4 	andeq	r4, r0, r4, asr #27
    1eb0:	00004894 	muleq	r0, r4, r8
    1eb4:	000048a4 	andeq	r4, r0, r4, lsr #17

00001eb8 <INT_SYS_DisableIRQ>:
    1eb8:	b580      	push	{r7, lr}
    1eba:	b082      	sub	sp, #8
    1ebc:	af00      	add	r7, sp, #0
    1ebe:	4603      	mov	r3, r0
    1ec0:	71fb      	strb	r3, [r7, #7]
    1ec2:	f997 3007 	ldrsb.w	r3, [r7, #7]
    1ec6:	2b00      	cmp	r3, #0
    1ec8:	da05      	bge.n	1ed6 <INT_SYS_DisableIRQ+0x1e>
    1eca:	480c      	ldr	r0, [pc, #48]	; (1efc <INT_SYS_DisableIRQ+0x44>)
    1ecc:	2170      	movs	r1, #112	; 0x70
    1ece:	4a0c      	ldr	r2, [pc, #48]	; (1f00 <INT_SYS_DisableIRQ+0x48>)
    1ed0:	4b0c      	ldr	r3, [pc, #48]	; (1f04 <INT_SYS_DisableIRQ+0x4c>)
    1ed2:	f001 fcdf 	bl	3894 <__assert_func>
    1ed6:	f997 3007 	ldrsb.w	r3, [r7, #7]
    1eda:	2b55      	cmp	r3, #85	; 0x55
    1edc:	dd05      	ble.n	1eea <INT_SYS_DisableIRQ+0x32>
    1ede:	4807      	ldr	r0, [pc, #28]	; (1efc <INT_SYS_DisableIRQ+0x44>)
    1ee0:	2171      	movs	r1, #113	; 0x71
    1ee2:	4a07      	ldr	r2, [pc, #28]	; (1f00 <INT_SYS_DisableIRQ+0x48>)
    1ee4:	4b08      	ldr	r3, [pc, #32]	; (1f08 <INT_SYS_DisableIRQ+0x50>)
    1ee6:	f001 fcd5 	bl	3894 <__assert_func>
    1eea:	f997 3007 	ldrsb.w	r3, [r7, #7]
    1eee:	4618      	mov	r0, r3
    1ef0:	f7ff ff00 	bl	1cf4 <NVIC_DisableIRQ>
    1ef4:	3708      	adds	r7, #8
    1ef6:	46bd      	mov	sp, r7
    1ef8:	bd80      	pop	{r7, pc}
    1efa:	bf00      	nop
    1efc:	00004858 	andeq	r4, r0, r8, asr r8
    1f00:	00004dd8 	ldrdeq	r4, [r0], -r8
    1f04:	00004894 	muleq	r0, r4, r8
    1f08:	000048a4 	andeq	r4, r0, r4, lsr #17

00001f0c <CLOCK_SYS_EnableLptmrClock>:
    1f0c:	b580      	push	{r7, lr}
    1f0e:	b082      	sub	sp, #8
    1f10:	af00      	add	r7, sp, #0
    1f12:	6078      	str	r0, [r7, #4]
    1f14:	4803      	ldr	r0, [pc, #12]	; (1f24 <CLOCK_SYS_EnableLptmrClock+0x18>)
    1f16:	2180      	movs	r1, #128	; 0x80
    1f18:	f7ff ff5c 	bl	1dd4 <SIM_HAL_EnableClock>
    1f1c:	3708      	adds	r7, #8
    1f1e:	46bd      	mov	sp, r7
    1f20:	bd80      	pop	{r7, pc}
    1f22:	bf00      	nop
    1f24:	40047000 	andmi	r7, r4, r0

00001f28 <CLOCK_SYS_GetLptmrGateCmd>:
    1f28:	b580      	push	{r7, lr}
    1f2a:	b082      	sub	sp, #8
    1f2c:	af00      	add	r7, sp, #0
    1f2e:	6078      	str	r0, [r7, #4]
    1f30:	4804      	ldr	r0, [pc, #16]	; (1f44 <CLOCK_SYS_GetLptmrGateCmd+0x1c>)
    1f32:	2180      	movs	r1, #128	; 0x80
    1f34:	f7ff ff70 	bl	1e18 <SIM_HAL_GetGateCmd>
    1f38:	4603      	mov	r3, r0
    1f3a:	4618      	mov	r0, r3
    1f3c:	3708      	adds	r7, #8
    1f3e:	46bd      	mov	sp, r7
    1f40:	bd80      	pop	{r7, pc}
    1f42:	bf00      	nop
    1f44:	40047000 	andmi	r7, r4, r0

00001f48 <LPTMR_DRV_Init>:
    1f48:	b580      	push	{r7, lr}
    1f4a:	b088      	sub	sp, #32
    1f4c:	af00      	add	r7, sp, #0
    1f4e:	60f8      	str	r0, [r7, #12]
    1f50:	60b9      	str	r1, [r7, #8]
    1f52:	607a      	str	r2, [r7, #4]
    1f54:	68fb      	ldr	r3, [r7, #12]
    1f56:	2b00      	cmp	r3, #0
    1f58:	d005      	beq.n	1f66 <LPTMR_DRV_Init+0x1e>
    1f5a:	4849      	ldr	r0, [pc, #292]	; (2080 <HEAP_SIZE+0x80>)
    1f5c:	213b      	movs	r1, #59	; 0x3b
    1f5e:	4a49      	ldr	r2, [pc, #292]	; (2084 <HEAP_SIZE+0x84>)
    1f60:	4b49      	ldr	r3, [pc, #292]	; (2088 <HEAP_SIZE+0x88>)
    1f62:	f001 fc97 	bl	3894 <__assert_func>
    1f66:	4b49      	ldr	r3, [pc, #292]	; (208c <HEAP_SIZE+0x8c>)
    1f68:	68fa      	ldr	r2, [r7, #12]
    1f6a:	f853 3022 	ldr.w	r3, [r3, r2, lsl #2]
    1f6e:	61fb      	str	r3, [r7, #28]
    1f70:	687b      	ldr	r3, [r7, #4]
    1f72:	2b00      	cmp	r3, #0
    1f74:	d002      	beq.n	1f7c <LPTMR_DRV_Init+0x34>
    1f76:	68bb      	ldr	r3, [r7, #8]
    1f78:	2b00      	cmp	r3, #0
    1f7a:	d101      	bne.n	1f80 <LPTMR_DRV_Init+0x38>
    1f7c:	2302      	movs	r3, #2
    1f7e:	e07a      	b.n	2076 <HEAP_SIZE+0x76>
    1f80:	687b      	ldr	r3, [r7, #4]
    1f82:	781b      	ldrb	r3, [r3, #0]
    1f84:	2b01      	cmp	r3, #1
    1f86:	d109      	bne.n	1f9c <LPTMR_DRV_Init+0x54>
    1f88:	687b      	ldr	r3, [r7, #4]
    1f8a:	791b      	ldrb	r3, [r3, #4]
    1f8c:	2b00      	cmp	r3, #0
    1f8e:	d005      	beq.n	1f9c <LPTMR_DRV_Init+0x54>
    1f90:	687b      	ldr	r3, [r7, #4]
    1f92:	799b      	ldrb	r3, [r3, #6]
    1f94:	2b00      	cmp	r3, #0
    1f96:	d101      	bne.n	1f9c <LPTMR_DRV_Init+0x54>
    1f98:	2303      	movs	r3, #3
    1f9a:	e06c      	b.n	2076 <HEAP_SIZE+0x76>
    1f9c:	68f8      	ldr	r0, [r7, #12]
    1f9e:	f7ff ffb5 	bl	1f0c <CLOCK_SYS_EnableLptmrClock>
    1fa2:	69f8      	ldr	r0, [r7, #28]
    1fa4:	f7ff fed0 	bl	1d48 <LPTMR_HAL_Disable>
    1fa8:	687b      	ldr	r3, [r7, #4]
    1faa:	795b      	ldrb	r3, [r3, #5]
    1fac:	767b      	strb	r3, [r7, #25]
    1fae:	687b      	ldr	r3, [r7, #4]
    1fb0:	791b      	ldrb	r3, [r3, #4]
    1fb2:	2b00      	cmp	r3, #0
    1fb4:	bf0c      	ite	eq
    1fb6:	2300      	moveq	r3, #0
    1fb8:	2301      	movne	r3, #1
    1fba:	b2db      	uxtb	r3, r3
    1fbc:	f083 0301 	eor.w	r3, r3, #1
    1fc0:	b2db      	uxtb	r3, r3
    1fc2:	f003 0301 	and.w	r3, r3, #1
    1fc6:	b2db      	uxtb	r3, r3
    1fc8:	763b      	strb	r3, [r7, #24]
    1fca:	687b      	ldr	r3, [r7, #4]
    1fcc:	799b      	ldrb	r3, [r3, #6]
    1fce:	76bb      	strb	r3, [r7, #26]
    1fd0:	69f8      	ldr	r0, [r7, #28]
    1fd2:	69b9      	ldr	r1, [r7, #24]
    1fd4:	f001 fbec 	bl	37b0 <LPTMR_HAL_SetPrescalerMode>
    1fd8:	687b      	ldr	r3, [r7, #4]
    1fda:	781b      	ldrb	r3, [r3, #0]
    1fdc:	753b      	strb	r3, [r7, #20]
    1fde:	687b      	ldr	r3, [r7, #4]
    1fe0:	78db      	ldrb	r3, [r3, #3]
    1fe2:	757b      	strb	r3, [r7, #21]
    1fe4:	687b      	ldr	r3, [r7, #4]
    1fe6:	789b      	ldrb	r3, [r3, #2]
    1fe8:	75bb      	strb	r3, [r7, #22]
    1fea:	687b      	ldr	r3, [r7, #4]
    1fec:	785b      	ldrb	r3, [r3, #1]
    1fee:	75fb      	strb	r3, [r7, #23]
    1ff0:	69f8      	ldr	r0, [r7, #28]
    1ff2:	6979      	ldr	r1, [r7, #20]
    1ff4:	f001 fbb2 	bl	375c <LPTMR_HAL_SetTimerWorkingMode>
    1ff8:	4b25      	ldr	r3, [pc, #148]	; (2090 <HEAP_SIZE+0x90>)
    1ffa:	68fa      	ldr	r2, [r7, #12]
    1ffc:	68b9      	ldr	r1, [r7, #8]
    1ffe:	f843 1022 	str.w	r1, [r3, r2, lsl #2]
    2002:	68bb      	ldr	r3, [r7, #8]
    2004:	2200      	movs	r2, #0
    2006:	601a      	str	r2, [r3, #0]
    2008:	687b      	ldr	r3, [r7, #4]
    200a:	79db      	ldrb	r3, [r3, #7]
    200c:	2b00      	cmp	r3, #0
    200e:	d00c      	beq.n	202a <HEAP_SIZE+0x2a>
    2010:	69f8      	ldr	r0, [r7, #28]
    2012:	2101      	movs	r1, #1
    2014:	f7ff feb8 	bl	1d88 <LPTMR_HAL_SetIntCmd>
    2018:	4a1e      	ldr	r2, [pc, #120]	; (2094 <HEAP_SIZE+0x94>)
    201a:	68fb      	ldr	r3, [r7, #12]
    201c:	4413      	add	r3, r2
    201e:	781b      	ldrb	r3, [r3, #0]
    2020:	b25b      	sxtb	r3, r3
    2022:	4618      	mov	r0, r3
    2024:	f7ff ff1e 	bl	1e64 <INT_SYS_EnableIRQ>
    2028:	e00b      	b.n	2042 <HEAP_SIZE+0x42>
    202a:	69f8      	ldr	r0, [r7, #28]
    202c:	2100      	movs	r1, #0
    202e:	f7ff feab 	bl	1d88 <LPTMR_HAL_SetIntCmd>
    2032:	4a18      	ldr	r2, [pc, #96]	; (2094 <HEAP_SIZE+0x94>)
    2034:	68fb      	ldr	r3, [r7, #12]
    2036:	4413      	add	r3, r2
    2038:	781b      	ldrb	r3, [r3, #0]
    203a:	b25b      	sxtb	r3, r3
    203c:	4618      	mov	r0, r3
    203e:	f7ff ff3b 	bl	1eb8 <INT_SYS_DisableIRQ>
    2042:	687b      	ldr	r3, [r7, #4]
    2044:	781b      	ldrb	r3, [r3, #0]
    2046:	2b00      	cmp	r3, #0
    2048:	d114      	bne.n	2074 <HEAP_SIZE+0x74>
    204a:	687b      	ldr	r3, [r7, #4]
    204c:	795b      	ldrb	r3, [r3, #5]
    204e:	68f8      	ldr	r0, [r7, #12]
    2050:	4619      	mov	r1, r3
    2052:	f000 fbff 	bl	2854 <CLOCK_SYS_GetLptmrFreq>
    2056:	4602      	mov	r2, r0
    2058:	68bb      	ldr	r3, [r7, #8]
    205a:	605a      	str	r2, [r3, #4]
    205c:	687b      	ldr	r3, [r7, #4]
    205e:	791b      	ldrb	r3, [r3, #4]
    2060:	2b00      	cmp	r3, #0
    2062:	d007      	beq.n	2074 <HEAP_SIZE+0x74>
    2064:	68bb      	ldr	r3, [r7, #8]
    2066:	685a      	ldr	r2, [r3, #4]
    2068:	687b      	ldr	r3, [r7, #4]
    206a:	799b      	ldrb	r3, [r3, #6]
    206c:	3301      	adds	r3, #1
    206e:	40da      	lsrs	r2, r3
    2070:	68bb      	ldr	r3, [r7, #8]
    2072:	605a      	str	r2, [r3, #4]
    2074:	2300      	movs	r3, #0
    2076:	4618      	mov	r0, r3
    2078:	3720      	adds	r7, #32
    207a:	46bd      	mov	sp, r7
    207c:	bd80      	pop	{r7, pc}
    207e:	bf00      	nop
    2080:	000048d0 	ldrdeq	r4, [r0], -r0
    2084:	00004db4 			; <UNDEFINED> instruction: 0x00004db4
    2088:	00004918 	andeq	r4, r0, r8, lsl r9
    208c:	00004f58 	andeq	r4, r0, r8, asr pc
    2090:	1fff00dc 	svcne	0x00ff00dc
    2094:	00004f5c 	andeq	r4, r0, ip, asr pc

00002098 <LPTMR_DRV_Start>:
    2098:	b580      	push	{r7, lr}
    209a:	b084      	sub	sp, #16
    209c:	af00      	add	r7, sp, #0
    209e:	6078      	str	r0, [r7, #4]
    20a0:	687b      	ldr	r3, [r7, #4]
    20a2:	2b00      	cmp	r3, #0
    20a4:	d005      	beq.n	20b2 <LPTMR_DRV_Start+0x1a>
    20a6:	480f      	ldr	r0, [pc, #60]	; (20e4 <LPTMR_DRV_Start+0x4c>)
    20a8:	21ab      	movs	r1, #171	; 0xab
    20aa:	4a0f      	ldr	r2, [pc, #60]	; (20e8 <LPTMR_DRV_Start+0x50>)
    20ac:	4b0f      	ldr	r3, [pc, #60]	; (20ec <LPTMR_DRV_Start+0x54>)
    20ae:	f001 fbf1 	bl	3894 <__assert_func>
    20b2:	6878      	ldr	r0, [r7, #4]
    20b4:	f7ff ff38 	bl	1f28 <CLOCK_SYS_GetLptmrGateCmd>
    20b8:	4603      	mov	r3, r0
    20ba:	2b00      	cmp	r3, #0
    20bc:	d105      	bne.n	20ca <LPTMR_DRV_Start+0x32>
    20be:	4809      	ldr	r0, [pc, #36]	; (20e4 <LPTMR_DRV_Start+0x4c>)
    20c0:	21ac      	movs	r1, #172	; 0xac
    20c2:	4a09      	ldr	r2, [pc, #36]	; (20e8 <LPTMR_DRV_Start+0x50>)
    20c4:	4b0a      	ldr	r3, [pc, #40]	; (20f0 <LPTMR_DRV_Start+0x58>)
    20c6:	f001 fbe5 	bl	3894 <__assert_func>
    20ca:	4b0a      	ldr	r3, [pc, #40]	; (20f4 <LPTMR_DRV_Start+0x5c>)
    20cc:	687a      	ldr	r2, [r7, #4]
    20ce:	f853 3022 	ldr.w	r3, [r3, r2, lsl #2]
    20d2:	60fb      	str	r3, [r7, #12]
    20d4:	68f8      	ldr	r0, [r7, #12]
    20d6:	f7ff fe27 	bl	1d28 <LPTMR_HAL_Enable>
    20da:	2300      	movs	r3, #0
    20dc:	4618      	mov	r0, r3
    20de:	3710      	adds	r7, #16
    20e0:	46bd      	mov	sp, r7
    20e2:	bd80      	pop	{r7, pc}
    20e4:	000048d0 	ldrdeq	r4, [r0], -r0
    20e8:	00004dec 	andeq	r4, r0, ip, ror #27
    20ec:	00004918 	andeq	r4, r0, r8, lsl r9
    20f0:	00004938 	andeq	r4, r0, r8, lsr r9
    20f4:	00004f58 	andeq	r4, r0, r8, asr pc

000020f8 <LPTMR_DRV_SetTimerPeriodUs>:
    20f8:	b580      	push	{r7, lr}
    20fa:	b084      	sub	sp, #16
    20fc:	af00      	add	r7, sp, #0
    20fe:	6078      	str	r0, [r7, #4]
    2100:	6039      	str	r1, [r7, #0]
    2102:	687b      	ldr	r3, [r7, #4]
    2104:	2b00      	cmp	r3, #0
    2106:	d005      	beq.n	2114 <LPTMR_DRV_SetTimerPeriodUs+0x1c>
    2108:	482b      	ldr	r0, [pc, #172]	; (21b8 <LPTMR_DRV_SetTimerPeriodUs+0xc0>)
    210a:	21d1      	movs	r1, #209	; 0xd1
    210c:	4a2b      	ldr	r2, [pc, #172]	; (21bc <LPTMR_DRV_SetTimerPeriodUs+0xc4>)
    210e:	4b2c      	ldr	r3, [pc, #176]	; (21c0 <LPTMR_DRV_SetTimerPeriodUs+0xc8>)
    2110:	f001 fbc0 	bl	3894 <__assert_func>
    2114:	683b      	ldr	r3, [r7, #0]
    2116:	2b00      	cmp	r3, #0
    2118:	d105      	bne.n	2126 <LPTMR_DRV_SetTimerPeriodUs+0x2e>
    211a:	4827      	ldr	r0, [pc, #156]	; (21b8 <LPTMR_DRV_SetTimerPeriodUs+0xc0>)
    211c:	21d2      	movs	r1, #210	; 0xd2
    211e:	4a27      	ldr	r2, [pc, #156]	; (21bc <LPTMR_DRV_SetTimerPeriodUs+0xc4>)
    2120:	4b28      	ldr	r3, [pc, #160]	; (21c4 <LPTMR_DRV_SetTimerPeriodUs+0xcc>)
    2122:	f001 fbb7 	bl	3894 <__assert_func>
    2126:	6878      	ldr	r0, [r7, #4]
    2128:	f7ff fefe 	bl	1f28 <CLOCK_SYS_GetLptmrGateCmd>
    212c:	4603      	mov	r3, r0
    212e:	2b00      	cmp	r3, #0
    2130:	d105      	bne.n	213e <LPTMR_DRV_SetTimerPeriodUs+0x46>
    2132:	4821      	ldr	r0, [pc, #132]	; (21b8 <LPTMR_DRV_SetTimerPeriodUs+0xc0>)
    2134:	21d3      	movs	r1, #211	; 0xd3
    2136:	4a21      	ldr	r2, [pc, #132]	; (21bc <LPTMR_DRV_SetTimerPeriodUs+0xc4>)
    2138:	4b23      	ldr	r3, [pc, #140]	; (21c8 <LPTMR_DRV_SetTimerPeriodUs+0xd0>)
    213a:	f001 fbab 	bl	3894 <__assert_func>
    213e:	4b23      	ldr	r3, [pc, #140]	; (21cc <LPTMR_DRV_SetTimerPeriodUs+0xd4>)
    2140:	687a      	ldr	r2, [r7, #4]
    2142:	f853 3022 	ldr.w	r3, [r3, r2, lsl #2]
    2146:	60bb      	str	r3, [r7, #8]
    2148:	4b21      	ldr	r3, [pc, #132]	; (21d0 <LPTMR_DRV_SetTimerPeriodUs+0xd8>)
    214a:	687a      	ldr	r2, [r7, #4]
    214c:	f853 3022 	ldr.w	r3, [r3, r2, lsl #2]
    2150:	685a      	ldr	r2, [r3, #4]
    2152:	4b20      	ldr	r3, [pc, #128]	; (21d4 <LPTMR_DRV_SetTimerPeriodUs+0xdc>)
    2154:	429a      	cmp	r2, r3
    2156:	d80c      	bhi.n	2172 <LPTMR_DRV_SetTimerPeriodUs+0x7a>
    2158:	4b1d      	ldr	r3, [pc, #116]	; (21d0 <LPTMR_DRV_SetTimerPeriodUs+0xd8>)
    215a:	687a      	ldr	r2, [r7, #4]
    215c:	f853 3022 	ldr.w	r3, [r3, r2, lsl #2]
    2160:	685b      	ldr	r3, [r3, #4]
    2162:	4a1d      	ldr	r2, [pc, #116]	; (21d8 <LPTMR_DRV_SetTimerPeriodUs+0xe0>)
    2164:	fbb2 f3f3 	udiv	r3, r2, r3
    2168:	683a      	ldr	r2, [r7, #0]
    216a:	fbb2 f3f3 	udiv	r3, r2, r3
    216e:	60fb      	str	r3, [r7, #12]
    2170:	e00c      	b.n	218c <LPTMR_DRV_SetTimerPeriodUs+0x94>
    2172:	4b17      	ldr	r3, [pc, #92]	; (21d0 <LPTMR_DRV_SetTimerPeriodUs+0xd8>)
    2174:	687a      	ldr	r2, [r7, #4]
    2176:	f853 3022 	ldr.w	r3, [r3, r2, lsl #2]
    217a:	685a      	ldr	r2, [r3, #4]
    217c:	4b17      	ldr	r3, [pc, #92]	; (21dc <LPTMR_DRV_SetTimerPeriodUs+0xe4>)
    217e:	fba3 1302 	umull	r1, r3, r3, r2
    2182:	0c9b      	lsrs	r3, r3, #18
    2184:	683a      	ldr	r2, [r7, #0]
    2186:	fb02 f303 	mul.w	r3, r2, r3
    218a:	60fb      	str	r3, [r7, #12]
    218c:	68fb      	ldr	r3, [r7, #12]
    218e:	f5b3 3f80 	cmp.w	r3, #65536	; 0x10000
    2192:	d301      	bcc.n	2198 <LPTMR_DRV_SetTimerPeriodUs+0xa0>
    2194:	2308      	movs	r3, #8
    2196:	e00b      	b.n	21b0 <LPTMR_DRV_SetTimerPeriodUs+0xb8>
    2198:	68fb      	ldr	r3, [r7, #12]
    219a:	2b01      	cmp	r3, #1
    219c:	d801      	bhi.n	21a2 <LPTMR_DRV_SetTimerPeriodUs+0xaa>
    219e:	2307      	movs	r3, #7
    21a0:	e006      	b.n	21b0 <LPTMR_DRV_SetTimerPeriodUs+0xb8>
    21a2:	68fb      	ldr	r3, [r7, #12]
    21a4:	3b01      	subs	r3, #1
    21a6:	68b8      	ldr	r0, [r7, #8]
    21a8:	4619      	mov	r1, r3
    21aa:	f7ff fdff 	bl	1dac <LPTMR_HAL_SetCompareValue>
    21ae:	2300      	movs	r3, #0
    21b0:	4618      	mov	r0, r3
    21b2:	3710      	adds	r7, #16
    21b4:	46bd      	mov	sp, r7
    21b6:	bd80      	pop	{r7, pc}
    21b8:	000048d0 	ldrdeq	r4, [r0], -r0
    21bc:	00004dfc 	strdeq	r4, [r0], -ip
    21c0:	00004918 	andeq	r4, r0, r8, lsl r9
    21c4:	0000495c 	andeq	r4, r0, ip, asr r9
    21c8:	00004938 	andeq	r4, r0, r8, lsr r9
    21cc:	00004f58 	andeq	r4, r0, r8, asr pc
    21d0:	1fff00dc 	svcne	0x00ff00dc
    21d4:	000f423f 	andeq	r4, pc, pc, lsr r2	; <UNPREDICTABLE>
    21d8:	000f4240 	andeq	r4, pc, r0, asr #4
    21dc:	431bde83 	tstmi	fp, #2096	; 0x830

000021e0 <LPTMR_DRV_InstallCallback>:
    21e0:	b580      	push	{r7, lr}
    21e2:	b082      	sub	sp, #8
    21e4:	af00      	add	r7, sp, #0
    21e6:	6078      	str	r0, [r7, #4]
    21e8:	6039      	str	r1, [r7, #0]
    21ea:	687b      	ldr	r3, [r7, #4]
    21ec:	2b00      	cmp	r3, #0
    21ee:	d006      	beq.n	21fe <LPTMR_DRV_InstallCallback+0x1e>
    21f0:	4811      	ldr	r0, [pc, #68]	; (2238 <LPTMR_DRV_InstallCallback+0x58>)
    21f2:	f240 1145 	movw	r1, #325	; 0x145
    21f6:	4a11      	ldr	r2, [pc, #68]	; (223c <LPTMR_DRV_InstallCallback+0x5c>)
    21f8:	4b11      	ldr	r3, [pc, #68]	; (2240 <LPTMR_DRV_InstallCallback+0x60>)
    21fa:	f001 fb4b 	bl	3894 <__assert_func>
    21fe:	687b      	ldr	r3, [r7, #4]
    2200:	2b00      	cmp	r3, #0
    2202:	d006      	beq.n	2212 <LPTMR_DRV_InstallCallback+0x32>
    2204:	480c      	ldr	r0, [pc, #48]	; (2238 <LPTMR_DRV_InstallCallback+0x58>)
    2206:	f240 1147 	movw	r1, #327	; 0x147
    220a:	4a0c      	ldr	r2, [pc, #48]	; (223c <LPTMR_DRV_InstallCallback+0x5c>)
    220c:	4b0c      	ldr	r3, [pc, #48]	; (2240 <LPTMR_DRV_InstallCallback+0x60>)
    220e:	f001 fb41 	bl	3894 <__assert_func>
    2212:	4b0c      	ldr	r3, [pc, #48]	; (2244 <LPTMR_DRV_InstallCallback+0x64>)
    2214:	687a      	ldr	r2, [r7, #4]
    2216:	f853 3022 	ldr.w	r3, [r3, r2, lsl #2]
    221a:	2b00      	cmp	r3, #0
    221c:	d101      	bne.n	2222 <LPTMR_DRV_InstallCallback+0x42>
    221e:	2301      	movs	r3, #1
    2220:	e006      	b.n	2230 <LPTMR_DRV_InstallCallback+0x50>
    2222:	4b08      	ldr	r3, [pc, #32]	; (2244 <LPTMR_DRV_InstallCallback+0x64>)
    2224:	687a      	ldr	r2, [r7, #4]
    2226:	f853 3022 	ldr.w	r3, [r3, r2, lsl #2]
    222a:	683a      	ldr	r2, [r7, #0]
    222c:	601a      	str	r2, [r3, #0]
    222e:	2300      	movs	r3, #0
    2230:	4618      	mov	r0, r3
    2232:	3708      	adds	r7, #8
    2234:	46bd      	mov	sp, r7
    2236:	bd80      	pop	{r7, pc}
    2238:	000048d0 	ldrdeq	r4, [r0], -r0
    223c:	00004e18 	andeq	r4, r0, r8, lsl lr
    2240:	00004918 	andeq	r4, r0, r8, lsl r9
    2244:	1fff00dc 	svcne	0x00ff00dc

00002248 <LPTMR_DRV_IRQHandler>:
    2248:	b580      	push	{r7, lr}
    224a:	b084      	sub	sp, #16
    224c:	af00      	add	r7, sp, #0
    224e:	6078      	str	r0, [r7, #4]
    2250:	687b      	ldr	r3, [r7, #4]
    2252:	2b00      	cmp	r3, #0
    2254:	d006      	beq.n	2264 <LPTMR_DRV_IRQHandler+0x1c>
    2256:	4819      	ldr	r0, [pc, #100]	; (22bc <LPTMR_DRV_IRQHandler+0x74>)
    2258:	f240 115d 	movw	r1, #349	; 0x15d
    225c:	4a18      	ldr	r2, [pc, #96]	; (22c0 <LPTMR_DRV_IRQHandler+0x78>)
    225e:	4b19      	ldr	r3, [pc, #100]	; (22c4 <LPTMR_DRV_IRQHandler+0x7c>)
    2260:	f001 fb18 	bl	3894 <__assert_func>
    2264:	6878      	ldr	r0, [r7, #4]
    2266:	f7ff fe5f 	bl	1f28 <CLOCK_SYS_GetLptmrGateCmd>
    226a:	4603      	mov	r3, r0
    226c:	2b00      	cmp	r3, #0
    226e:	d106      	bne.n	227e <LPTMR_DRV_IRQHandler+0x36>
    2270:	4812      	ldr	r0, [pc, #72]	; (22bc <LPTMR_DRV_IRQHandler+0x74>)
    2272:	f44f 71af 	mov.w	r1, #350	; 0x15e
    2276:	4a12      	ldr	r2, [pc, #72]	; (22c0 <LPTMR_DRV_IRQHandler+0x78>)
    2278:	4b13      	ldr	r3, [pc, #76]	; (22c8 <LPTMR_DRV_IRQHandler+0x80>)
    227a:	f001 fb0b 	bl	3894 <__assert_func>
    227e:	4b13      	ldr	r3, [pc, #76]	; (22cc <LPTMR_DRV_IRQHandler+0x84>)
    2280:	687a      	ldr	r2, [r7, #4]
    2282:	f853 3022 	ldr.w	r3, [r3, r2, lsl #2]
    2286:	60fb      	str	r3, [r7, #12]
    2288:	68f8      	ldr	r0, [r7, #12]
    228a:	f7ff fd6d 	bl	1d68 <LPTMR_HAL_ClearIntFlag>
    228e:	4b10      	ldr	r3, [pc, #64]	; (22d0 <LPTMR_DRV_IRQHandler+0x88>)
    2290:	687a      	ldr	r2, [r7, #4]
    2292:	f853 3022 	ldr.w	r3, [r3, r2, lsl #2]
    2296:	2b00      	cmp	r3, #0
    2298:	d00c      	beq.n	22b4 <LPTMR_DRV_IRQHandler+0x6c>
    229a:	4b0d      	ldr	r3, [pc, #52]	; (22d0 <LPTMR_DRV_IRQHandler+0x88>)
    229c:	687a      	ldr	r2, [r7, #4]
    229e:	f853 3022 	ldr.w	r3, [r3, r2, lsl #2]
    22a2:	681b      	ldr	r3, [r3, #0]
    22a4:	2b00      	cmp	r3, #0
    22a6:	d005      	beq.n	22b4 <LPTMR_DRV_IRQHandler+0x6c>
    22a8:	4b09      	ldr	r3, [pc, #36]	; (22d0 <LPTMR_DRV_IRQHandler+0x88>)
    22aa:	687a      	ldr	r2, [r7, #4]
    22ac:	f853 3022 	ldr.w	r3, [r3, r2, lsl #2]
    22b0:	681b      	ldr	r3, [r3, #0]
    22b2:	4798      	blx	r3
    22b4:	3710      	adds	r7, #16
    22b6:	46bd      	mov	sp, r7
    22b8:	bd80      	pop	{r7, pc}
    22ba:	bf00      	nop
    22bc:	000048d0 	ldrdeq	r4, [r0], -r0
    22c0:	00004e34 	andeq	r4, r0, r4, lsr lr
    22c4:	00004918 	andeq	r4, r0, r8, lsl r9
    22c8:	00004938 	andeq	r4, r0, r8, lsr r9
    22cc:	00004f58 	andeq	r4, r0, r8, asr pc
    22d0:	1fff00dc 	svcne	0x00ff00dc

000022d4 <PORT_HAL_SetSlewRateMode>:
    22d4:	b580      	push	{r7, lr}
    22d6:	b084      	sub	sp, #16
    22d8:	af00      	add	r7, sp, #0
    22da:	60f8      	str	r0, [r7, #12]
    22dc:	60b9      	str	r1, [r7, #8]
    22de:	4613      	mov	r3, r2
    22e0:	71fb      	strb	r3, [r7, #7]
    22e2:	68bb      	ldr	r3, [r7, #8]
    22e4:	2b1f      	cmp	r3, #31
    22e6:	d905      	bls.n	22f4 <PORT_HAL_SetSlewRateMode+0x20>
    22e8:	4809      	ldr	r0, [pc, #36]	; (2310 <PORT_HAL_SetSlewRateMode+0x3c>)
    22ea:	21af      	movs	r1, #175	; 0xaf
    22ec:	4a09      	ldr	r2, [pc, #36]	; (2314 <PORT_HAL_SetSlewRateMode+0x40>)
    22ee:	4b0a      	ldr	r3, [pc, #40]	; (2318 <PORT_HAL_SetSlewRateMode+0x44>)
    22f0:	f001 fad0 	bl	3894 <__assert_func>
    22f4:	68bb      	ldr	r3, [r7, #8]
    22f6:	009b      	lsls	r3, r3, #2
    22f8:	68fa      	ldr	r2, [r7, #12]
    22fa:	4413      	add	r3, r2
    22fc:	f103 7304 	add.w	r3, r3, #34603008	; 0x2100000
    2300:	015b      	lsls	r3, r3, #5
    2302:	3308      	adds	r3, #8
    2304:	79fa      	ldrb	r2, [r7, #7]
    2306:	601a      	str	r2, [r3, #0]
    2308:	3710      	adds	r7, #16
    230a:	46bd      	mov	sp, r7
    230c:	bd80      	pop	{r7, pc}
    230e:	bf00      	nop
    2310:	0000497c 	andeq	r4, r0, ip, ror r9
    2314:	00004e60 	andeq	r4, r0, r0, ror #28
    2318:	000049ac 	andeq	r4, r0, ip, lsr #19

0000231c <PORT_HAL_SetOpenDrainCmd>:
    231c:	b580      	push	{r7, lr}
    231e:	b084      	sub	sp, #16
    2320:	af00      	add	r7, sp, #0
    2322:	60f8      	str	r0, [r7, #12]
    2324:	60b9      	str	r1, [r7, #8]
    2326:	4613      	mov	r3, r2
    2328:	71fb      	strb	r3, [r7, #7]
    232a:	68bb      	ldr	r3, [r7, #8]
    232c:	2b1f      	cmp	r3, #31
    232e:	d905      	bls.n	233c <PORT_HAL_SetOpenDrainCmd+0x20>
    2330:	4809      	ldr	r0, [pc, #36]	; (2358 <PORT_HAL_SetOpenDrainCmd+0x3c>)
    2332:	21d9      	movs	r1, #217	; 0xd9
    2334:	4a09      	ldr	r2, [pc, #36]	; (235c <PORT_HAL_SetOpenDrainCmd+0x40>)
    2336:	4b0a      	ldr	r3, [pc, #40]	; (2360 <PORT_HAL_SetOpenDrainCmd+0x44>)
    2338:	f001 faac 	bl	3894 <__assert_func>
    233c:	68bb      	ldr	r3, [r7, #8]
    233e:	009b      	lsls	r3, r3, #2
    2340:	68fa      	ldr	r2, [r7, #12]
    2342:	4413      	add	r3, r2
    2344:	f103 7304 	add.w	r3, r3, #34603008	; 0x2100000
    2348:	015b      	lsls	r3, r3, #5
    234a:	3314      	adds	r3, #20
    234c:	79fa      	ldrb	r2, [r7, #7]
    234e:	601a      	str	r2, [r3, #0]
    2350:	3710      	adds	r7, #16
    2352:	46bd      	mov	sp, r7
    2354:	bd80      	pop	{r7, pc}
    2356:	bf00      	nop
    2358:	0000497c 	andeq	r4, r0, ip, ror r9
    235c:	00004e9c 	muleq	r0, ip, lr
    2360:	000049ac 	andeq	r4, r0, ip, lsr #19

00002364 <PORT_HAL_SetDriveStrengthMode>:
    2364:	b580      	push	{r7, lr}
    2366:	b084      	sub	sp, #16
    2368:	af00      	add	r7, sp, #0
    236a:	60f8      	str	r0, [r7, #12]
    236c:	60b9      	str	r1, [r7, #8]
    236e:	4613      	mov	r3, r2
    2370:	71fb      	strb	r3, [r7, #7]
    2372:	68bb      	ldr	r3, [r7, #8]
    2374:	2b1f      	cmp	r3, #31
    2376:	d905      	bls.n	2384 <PORT_HAL_SetDriveStrengthMode+0x20>
    2378:	4809      	ldr	r0, [pc, #36]	; (23a0 <PORT_HAL_SetDriveStrengthMode+0x3c>)
    237a:	21ec      	movs	r1, #236	; 0xec
    237c:	4a09      	ldr	r2, [pc, #36]	; (23a4 <PORT_HAL_SetDriveStrengthMode+0x40>)
    237e:	4b0a      	ldr	r3, [pc, #40]	; (23a8 <PORT_HAL_SetDriveStrengthMode+0x44>)
    2380:	f001 fa88 	bl	3894 <__assert_func>
    2384:	68bb      	ldr	r3, [r7, #8]
    2386:	009b      	lsls	r3, r3, #2
    2388:	68fa      	ldr	r2, [r7, #12]
    238a:	4413      	add	r3, r2
    238c:	f103 7304 	add.w	r3, r3, #34603008	; 0x2100000
    2390:	015b      	lsls	r3, r3, #5
    2392:	3318      	adds	r3, #24
    2394:	79fa      	ldrb	r2, [r7, #7]
    2396:	601a      	str	r2, [r3, #0]
    2398:	3710      	adds	r7, #16
    239a:	46bd      	mov	sp, r7
    239c:	bd80      	pop	{r7, pc}
    239e:	bf00      	nop
    23a0:	0000497c 	andeq	r4, r0, ip, ror r9
    23a4:	00004e7c 	andeq	r4, r0, ip, ror lr
    23a8:	000049ac 	andeq	r4, r0, ip, lsr #19

000023ac <PORT_HAL_SetMuxMode>:
    23ac:	b580      	push	{r7, lr}
    23ae:	b084      	sub	sp, #16
    23b0:	af00      	add	r7, sp, #0
    23b2:	60f8      	str	r0, [r7, #12]
    23b4:	60b9      	str	r1, [r7, #8]
    23b6:	4613      	mov	r3, r2
    23b8:	71fb      	strb	r3, [r7, #7]
    23ba:	68bb      	ldr	r3, [r7, #8]
    23bc:	2b1f      	cmp	r3, #31
    23be:	d905      	bls.n	23cc <PORT_HAL_SetMuxMode+0x20>
    23c0:	480d      	ldr	r0, [pc, #52]	; (23f8 <PORT_HAL_SetMuxMode+0x4c>)
    23c2:	21ff      	movs	r1, #255	; 0xff
    23c4:	4a0d      	ldr	r2, [pc, #52]	; (23fc <PORT_HAL_SetMuxMode+0x50>)
    23c6:	4b0e      	ldr	r3, [pc, #56]	; (2400 <PORT_HAL_SetMuxMode+0x54>)
    23c8:	f001 fa64 	bl	3894 <__assert_func>
    23cc:	68fb      	ldr	r3, [r7, #12]
    23ce:	68ba      	ldr	r2, [r7, #8]
    23d0:	f853 3022 	ldr.w	r3, [r3, r2, lsl #2]
    23d4:	f023 7380 	bic.w	r3, r3, #16777216	; 0x1000000
    23d8:	f423 63e0 	bic.w	r3, r3, #1792	; 0x700
    23dc:	79fa      	ldrb	r2, [r7, #7]
    23de:	0212      	lsls	r2, r2, #8
    23e0:	f402 62e0 	and.w	r2, r2, #1792	; 0x700
    23e4:	ea43 0102 	orr.w	r1, r3, r2
    23e8:	68fb      	ldr	r3, [r7, #12]
    23ea:	68ba      	ldr	r2, [r7, #8]
    23ec:	f843 1022 	str.w	r1, [r3, r2, lsl #2]
    23f0:	3710      	adds	r7, #16
    23f2:	46bd      	mov	sp, r7
    23f4:	bd80      	pop	{r7, pc}
    23f6:	bf00      	nop
    23f8:	0000497c 	andeq	r4, r0, ip, ror r9
    23fc:	00004e4c 	andeq	r4, r0, ip, asr #28
    2400:	000049ac 	andeq	r4, r0, ip, lsr #19

00002404 <GPIO_HAL_TogglePinOutput>:
    2404:	b580      	push	{r7, lr}
    2406:	b082      	sub	sp, #8
    2408:	af00      	add	r7, sp, #0
    240a:	6078      	str	r0, [r7, #4]
    240c:	6039      	str	r1, [r7, #0]
    240e:	683b      	ldr	r3, [r7, #0]
    2410:	2b1f      	cmp	r3, #31
    2412:	d905      	bls.n	2420 <GPIO_HAL_TogglePinOutput+0x1c>
    2414:	4806      	ldr	r0, [pc, #24]	; (2430 <GPIO_HAL_TogglePinOutput+0x2c>)
    2416:	21cb      	movs	r1, #203	; 0xcb
    2418:	4a06      	ldr	r2, [pc, #24]	; (2434 <GPIO_HAL_TogglePinOutput+0x30>)
    241a:	4b07      	ldr	r3, [pc, #28]	; (2438 <GPIO_HAL_TogglePinOutput+0x34>)
    241c:	f001 fa3a 	bl	3894 <__assert_func>
    2420:	683b      	ldr	r3, [r7, #0]
    2422:	2201      	movs	r2, #1
    2424:	409a      	lsls	r2, r3
    2426:	687b      	ldr	r3, [r7, #4]
    2428:	60da      	str	r2, [r3, #12]
    242a:	3708      	adds	r7, #8
    242c:	46bd      	mov	sp, r7
    242e:	bd80      	pop	{r7, pc}
    2430:	000049b8 			; <UNDEFINED> instruction: 0x000049b8
    2434:	00004eb8 			; <UNDEFINED> instruction: 0x00004eb8
    2438:	000049e8 	andeq	r4, r0, r8, ror #19

0000243c <GPIO_DRV_OutputPinInit>:
    243c:	b580      	push	{r7, lr}
    243e:	b086      	sub	sp, #24
    2440:	af00      	add	r7, sp, #0
    2442:	6078      	str	r0, [r7, #4]
    2444:	687b      	ldr	r3, [r7, #4]
    2446:	681b      	ldr	r3, [r3, #0]
    2448:	0a1b      	lsrs	r3, r3, #8
    244a:	b2db      	uxtb	r3, r3
    244c:	617b      	str	r3, [r7, #20]
    244e:	687b      	ldr	r3, [r7, #4]
    2450:	681b      	ldr	r3, [r3, #0]
    2452:	b2db      	uxtb	r3, r3
    2454:	613b      	str	r3, [r7, #16]
    2456:	4b1b      	ldr	r3, [pc, #108]	; (24c4 <GPIO_DRV_OutputPinInit+0x88>)
    2458:	697a      	ldr	r2, [r7, #20]
    245a:	f853 3022 	ldr.w	r3, [r3, r2, lsl #2]
    245e:	60fb      	str	r3, [r7, #12]
    2460:	4b19      	ldr	r3, [pc, #100]	; (24c8 <GPIO_DRV_OutputPinInit+0x8c>)
    2462:	697a      	ldr	r2, [r7, #20]
    2464:	f853 3022 	ldr.w	r3, [r3, r2, lsl #2]
    2468:	60bb      	str	r3, [r7, #8]
    246a:	6978      	ldr	r0, [r7, #20]
    246c:	f000 fa66 	bl	293c <CLOCK_SYS_EnablePortClock>
    2470:	68b8      	ldr	r0, [r7, #8]
    2472:	6939      	ldr	r1, [r7, #16]
    2474:	2201      	movs	r2, #1
    2476:	f7ff ff99 	bl	23ac <PORT_HAL_SetMuxMode>
    247a:	68f8      	ldr	r0, [r7, #12]
    247c:	6939      	ldr	r1, [r7, #16]
    247e:	2201      	movs	r2, #1
    2480:	f001 f9b2 	bl	37e8 <GPIO_HAL_SetPinDir>
    2484:	687b      	ldr	r3, [r7, #4]
    2486:	685b      	ldr	r3, [r3, #4]
    2488:	68f8      	ldr	r0, [r7, #12]
    248a:	6939      	ldr	r1, [r7, #16]
    248c:	461a      	mov	r2, r3
    248e:	f001 f9db 	bl	3848 <GPIO_HAL_WritePinOutput>
    2492:	687b      	ldr	r3, [r7, #4]
    2494:	7a1b      	ldrb	r3, [r3, #8]
    2496:	68b8      	ldr	r0, [r7, #8]
    2498:	6939      	ldr	r1, [r7, #16]
    249a:	461a      	mov	r2, r3
    249c:	f7ff ff1a 	bl	22d4 <PORT_HAL_SetSlewRateMode>
    24a0:	687b      	ldr	r3, [r7, #4]
    24a2:	7a5b      	ldrb	r3, [r3, #9]
    24a4:	68b8      	ldr	r0, [r7, #8]
    24a6:	6939      	ldr	r1, [r7, #16]
    24a8:	461a      	mov	r2, r3
    24aa:	f7ff ff5b 	bl	2364 <PORT_HAL_SetDriveStrengthMode>
    24ae:	687b      	ldr	r3, [r7, #4]
    24b0:	7a9b      	ldrb	r3, [r3, #10]
    24b2:	68b8      	ldr	r0, [r7, #8]
    24b4:	6939      	ldr	r1, [r7, #16]
    24b6:	461a      	mov	r2, r3
    24b8:	f7ff ff30 	bl	231c <PORT_HAL_SetOpenDrainCmd>
    24bc:	3718      	adds	r7, #24
    24be:	46bd      	mov	sp, r7
    24c0:	bd80      	pop	{r7, pc}
    24c2:	bf00      	nop
    24c4:	00004f8c 	andeq	r4, r0, ip, lsl #31
    24c8:	00004fa0 	andeq	r4, r0, r0, lsr #31

000024cc <GPIO_DRV_TogglePinOutput>:
    24cc:	b580      	push	{r7, lr}
    24ce:	b084      	sub	sp, #16
    24d0:	af00      	add	r7, sp, #0
    24d2:	6078      	str	r0, [r7, #4]
    24d4:	687b      	ldr	r3, [r7, #4]
    24d6:	0a1b      	lsrs	r3, r3, #8
    24d8:	b2da      	uxtb	r2, r3
    24da:	4b07      	ldr	r3, [pc, #28]	; (24f8 <GPIO_DRV_TogglePinOutput+0x2c>)
    24dc:	f853 3022 	ldr.w	r3, [r3, r2, lsl #2]
    24e0:	60fb      	str	r3, [r7, #12]
    24e2:	687b      	ldr	r3, [r7, #4]
    24e4:	b2db      	uxtb	r3, r3
    24e6:	60bb      	str	r3, [r7, #8]
    24e8:	68f8      	ldr	r0, [r7, #12]
    24ea:	68b9      	ldr	r1, [r7, #8]
    24ec:	f7ff ff8a 	bl	2404 <GPIO_HAL_TogglePinOutput>
    24f0:	3710      	adds	r7, #16
    24f2:	46bd      	mov	sp, r7
    24f4:	bd80      	pop	{r7, pc}
    24f6:	bf00      	nop
    24f8:	00004f8c 	andeq	r4, r0, ip, lsl #31

000024fc <SIM_HAL_EnableClock>:
    24fc:	b480      	push	{r7}
    24fe:	b083      	sub	sp, #12
    2500:	af00      	add	r7, sp, #0
    2502:	6078      	str	r0, [r7, #4]
    2504:	460b      	mov	r3, r1
    2506:	70fb      	strb	r3, [r7, #3]
    2508:	687b      	ldr	r3, [r7, #4]
    250a:	f503 5381 	add.w	r3, r3, #4128	; 0x1020
    250e:	3314      	adds	r3, #20
    2510:	78fa      	ldrb	r2, [r7, #3]
    2512:	0952      	lsrs	r2, r2, #5
    2514:	b2d2      	uxtb	r2, r2
    2516:	f102 4280 	add.w	r2, r2, #1073741824	; 0x40000000
    251a:	3a03      	subs	r2, #3
    251c:	0092      	lsls	r2, r2, #2
    251e:	4413      	add	r3, r2
    2520:	f103 7304 	add.w	r3, r3, #34603008	; 0x2100000
    2524:	00da      	lsls	r2, r3, #3
    2526:	78fb      	ldrb	r3, [r7, #3]
    2528:	f003 031f 	and.w	r3, r3, #31
    252c:	4413      	add	r3, r2
    252e:	009b      	lsls	r3, r3, #2
    2530:	2201      	movs	r2, #1
    2532:	601a      	str	r2, [r3, #0]
    2534:	370c      	adds	r7, #12
    2536:	46bd      	mov	sp, r7
    2538:	f85d 7b04 	ldr.w	r7, [sp], #4
    253c:	4770      	bx	lr
    253e:	bf00      	nop

00002540 <CLOCK_HAL_GetLpuartSrc>:
    2540:	b480      	push	{r7}
    2542:	b083      	sub	sp, #12
    2544:	af00      	add	r7, sp, #0
    2546:	6078      	str	r0, [r7, #4]
    2548:	6039      	str	r1, [r7, #0]
    254a:	687b      	ldr	r3, [r7, #4]
    254c:	f503 5380 	add.w	r3, r3, #4096	; 0x1000
    2550:	3304      	adds	r3, #4
    2552:	681b      	ldr	r3, [r3, #0]
    2554:	f003 6340 	and.w	r3, r3, #201326592	; 0xc000000
    2558:	0e9b      	lsrs	r3, r3, #26
    255a:	b2db      	uxtb	r3, r3
    255c:	4618      	mov	r0, r3
    255e:	370c      	adds	r7, #12
    2560:	46bd      	mov	sp, r7
    2562:	f85d 7b04 	ldr.w	r7, [sp], #4
    2566:	4770      	bx	lr

00002568 <CLOCK_HAL_SetExternalRefClock32kSrc>:
    2568:	b480      	push	{r7}
    256a:	b083      	sub	sp, #12
    256c:	af00      	add	r7, sp, #0
    256e:	6078      	str	r0, [r7, #4]
    2570:	460b      	mov	r3, r1
    2572:	70fb      	strb	r3, [r7, #3]
    2574:	687b      	ldr	r3, [r7, #4]
    2576:	681b      	ldr	r3, [r3, #0]
    2578:	f423 2240 	bic.w	r2, r3, #786432	; 0xc0000
    257c:	78fb      	ldrb	r3, [r7, #3]
    257e:	049b      	lsls	r3, r3, #18
    2580:	f403 2340 	and.w	r3, r3, #786432	; 0xc0000
    2584:	431a      	orrs	r2, r3
    2586:	687b      	ldr	r3, [r7, #4]
    2588:	601a      	str	r2, [r3, #0]
    258a:	370c      	adds	r7, #12
    258c:	46bd      	mov	sp, r7
    258e:	f85d 7b04 	ldr.w	r7, [sp], #4
    2592:	4770      	bx	lr

00002594 <CLOCK_HAL_GetExternalRefClock32kSrc>:
    2594:	b480      	push	{r7}
    2596:	b083      	sub	sp, #12
    2598:	af00      	add	r7, sp, #0
    259a:	6078      	str	r0, [r7, #4]
    259c:	687b      	ldr	r3, [r7, #4]
    259e:	681b      	ldr	r3, [r3, #0]
    25a0:	f403 2340 	and.w	r3, r3, #786432	; 0xc0000
    25a4:	0c9b      	lsrs	r3, r3, #18
    25a6:	b2db      	uxtb	r3, r3
    25a8:	4618      	mov	r0, r3
    25aa:	370c      	adds	r7, #12
    25ac:	46bd      	mov	sp, r7
    25ae:	f85d 7b04 	ldr.w	r7, [sp], #4
    25b2:	4770      	bx	lr

000025b4 <CLOCK_HAL_SetPllfllSel>:
    25b4:	b480      	push	{r7}
    25b6:	b083      	sub	sp, #12
    25b8:	af00      	add	r7, sp, #0
    25ba:	6078      	str	r0, [r7, #4]
    25bc:	460b      	mov	r3, r1
    25be:	70fb      	strb	r3, [r7, #3]
    25c0:	687b      	ldr	r3, [r7, #4]
    25c2:	f503 5380 	add.w	r3, r3, #4096	; 0x1000
    25c6:	3304      	adds	r3, #4
    25c8:	681b      	ldr	r3, [r3, #0]
    25ca:	f423 3240 	bic.w	r2, r3, #196608	; 0x30000
    25ce:	78fb      	ldrb	r3, [r7, #3]
    25d0:	041b      	lsls	r3, r3, #16
    25d2:	f403 3340 	and.w	r3, r3, #196608	; 0x30000
    25d6:	431a      	orrs	r2, r3
    25d8:	687b      	ldr	r3, [r7, #4]
    25da:	f503 5380 	add.w	r3, r3, #4096	; 0x1000
    25de:	3304      	adds	r3, #4
    25e0:	601a      	str	r2, [r3, #0]
    25e2:	370c      	adds	r7, #12
    25e4:	46bd      	mov	sp, r7
    25e6:	f85d 7b04 	ldr.w	r7, [sp], #4
    25ea:	4770      	bx	lr

000025ec <CLOCK_HAL_GetPllfllSel>:
    25ec:	b480      	push	{r7}
    25ee:	b083      	sub	sp, #12
    25f0:	af00      	add	r7, sp, #0
    25f2:	6078      	str	r0, [r7, #4]
    25f4:	687b      	ldr	r3, [r7, #4]
    25f6:	f503 5380 	add.w	r3, r3, #4096	; 0x1000
    25fa:	3304      	adds	r3, #4
    25fc:	681b      	ldr	r3, [r3, #0]
    25fe:	f403 3340 	and.w	r3, r3, #196608	; 0x30000
    2602:	0c1b      	lsrs	r3, r3, #16
    2604:	b2db      	uxtb	r3, r3
    2606:	4618      	mov	r0, r3
    2608:	370c      	adds	r7, #12
    260a:	46bd      	mov	sp, r7
    260c:	f85d 7b04 	ldr.w	r7, [sp], #4
    2610:	4770      	bx	lr
    2612:	bf00      	nop

00002614 <CLOCK_HAL_GetOutDiv1>:
    2614:	b480      	push	{r7}
    2616:	b083      	sub	sp, #12
    2618:	af00      	add	r7, sp, #0
    261a:	6078      	str	r0, [r7, #4]
    261c:	687b      	ldr	r3, [r7, #4]
    261e:	f503 5382 	add.w	r3, r3, #4160	; 0x1040
    2622:	3304      	adds	r3, #4
    2624:	681b      	ldr	r3, [r3, #0]
    2626:	0f1b      	lsrs	r3, r3, #28
    2628:	b2db      	uxtb	r3, r3
    262a:	4618      	mov	r0, r3
    262c:	370c      	adds	r7, #12
    262e:	46bd      	mov	sp, r7
    2630:	f85d 7b04 	ldr.w	r7, [sp], #4
    2634:	4770      	bx	lr
    2636:	bf00      	nop

00002638 <CLOCK_HAL_GetOutDiv2>:
    2638:	b480      	push	{r7}
    263a:	b083      	sub	sp, #12
    263c:	af00      	add	r7, sp, #0
    263e:	6078      	str	r0, [r7, #4]
    2640:	687b      	ldr	r3, [r7, #4]
    2642:	f503 5382 	add.w	r3, r3, #4160	; 0x1040
    2646:	3304      	adds	r3, #4
    2648:	681b      	ldr	r3, [r3, #0]
    264a:	f003 6370 	and.w	r3, r3, #251658240	; 0xf000000
    264e:	0e1b      	lsrs	r3, r3, #24
    2650:	b2db      	uxtb	r3, r3
    2652:	4618      	mov	r0, r3
    2654:	370c      	adds	r7, #12
    2656:	46bd      	mov	sp, r7
    2658:	f85d 7b04 	ldr.w	r7, [sp], #4
    265c:	4770      	bx	lr
    265e:	bf00      	nop

00002660 <CLOCK_SYS_GetLpoClockFreq>:
    2660:	b480      	push	{r7}
    2662:	af00      	add	r7, sp, #0
    2664:	f44f 737a 	mov.w	r3, #1000	; 0x3e8
    2668:	4618      	mov	r0, r3
    266a:	46bd      	mov	sp, r7
    266c:	f85d 7b04 	ldr.w	r7, [sp], #4
    2670:	4770      	bx	lr
    2672:	bf00      	nop

00002674 <OSC_HAL_GetExternalRefClkCmd>:
    2674:	b480      	push	{r7}
    2676:	b083      	sub	sp, #12
    2678:	af00      	add	r7, sp, #0
    267a:	6078      	str	r0, [r7, #4]
    267c:	687b      	ldr	r3, [r7, #4]
    267e:	f103 7304 	add.w	r3, r3, #34603008	; 0x2100000
    2682:	015b      	lsls	r3, r3, #5
    2684:	331c      	adds	r3, #28
    2686:	781b      	ldrb	r3, [r3, #0]
    2688:	b2db      	uxtb	r3, r3
    268a:	2b00      	cmp	r3, #0
    268c:	bf0c      	ite	eq
    268e:	2300      	moveq	r3, #0
    2690:	2301      	movne	r3, #1
    2692:	b2db      	uxtb	r3, r3
    2694:	4618      	mov	r0, r3
    2696:	370c      	adds	r7, #12
    2698:	46bd      	mov	sp, r7
    269a:	f85d 7b04 	ldr.w	r7, [sp], #4
    269e:	4770      	bx	lr

000026a0 <OSC_HAL_GetExternalRefClkDiv>:
    26a0:	b480      	push	{r7}
    26a2:	b083      	sub	sp, #12
    26a4:	af00      	add	r7, sp, #0
    26a6:	6078      	str	r0, [r7, #4]
    26a8:	687b      	ldr	r3, [r7, #4]
    26aa:	789b      	ldrb	r3, [r3, #2]
    26ac:	b2db      	uxtb	r3, r3
    26ae:	099b      	lsrs	r3, r3, #6
    26b0:	b2db      	uxtb	r3, r3
    26b2:	4618      	mov	r0, r3
    26b4:	370c      	adds	r7, #12
    26b6:	46bd      	mov	sp, r7
    26b8:	f85d 7b04 	ldr.w	r7, [sp], #4
    26bc:	4770      	bx	lr
    26be:	bf00      	nop

000026c0 <CLOCK_SYS_SetSimConfigration>:
    26c0:	b580      	push	{r7, lr}
    26c2:	b084      	sub	sp, #16
    26c4:	af02      	add	r7, sp, #8
    26c6:	6078      	str	r0, [r7, #4]
    26c8:	687b      	ldr	r3, [r7, #4]
    26ca:	7899      	ldrb	r1, [r3, #2]
    26cc:	687b      	ldr	r3, [r7, #4]
    26ce:	78da      	ldrb	r2, [r3, #3]
    26d0:	687b      	ldr	r3, [r7, #4]
    26d2:	791b      	ldrb	r3, [r3, #4]
    26d4:	6878      	ldr	r0, [r7, #4]
    26d6:	7940      	ldrb	r0, [r0, #5]
    26d8:	9000      	str	r0, [sp, #0]
    26da:	4809      	ldr	r0, [pc, #36]	; (2700 <CLOCK_SYS_SetSimConfigration+0x40>)
    26dc:	f000 fc18 	bl	2f10 <CLOCK_HAL_SetOutDiv>
    26e0:	687b      	ldr	r3, [r7, #4]
    26e2:	781b      	ldrb	r3, [r3, #0]
    26e4:	4806      	ldr	r0, [pc, #24]	; (2700 <CLOCK_SYS_SetSimConfigration+0x40>)
    26e6:	4619      	mov	r1, r3
    26e8:	f7ff ff64 	bl	25b4 <CLOCK_HAL_SetPllfllSel>
    26ec:	687b      	ldr	r3, [r7, #4]
    26ee:	785b      	ldrb	r3, [r3, #1]
    26f0:	4803      	ldr	r0, [pc, #12]	; (2700 <CLOCK_SYS_SetSimConfigration+0x40>)
    26f2:	4619      	mov	r1, r3
    26f4:	f7ff ff38 	bl	2568 <CLOCK_HAL_SetExternalRefClock32kSrc>
    26f8:	3708      	adds	r7, #8
    26fa:	46bd      	mov	sp, r7
    26fc:	bd80      	pop	{r7, pc}
    26fe:	bf00      	nop
    2700:	40047000 	andmi	r7, r4, r0

00002704 <CLOCK_SYS_GetSystemClockFreq>:
    2704:	b598      	push	{r3, r4, r7, lr}
    2706:	af00      	add	r7, sp, #0
    2708:	4806      	ldr	r0, [pc, #24]	; (2724 <CLOCK_SYS_GetSystemClockFreq+0x20>)
    270a:	f000 fefb 	bl	3504 <CLOCK_HAL_GetOutClk>
    270e:	4604      	mov	r4, r0
    2710:	4805      	ldr	r0, [pc, #20]	; (2728 <CLOCK_SYS_GetSystemClockFreq+0x24>)
    2712:	f7ff ff7f 	bl	2614 <CLOCK_HAL_GetOutDiv1>
    2716:	4603      	mov	r3, r0
    2718:	3301      	adds	r3, #1
    271a:	fbb4 f3f3 	udiv	r3, r4, r3
    271e:	4618      	mov	r0, r3
    2720:	bd98      	pop	{r3, r4, r7, pc}
    2722:	bf00      	nop
    2724:	40064000 	andmi	r4, r6, r0
    2728:	40047000 	andmi	r7, r4, r0

0000272c <CLOCK_SYS_GetBusClockFreq>:
    272c:	b598      	push	{r3, r4, r7, lr}
    272e:	af00      	add	r7, sp, #0
    2730:	4806      	ldr	r0, [pc, #24]	; (274c <CLOCK_SYS_GetBusClockFreq+0x20>)
    2732:	f000 fee7 	bl	3504 <CLOCK_HAL_GetOutClk>
    2736:	4604      	mov	r4, r0
    2738:	4805      	ldr	r0, [pc, #20]	; (2750 <CLOCK_SYS_GetBusClockFreq+0x24>)
    273a:	f7ff ff7d 	bl	2638 <CLOCK_HAL_GetOutDiv2>
    273e:	4603      	mov	r3, r0
    2740:	3301      	adds	r3, #1
    2742:	fbb4 f3f3 	udiv	r3, r4, r3
    2746:	4618      	mov	r0, r3
    2748:	bd98      	pop	{r3, r4, r7, pc}
    274a:	bf00      	nop
    274c:	40064000 	andmi	r4, r6, r0
    2750:	40047000 	andmi	r7, r4, r0

00002754 <CLOCK_SYS_GetPllFllClockFreq>:
    2754:	b580      	push	{r7, lr}
    2756:	b082      	sub	sp, #8
    2758:	af00      	add	r7, sp, #0
    275a:	4810      	ldr	r0, [pc, #64]	; (279c <CLOCK_SYS_GetPllFllClockFreq+0x48>)
    275c:	f7ff ff46 	bl	25ec <CLOCK_HAL_GetPllfllSel>
    2760:	4603      	mov	r3, r0
    2762:	70fb      	strb	r3, [r7, #3]
    2764:	78fb      	ldrb	r3, [r7, #3]
    2766:	2b01      	cmp	r3, #1
    2768:	d008      	beq.n	277c <CLOCK_SYS_GetPllFllClockFreq+0x28>
    276a:	2b03      	cmp	r3, #3
    276c:	d00b      	beq.n	2786 <CLOCK_SYS_GetPllFllClockFreq+0x32>
    276e:	2b00      	cmp	r3, #0
    2770:	d10c      	bne.n	278c <CLOCK_SYS_GetPllFllClockFreq+0x38>
    2772:	480b      	ldr	r0, [pc, #44]	; (27a0 <CLOCK_SYS_GetPllFllClockFreq+0x4c>)
    2774:	f000 fd90 	bl	3298 <CLOCK_HAL_GetFllClk>
    2778:	6078      	str	r0, [r7, #4]
    277a:	e00a      	b.n	2792 <CLOCK_SYS_GetPllFllClockFreq+0x3e>
    277c:	4808      	ldr	r0, [pc, #32]	; (27a0 <CLOCK_SYS_GetPllFllClockFreq+0x4c>)
    277e:	f000 fe51 	bl	3424 <CLOCK_HAL_GetPll0Clk>
    2782:	6078      	str	r0, [r7, #4]
    2784:	e005      	b.n	2792 <CLOCK_SYS_GetPllFllClockFreq+0x3e>
    2786:	4b07      	ldr	r3, [pc, #28]	; (27a4 <CLOCK_SYS_GetPllFllClockFreq+0x50>)
    2788:	607b      	str	r3, [r7, #4]
    278a:	e002      	b.n	2792 <CLOCK_SYS_GetPllFllClockFreq+0x3e>
    278c:	2300      	movs	r3, #0
    278e:	607b      	str	r3, [r7, #4]
    2790:	bf00      	nop
    2792:	687b      	ldr	r3, [r7, #4]
    2794:	4618      	mov	r0, r3
    2796:	3708      	adds	r7, #8
    2798:	46bd      	mov	sp, r7
    279a:	bd80      	pop	{r7, pc}
    279c:	40047000 	andmi	r7, r4, r0
    27a0:	40064000 	andmi	r4, r6, r0
    27a4:	02dc6c00 	sbcseq	r6, ip, #0, 24

000027a8 <CLOCK_SYS_GetExternalRefClock32kFreq>:
    27a8:	b580      	push	{r7, lr}
    27aa:	b082      	sub	sp, #8
    27ac:	af00      	add	r7, sp, #0
    27ae:	4813      	ldr	r0, [pc, #76]	; (27fc <CLOCK_SYS_GetExternalRefClock32kFreq+0x54>)
    27b0:	f7ff fef0 	bl	2594 <CLOCK_HAL_GetExternalRefClock32kSrc>
    27b4:	4603      	mov	r3, r0
    27b6:	70fb      	strb	r3, [r7, #3]
    27b8:	78fb      	ldrb	r3, [r7, #3]
    27ba:	2b02      	cmp	r3, #2
    27bc:	d00e      	beq.n	27dc <CLOCK_SYS_GetExternalRefClock32kFreq+0x34>
    27be:	2b03      	cmp	r3, #3
    27c0:	d010      	beq.n	27e4 <CLOCK_SYS_GetExternalRefClock32kFreq+0x3c>
    27c2:	2b00      	cmp	r3, #0
    27c4:	d112      	bne.n	27ec <CLOCK_SYS_GetExternalRefClock32kFreq+0x44>
    27c6:	4b0e      	ldr	r3, [pc, #56]	; (2800 <CLOCK_SYS_GetExternalRefClock32kFreq+0x58>)
    27c8:	681b      	ldr	r3, [r3, #0]
    27ca:	f5b3 4f00 	cmp.w	r3, #32768	; 0x8000
    27ce:	d102      	bne.n	27d6 <CLOCK_SYS_GetExternalRefClock32kFreq+0x2e>
    27d0:	f44f 4300 	mov.w	r3, #32768	; 0x8000
    27d4:	e000      	b.n	27d8 <CLOCK_SYS_GetExternalRefClock32kFreq+0x30>
    27d6:	2300      	movs	r3, #0
    27d8:	607b      	str	r3, [r7, #4]
    27da:	e00a      	b.n	27f2 <CLOCK_SYS_GetExternalRefClock32kFreq+0x4a>
    27dc:	4b09      	ldr	r3, [pc, #36]	; (2804 <CLOCK_SYS_GetExternalRefClock32kFreq+0x5c>)
    27de:	681b      	ldr	r3, [r3, #0]
    27e0:	607b      	str	r3, [r7, #4]
    27e2:	e006      	b.n	27f2 <CLOCK_SYS_GetExternalRefClock32kFreq+0x4a>
    27e4:	f7ff ff3c 	bl	2660 <CLOCK_SYS_GetLpoClockFreq>
    27e8:	6078      	str	r0, [r7, #4]
    27ea:	e002      	b.n	27f2 <CLOCK_SYS_GetExternalRefClock32kFreq+0x4a>
    27ec:	2300      	movs	r3, #0
    27ee:	607b      	str	r3, [r7, #4]
    27f0:	bf00      	nop
    27f2:	687b      	ldr	r3, [r7, #4]
    27f4:	4618      	mov	r0, r3
    27f6:	3708      	adds	r7, #8
    27f8:	46bd      	mov	sp, r7
    27fa:	bd80      	pop	{r7, pc}
    27fc:	40047000 	andmi	r7, r4, r0
    2800:	1fff00d4 	svcne	0x00ff00d4
    2804:	1fff00d8 	svcne	0x00ff00d8

00002808 <CLOCK_SYS_GetOsc0ExternalRefClockUndivFreq>:
    2808:	b580      	push	{r7, lr}
    280a:	af00      	add	r7, sp, #0
    280c:	4b06      	ldr	r3, [pc, #24]	; (2828 <CLOCK_SYS_GetOsc0ExternalRefClockUndivFreq+0x20>)
    280e:	681b      	ldr	r3, [r3, #0]
    2810:	4618      	mov	r0, r3
    2812:	f7ff ff2f 	bl	2674 <OSC_HAL_GetExternalRefClkCmd>
    2816:	4603      	mov	r3, r0
    2818:	2b00      	cmp	r3, #0
    281a:	d002      	beq.n	2822 <CLOCK_SYS_GetOsc0ExternalRefClockUndivFreq+0x1a>
    281c:	4b03      	ldr	r3, [pc, #12]	; (282c <CLOCK_SYS_GetOsc0ExternalRefClockUndivFreq+0x24>)
    281e:	681b      	ldr	r3, [r3, #0]
    2820:	e000      	b.n	2824 <CLOCK_SYS_GetOsc0ExternalRefClockUndivFreq+0x1c>
    2822:	2300      	movs	r3, #0
    2824:	4618      	mov	r0, r3
    2826:	bd80      	pop	{r7, pc}
    2828:	00004f44 	andeq	r4, r0, r4, asr #30
    282c:	1fff00d4 	svcne	0x00ff00d4

00002830 <CLOCK_SYS_GetOsc0ExternalRefClockFreq>:
    2830:	b598      	push	{r3, r4, r7, lr}
    2832:	af00      	add	r7, sp, #0
    2834:	f7ff ffe8 	bl	2808 <CLOCK_SYS_GetOsc0ExternalRefClockUndivFreq>
    2838:	4604      	mov	r4, r0
    283a:	4b05      	ldr	r3, [pc, #20]	; (2850 <CLOCK_SYS_GetOsc0ExternalRefClockFreq+0x20>)
    283c:	681b      	ldr	r3, [r3, #0]
    283e:	4618      	mov	r0, r3
    2840:	f7ff ff2e 	bl	26a0 <OSC_HAL_GetExternalRefClkDiv>
    2844:	4603      	mov	r3, r0
    2846:	fa24 f303 	lsr.w	r3, r4, r3
    284a:	4618      	mov	r0, r3
    284c:	bd98      	pop	{r3, r4, r7, pc}
    284e:	bf00      	nop
    2850:	00004f44 	andeq	r4, r0, r4, asr #30

00002854 <CLOCK_SYS_GetLptmrFreq>:
    2854:	b580      	push	{r7, lr}
    2856:	b084      	sub	sp, #16
    2858:	af00      	add	r7, sp, #0
    285a:	6078      	str	r0, [r7, #4]
    285c:	460b      	mov	r3, r1
    285e:	70fb      	strb	r3, [r7, #3]
    2860:	78fb      	ldrb	r3, [r7, #3]
    2862:	2b03      	cmp	r3, #3
    2864:	d81b      	bhi.n	289e <CLOCK_SYS_GetLptmrFreq+0x4a>
    2866:	a201      	add	r2, pc, #4	; (adr r2, 286c <CLOCK_SYS_GetLptmrFreq+0x18>)
    2868:	f852 f023 	ldr.w	pc, [r2, r3, lsl #2]
    286c:	0000287d 	andeq	r2, r0, sp, ror r8
    2870:	00002887 	andeq	r2, r0, r7, lsl #17
    2874:	0000288f 	andeq	r2, r0, pc, lsl #17
    2878:	00002897 	muleq	r0, r7, r8
    287c:	480c      	ldr	r0, [pc, #48]	; (28b0 <CLOCK_SYS_GetLptmrFreq+0x5c>)
    287e:	f000 fe0f 	bl	34a0 <CLOCK_HAL_GetInternalRefClk>
    2882:	60f8      	str	r0, [r7, #12]
    2884:	e00e      	b.n	28a4 <CLOCK_SYS_GetLptmrFreq+0x50>
    2886:	f7ff feeb 	bl	2660 <CLOCK_SYS_GetLpoClockFreq>
    288a:	60f8      	str	r0, [r7, #12]
    288c:	e00a      	b.n	28a4 <CLOCK_SYS_GetLptmrFreq+0x50>
    288e:	f7ff ff8b 	bl	27a8 <CLOCK_SYS_GetExternalRefClock32kFreq>
    2892:	60f8      	str	r0, [r7, #12]
    2894:	e006      	b.n	28a4 <CLOCK_SYS_GetLptmrFreq+0x50>
    2896:	f7ff ffb7 	bl	2808 <CLOCK_SYS_GetOsc0ExternalRefClockUndivFreq>
    289a:	60f8      	str	r0, [r7, #12]
    289c:	e002      	b.n	28a4 <CLOCK_SYS_GetLptmrFreq+0x50>
    289e:	2300      	movs	r3, #0
    28a0:	60fb      	str	r3, [r7, #12]
    28a2:	bf00      	nop
    28a4:	68fb      	ldr	r3, [r7, #12]
    28a6:	4618      	mov	r0, r3
    28a8:	3710      	adds	r7, #16
    28aa:	46bd      	mov	sp, r7
    28ac:	bd80      	pop	{r7, pc}
    28ae:	bf00      	nop
    28b0:	40064000 	andmi	r4, r6, r0

000028b4 <CLOCK_SYS_GetLpuartFreq>:
    28b4:	b580      	push	{r7, lr}
    28b6:	b084      	sub	sp, #16
    28b8:	af00      	add	r7, sp, #0
    28ba:	6078      	str	r0, [r7, #4]
    28bc:	4810      	ldr	r0, [pc, #64]	; (2900 <CLOCK_SYS_GetLpuartFreq+0x4c>)
    28be:	6879      	ldr	r1, [r7, #4]
    28c0:	f7ff fe3e 	bl	2540 <CLOCK_HAL_GetLpuartSrc>
    28c4:	4603      	mov	r3, r0
    28c6:	72fb      	strb	r3, [r7, #11]
    28c8:	7afb      	ldrb	r3, [r7, #11]
    28ca:	2b02      	cmp	r3, #2
    28cc:	d007      	beq.n	28de <CLOCK_SYS_GetLpuartFreq+0x2a>
    28ce:	2b03      	cmp	r3, #3
    28d0:	d009      	beq.n	28e6 <CLOCK_SYS_GetLpuartFreq+0x32>
    28d2:	2b01      	cmp	r3, #1
    28d4:	d10c      	bne.n	28f0 <CLOCK_SYS_GetLpuartFreq+0x3c>
    28d6:	f7ff ff3d 	bl	2754 <CLOCK_SYS_GetPllFllClockFreq>
    28da:	60f8      	str	r0, [r7, #12]
    28dc:	e00b      	b.n	28f6 <CLOCK_SYS_GetLpuartFreq+0x42>
    28de:	f7ff ffa7 	bl	2830 <CLOCK_SYS_GetOsc0ExternalRefClockFreq>
    28e2:	60f8      	str	r0, [r7, #12]
    28e4:	e007      	b.n	28f6 <CLOCK_SYS_GetLpuartFreq+0x42>
    28e6:	4807      	ldr	r0, [pc, #28]	; (2904 <CLOCK_SYS_GetLpuartFreq+0x50>)
    28e8:	f000 fdda 	bl	34a0 <CLOCK_HAL_GetInternalRefClk>
    28ec:	60f8      	str	r0, [r7, #12]
    28ee:	e002      	b.n	28f6 <CLOCK_SYS_GetLpuartFreq+0x42>
    28f0:	2300      	movs	r3, #0
    28f2:	60fb      	str	r3, [r7, #12]
    28f4:	bf00      	nop
    28f6:	68fb      	ldr	r3, [r7, #12]
    28f8:	4618      	mov	r0, r3
    28fa:	3710      	adds	r7, #16
    28fc:	46bd      	mov	sp, r7
    28fe:	bd80      	pop	{r7, pc}
    2900:	40047000 	andmi	r7, r4, r0
    2904:	40064000 	andmi	r4, r6, r0

00002908 <CLOCK_SYS_GetUartFreq>:
    2908:	b580      	push	{r7, lr}
    290a:	b084      	sub	sp, #16
    290c:	af00      	add	r7, sp, #0
    290e:	6078      	str	r0, [r7, #4]
    2910:	687b      	ldr	r3, [r7, #4]
    2912:	2b01      	cmp	r3, #1
    2914:	d902      	bls.n	291c <CLOCK_SYS_GetUartFreq+0x14>
    2916:	2b02      	cmp	r3, #2
    2918:	d004      	beq.n	2924 <CLOCK_SYS_GetUartFreq+0x1c>
    291a:	e007      	b.n	292c <CLOCK_SYS_GetUartFreq+0x24>
    291c:	f7ff fef2 	bl	2704 <CLOCK_SYS_GetSystemClockFreq>
    2920:	60f8      	str	r0, [r7, #12]
    2922:	e006      	b.n	2932 <CLOCK_SYS_GetUartFreq+0x2a>
    2924:	f7ff ff02 	bl	272c <CLOCK_SYS_GetBusClockFreq>
    2928:	60f8      	str	r0, [r7, #12]
    292a:	e002      	b.n	2932 <CLOCK_SYS_GetUartFreq+0x2a>
    292c:	2300      	movs	r3, #0
    292e:	60fb      	str	r3, [r7, #12]
    2930:	bf00      	nop
    2932:	68fb      	ldr	r3, [r7, #12]
    2934:	4618      	mov	r0, r3
    2936:	3710      	adds	r7, #16
    2938:	46bd      	mov	sp, r7
    293a:	bd80      	pop	{r7, pc}

0000293c <CLOCK_SYS_EnablePortClock>:
    293c:	b580      	push	{r7, lr}
    293e:	b082      	sub	sp, #8
    2940:	af00      	add	r7, sp, #0
    2942:	6078      	str	r0, [r7, #4]
    2944:	687b      	ldr	r3, [r7, #4]
    2946:	2b04      	cmp	r3, #4
    2948:	d906      	bls.n	2958 <CLOCK_SYS_EnablePortClock+0x1c>
    294a:	4809      	ldr	r0, [pc, #36]	; (2970 <CLOCK_SYS_EnablePortClock+0x34>)
    294c:	f240 2156 	movw	r1, #598	; 0x256
    2950:	4a08      	ldr	r2, [pc, #32]	; (2974 <CLOCK_SYS_EnablePortClock+0x38>)
    2952:	4b09      	ldr	r3, [pc, #36]	; (2978 <CLOCK_SYS_EnablePortClock+0x3c>)
    2954:	f000 ff9e 	bl	3894 <__assert_func>
    2958:	4a08      	ldr	r2, [pc, #32]	; (297c <CLOCK_SYS_EnablePortClock+0x40>)
    295a:	687b      	ldr	r3, [r7, #4]
    295c:	4413      	add	r3, r2
    295e:	781b      	ldrb	r3, [r3, #0]
    2960:	4807      	ldr	r0, [pc, #28]	; (2980 <CLOCK_SYS_EnablePortClock+0x44>)
    2962:	4619      	mov	r1, r3
    2964:	f7ff fdca 	bl	24fc <SIM_HAL_EnableClock>
    2968:	3708      	adds	r7, #8
    296a:	46bd      	mov	sp, r7
    296c:	bd80      	pop	{r7, pc}
    296e:	bf00      	nop
    2970:	00004a6c 	andeq	r4, r0, ip, ror #20
    2974:	00004ee0 	andeq	r4, r0, r0, ror #29
    2978:	00004ad0 	ldrdeq	r4, [r0], -r0
    297c:	00004ed4 	ldrdeq	r4, [r0], -r4	; <UNPREDICTABLE>
    2980:	40047000 	andmi	r7, r4, r0

00002984 <CLOCK_SYS_EnableUartClock>:
    2984:	b580      	push	{r7, lr}
    2986:	b082      	sub	sp, #8
    2988:	af00      	add	r7, sp, #0
    298a:	6078      	str	r0, [r7, #4]
    298c:	687b      	ldr	r3, [r7, #4]
    298e:	2b02      	cmp	r3, #2
    2990:	d906      	bls.n	29a0 <CLOCK_SYS_EnableUartClock+0x1c>
    2992:	4809      	ldr	r0, [pc, #36]	; (29b8 <CLOCK_SYS_EnableUartClock+0x34>)
    2994:	f240 317f 	movw	r1, #895	; 0x37f
    2998:	4a08      	ldr	r2, [pc, #32]	; (29bc <CLOCK_SYS_EnableUartClock+0x38>)
    299a:	4b09      	ldr	r3, [pc, #36]	; (29c0 <CLOCK_SYS_EnableUartClock+0x3c>)
    299c:	f000 ff7a 	bl	3894 <__assert_func>
    29a0:	4a08      	ldr	r2, [pc, #32]	; (29c4 <CLOCK_SYS_EnableUartClock+0x40>)
    29a2:	687b      	ldr	r3, [r7, #4]
    29a4:	4413      	add	r3, r2
    29a6:	781b      	ldrb	r3, [r3, #0]
    29a8:	4807      	ldr	r0, [pc, #28]	; (29c8 <CLOCK_SYS_EnableUartClock+0x44>)
    29aa:	4619      	mov	r1, r3
    29ac:	f7ff fda6 	bl	24fc <SIM_HAL_EnableClock>
    29b0:	3708      	adds	r7, #8
    29b2:	46bd      	mov	sp, r7
    29b4:	bd80      	pop	{r7, pc}
    29b6:	bf00      	nop
    29b8:	00004a6c 	andeq	r4, r0, ip, ror #20
    29bc:	00004efc 	strdeq	r4, [r0], -ip
    29c0:	00004c24 	andeq	r4, r0, r4, lsr #24
    29c4:	00004edc 	ldrdeq	r4, [r0], -ip
    29c8:	40047000 	andmi	r7, r4, r0

000029cc <SIM_HAL_EnableClock>:
    29cc:	b480      	push	{r7}
    29ce:	b083      	sub	sp, #12
    29d0:	af00      	add	r7, sp, #0
    29d2:	6078      	str	r0, [r7, #4]
    29d4:	460b      	mov	r3, r1
    29d6:	70fb      	strb	r3, [r7, #3]
    29d8:	687b      	ldr	r3, [r7, #4]
    29da:	f503 5381 	add.w	r3, r3, #4128	; 0x1020
    29de:	3314      	adds	r3, #20
    29e0:	78fa      	ldrb	r2, [r7, #3]
    29e2:	0952      	lsrs	r2, r2, #5
    29e4:	b2d2      	uxtb	r2, r2
    29e6:	f102 4280 	add.w	r2, r2, #1073741824	; 0x40000000
    29ea:	3a03      	subs	r2, #3
    29ec:	0092      	lsls	r2, r2, #2
    29ee:	4413      	add	r3, r2
    29f0:	f103 7304 	add.w	r3, r3, #34603008	; 0x2100000
    29f4:	00da      	lsls	r2, r3, #3
    29f6:	78fb      	ldrb	r3, [r7, #3]
    29f8:	f003 031f 	and.w	r3, r3, #31
    29fc:	4413      	add	r3, r2
    29fe:	009b      	lsls	r3, r3, #2
    2a00:	2201      	movs	r2, #1
    2a02:	601a      	str	r2, [r3, #0]
    2a04:	370c      	adds	r7, #12
    2a06:	46bd      	mov	sp, r7
    2a08:	f85d 7b04 	ldr.w	r7, [sp], #4
    2a0c:	4770      	bx	lr
    2a0e:	bf00      	nop

00002a10 <CLOCK_HAL_SetClkOutSrc>:
    2a10:	b480      	push	{r7}
    2a12:	b083      	sub	sp, #12
    2a14:	af00      	add	r7, sp, #0
    2a16:	6078      	str	r0, [r7, #4]
    2a18:	460b      	mov	r3, r1
    2a1a:	70fb      	strb	r3, [r7, #3]
    2a1c:	687b      	ldr	r3, [r7, #4]
    2a1e:	781b      	ldrb	r3, [r3, #0]
    2a20:	b2db      	uxtb	r3, r3
    2a22:	f003 033f 	and.w	r3, r3, #63	; 0x3f
    2a26:	b2da      	uxtb	r2, r3
    2a28:	78fb      	ldrb	r3, [r7, #3]
    2a2a:	019b      	lsls	r3, r3, #6
    2a2c:	b2db      	uxtb	r3, r3
    2a2e:	4313      	orrs	r3, r2
    2a30:	b2da      	uxtb	r2, r3
    2a32:	687b      	ldr	r3, [r7, #4]
    2a34:	701a      	strb	r2, [r3, #0]
    2a36:	370c      	adds	r7, #12
    2a38:	46bd      	mov	sp, r7
    2a3a:	f85d 7b04 	ldr.w	r7, [sp], #4
    2a3e:	4770      	bx	lr

00002a40 <CLOCK_HAL_SetClksFrdivIrefs>:
    2a40:	b480      	push	{r7}
    2a42:	b083      	sub	sp, #12
    2a44:	af00      	add	r7, sp, #0
    2a46:	6078      	str	r0, [r7, #4]
    2a48:	70f9      	strb	r1, [r7, #3]
    2a4a:	70ba      	strb	r2, [r7, #2]
    2a4c:	707b      	strb	r3, [r7, #1]
    2a4e:	687b      	ldr	r3, [r7, #4]
    2a50:	781b      	ldrb	r3, [r3, #0]
    2a52:	b2db      	uxtb	r3, r3
    2a54:	f003 0303 	and.w	r3, r3, #3
    2a58:	b2da      	uxtb	r2, r3
    2a5a:	78fb      	ldrb	r3, [r7, #3]
    2a5c:	019b      	lsls	r3, r3, #6
    2a5e:	b2d9      	uxtb	r1, r3
    2a60:	78bb      	ldrb	r3, [r7, #2]
    2a62:	00db      	lsls	r3, r3, #3
    2a64:	b2db      	uxtb	r3, r3
    2a66:	f003 0338 	and.w	r3, r3, #56	; 0x38
    2a6a:	b2db      	uxtb	r3, r3
    2a6c:	430b      	orrs	r3, r1
    2a6e:	b2d9      	uxtb	r1, r3
    2a70:	787b      	ldrb	r3, [r7, #1]
    2a72:	009b      	lsls	r3, r3, #2
    2a74:	b2db      	uxtb	r3, r3
    2a76:	f003 0304 	and.w	r3, r3, #4
    2a7a:	b2db      	uxtb	r3, r3
    2a7c:	430b      	orrs	r3, r1
    2a7e:	b2db      	uxtb	r3, r3
    2a80:	4313      	orrs	r3, r2
    2a82:	b2da      	uxtb	r2, r3
    2a84:	687b      	ldr	r3, [r7, #4]
    2a86:	701a      	strb	r2, [r3, #0]
    2a88:	370c      	adds	r7, #12
    2a8a:	46bd      	mov	sp, r7
    2a8c:	f85d 7b04 	ldr.w	r7, [sp], #4
    2a90:	4770      	bx	lr
    2a92:	bf00      	nop

00002a94 <CLOCK_HAL_GetClkOutStat>:
    2a94:	b480      	push	{r7}
    2a96:	b083      	sub	sp, #12
    2a98:	af00      	add	r7, sp, #0
    2a9a:	6078      	str	r0, [r7, #4]
    2a9c:	687b      	ldr	r3, [r7, #4]
    2a9e:	799b      	ldrb	r3, [r3, #6]
    2aa0:	b2db      	uxtb	r3, r3
    2aa2:	f003 030c 	and.w	r3, r3, #12
    2aa6:	089b      	lsrs	r3, r3, #2
    2aa8:	b2db      	uxtb	r3, r3
    2aaa:	4618      	mov	r0, r3
    2aac:	370c      	adds	r7, #12
    2aae:	46bd      	mov	sp, r7
    2ab0:	f85d 7b04 	ldr.w	r7, [sp], #4
    2ab4:	4770      	bx	lr
    2ab6:	bf00      	nop

00002ab8 <CLOCK_HAL_GetFllSrc>:
    2ab8:	b480      	push	{r7}
    2aba:	b083      	sub	sp, #12
    2abc:	af00      	add	r7, sp, #0
    2abe:	6078      	str	r0, [r7, #4]
    2ac0:	687b      	ldr	r3, [r7, #4]
    2ac2:	3306      	adds	r3, #6
    2ac4:	f103 7304 	add.w	r3, r3, #34603008	; 0x2100000
    2ac8:	015b      	lsls	r3, r3, #5
    2aca:	3310      	adds	r3, #16
    2acc:	781b      	ldrb	r3, [r3, #0]
    2ace:	b2db      	uxtb	r3, r3
    2ad0:	4618      	mov	r0, r3
    2ad2:	370c      	adds	r7, #12
    2ad4:	46bd      	mov	sp, r7
    2ad6:	f85d 7b04 	ldr.w	r7, [sp], #4
    2ada:	4770      	bx	lr

00002adc <CLOCK_HAL_IsOsc0Stable>:
    2adc:	b480      	push	{r7}
    2ade:	b083      	sub	sp, #12
    2ae0:	af00      	add	r7, sp, #0
    2ae2:	6078      	str	r0, [r7, #4]
    2ae4:	687b      	ldr	r3, [r7, #4]
    2ae6:	3306      	adds	r3, #6
    2ae8:	f103 7304 	add.w	r3, r3, #34603008	; 0x2100000
    2aec:	015b      	lsls	r3, r3, #5
    2aee:	3304      	adds	r3, #4
    2af0:	781b      	ldrb	r3, [r3, #0]
    2af2:	b2db      	uxtb	r3, r3
    2af4:	2b00      	cmp	r3, #0
    2af6:	bf0c      	ite	eq
    2af8:	2300      	moveq	r3, #0
    2afa:	2301      	movne	r3, #1
    2afc:	b2db      	uxtb	r3, r3
    2afe:	4618      	mov	r0, r3
    2b00:	370c      	adds	r7, #12
    2b02:	46bd      	mov	sp, r7
    2b04:	f85d 7b04 	ldr.w	r7, [sp], #4
    2b08:	4770      	bx	lr
    2b0a:	bf00      	nop

00002b0c <OSC_HAL_SetExternalRefClkCmd>:
    2b0c:	b480      	push	{r7}
    2b0e:	b083      	sub	sp, #12
    2b10:	af00      	add	r7, sp, #0
    2b12:	6078      	str	r0, [r7, #4]
    2b14:	460b      	mov	r3, r1
    2b16:	70fb      	strb	r3, [r7, #3]
    2b18:	687b      	ldr	r3, [r7, #4]
    2b1a:	f103 7304 	add.w	r3, r3, #34603008	; 0x2100000
    2b1e:	015b      	lsls	r3, r3, #5
    2b20:	331c      	adds	r3, #28
    2b22:	78fa      	ldrb	r2, [r7, #3]
    2b24:	701a      	strb	r2, [r3, #0]
    2b26:	370c      	adds	r7, #12
    2b28:	46bd      	mov	sp, r7
    2b2a:	f85d 7b04 	ldr.w	r7, [sp], #4
    2b2e:	4770      	bx	lr

00002b30 <OSC_HAL_SetExternalRefClkInStopModeCmd>:
    2b30:	b480      	push	{r7}
    2b32:	b083      	sub	sp, #12
    2b34:	af00      	add	r7, sp, #0
    2b36:	6078      	str	r0, [r7, #4]
    2b38:	460b      	mov	r3, r1
    2b3a:	70fb      	strb	r3, [r7, #3]
    2b3c:	687b      	ldr	r3, [r7, #4]
    2b3e:	f103 7304 	add.w	r3, r3, #34603008	; 0x2100000
    2b42:	015b      	lsls	r3, r3, #5
    2b44:	3314      	adds	r3, #20
    2b46:	78fa      	ldrb	r2, [r7, #3]
    2b48:	701a      	strb	r2, [r3, #0]
    2b4a:	370c      	adds	r7, #12
    2b4c:	46bd      	mov	sp, r7
    2b4e:	f85d 7b04 	ldr.w	r7, [sp], #4
    2b52:	4770      	bx	lr

00002b54 <OSC_HAL_SetExternalRefClkDiv>:
    2b54:	b480      	push	{r7}
    2b56:	b083      	sub	sp, #12
    2b58:	af00      	add	r7, sp, #0
    2b5a:	6078      	str	r0, [r7, #4]
    2b5c:	6039      	str	r1, [r7, #0]
    2b5e:	687b      	ldr	r3, [r7, #4]
    2b60:	789b      	ldrb	r3, [r3, #2]
    2b62:	b2db      	uxtb	r3, r3
    2b64:	f003 033f 	and.w	r3, r3, #63	; 0x3f
    2b68:	b2da      	uxtb	r2, r3
    2b6a:	683b      	ldr	r3, [r7, #0]
    2b6c:	b2db      	uxtb	r3, r3
    2b6e:	019b      	lsls	r3, r3, #6
    2b70:	b2db      	uxtb	r3, r3
    2b72:	4313      	orrs	r3, r2
    2b74:	b2da      	uxtb	r2, r3
    2b76:	687b      	ldr	r3, [r7, #4]
    2b78:	709a      	strb	r2, [r3, #2]
    2b7a:	370c      	adds	r7, #12
    2b7c:	46bd      	mov	sp, r7
    2b7e:	f85d 7b04 	ldr.w	r7, [sp], #4
    2b82:	4770      	bx	lr

00002b84 <CLOCK_SYS_EnableRtcClock>:
    2b84:	b580      	push	{r7, lr}
    2b86:	b082      	sub	sp, #8
    2b88:	af00      	add	r7, sp, #0
    2b8a:	6078      	str	r0, [r7, #4]
    2b8c:	4803      	ldr	r0, [pc, #12]	; (2b9c <CLOCK_SYS_EnableRtcClock+0x18>)
    2b8e:	21bd      	movs	r1, #189	; 0xbd
    2b90:	f7ff ff1c 	bl	29cc <SIM_HAL_EnableClock>
    2b94:	3708      	adds	r7, #8
    2b96:	46bd      	mov	sp, r7
    2b98:	bd80      	pop	{r7, pc}
    2b9a:	bf00      	nop
    2b9c:	40047000 	andmi	r7, r4, r0

00002ba0 <RTC_HAL_SetOsc2pfLoadCmd>:
    2ba0:	b480      	push	{r7}
    2ba2:	b083      	sub	sp, #12
    2ba4:	af00      	add	r7, sp, #0
    2ba6:	6078      	str	r0, [r7, #4]
    2ba8:	460b      	mov	r3, r1
    2baa:	70fb      	strb	r3, [r7, #3]
    2bac:	687b      	ldr	r3, [r7, #4]
    2bae:	3310      	adds	r3, #16
    2bb0:	f103 7304 	add.w	r3, r3, #34603008	; 0x2100000
    2bb4:	015b      	lsls	r3, r3, #5
    2bb6:	3334      	adds	r3, #52	; 0x34
    2bb8:	78fa      	ldrb	r2, [r7, #3]
    2bba:	601a      	str	r2, [r3, #0]
    2bbc:	370c      	adds	r7, #12
    2bbe:	46bd      	mov	sp, r7
    2bc0:	f85d 7b04 	ldr.w	r7, [sp], #4
    2bc4:	4770      	bx	lr
    2bc6:	bf00      	nop

00002bc8 <RTC_HAL_SetOsc4pfLoadCmd>:
    2bc8:	b480      	push	{r7}
    2bca:	b083      	sub	sp, #12
    2bcc:	af00      	add	r7, sp, #0
    2bce:	6078      	str	r0, [r7, #4]
    2bd0:	460b      	mov	r3, r1
    2bd2:	70fb      	strb	r3, [r7, #3]
    2bd4:	687b      	ldr	r3, [r7, #4]
    2bd6:	3310      	adds	r3, #16
    2bd8:	f103 7304 	add.w	r3, r3, #34603008	; 0x2100000
    2bdc:	015b      	lsls	r3, r3, #5
    2bde:	3330      	adds	r3, #48	; 0x30
    2be0:	78fa      	ldrb	r2, [r7, #3]
    2be2:	601a      	str	r2, [r3, #0]
    2be4:	370c      	adds	r7, #12
    2be6:	46bd      	mov	sp, r7
    2be8:	f85d 7b04 	ldr.w	r7, [sp], #4
    2bec:	4770      	bx	lr
    2bee:	bf00      	nop

00002bf0 <RTC_HAL_SetOsc8pfLoadCmd>:
    2bf0:	b480      	push	{r7}
    2bf2:	b083      	sub	sp, #12
    2bf4:	af00      	add	r7, sp, #0
    2bf6:	6078      	str	r0, [r7, #4]
    2bf8:	460b      	mov	r3, r1
    2bfa:	70fb      	strb	r3, [r7, #3]
    2bfc:	687b      	ldr	r3, [r7, #4]
    2bfe:	3310      	adds	r3, #16
    2c00:	f103 7304 	add.w	r3, r3, #34603008	; 0x2100000
    2c04:	015b      	lsls	r3, r3, #5
    2c06:	332c      	adds	r3, #44	; 0x2c
    2c08:	78fa      	ldrb	r2, [r7, #3]
    2c0a:	601a      	str	r2, [r3, #0]
    2c0c:	370c      	adds	r7, #12
    2c0e:	46bd      	mov	sp, r7
    2c10:	f85d 7b04 	ldr.w	r7, [sp], #4
    2c14:	4770      	bx	lr
    2c16:	bf00      	nop

00002c18 <RTC_HAL_SetOsc16pfLoadCmd>:
    2c18:	b480      	push	{r7}
    2c1a:	b083      	sub	sp, #12
    2c1c:	af00      	add	r7, sp, #0
    2c1e:	6078      	str	r0, [r7, #4]
    2c20:	460b      	mov	r3, r1
    2c22:	70fb      	strb	r3, [r7, #3]
    2c24:	687b      	ldr	r3, [r7, #4]
    2c26:	3310      	adds	r3, #16
    2c28:	f103 7304 	add.w	r3, r3, #34603008	; 0x2100000
    2c2c:	015b      	lsls	r3, r3, #5
    2c2e:	3328      	adds	r3, #40	; 0x28
    2c30:	78fa      	ldrb	r2, [r7, #3]
    2c32:	601a      	str	r2, [r3, #0]
    2c34:	370c      	adds	r7, #12
    2c36:	46bd      	mov	sp, r7
    2c38:	f85d 7b04 	ldr.w	r7, [sp], #4
    2c3c:	4770      	bx	lr
    2c3e:	bf00      	nop

00002c40 <RTC_HAL_SetOscillatorCmd>:
    2c40:	b480      	push	{r7}
    2c42:	b083      	sub	sp, #12
    2c44:	af00      	add	r7, sp, #0
    2c46:	6078      	str	r0, [r7, #4]
    2c48:	460b      	mov	r3, r1
    2c4a:	70fb      	strb	r3, [r7, #3]
    2c4c:	687b      	ldr	r3, [r7, #4]
    2c4e:	3310      	adds	r3, #16
    2c50:	f103 7304 	add.w	r3, r3, #34603008	; 0x2100000
    2c54:	3301      	adds	r3, #1
    2c56:	015b      	lsls	r3, r3, #5
    2c58:	78fa      	ldrb	r2, [r7, #3]
    2c5a:	601a      	str	r2, [r3, #0]
    2c5c:	370c      	adds	r7, #12
    2c5e:	46bd      	mov	sp, r7
    2c60:	f85d 7b04 	ldr.w	r7, [sp], #4
    2c64:	4770      	bx	lr
    2c66:	bf00      	nop

00002c68 <RTC_HAL_IsOscillatorEnabled>:
    2c68:	b480      	push	{r7}
    2c6a:	b083      	sub	sp, #12
    2c6c:	af00      	add	r7, sp, #0
    2c6e:	6078      	str	r0, [r7, #4]
    2c70:	687b      	ldr	r3, [r7, #4]
    2c72:	3310      	adds	r3, #16
    2c74:	f103 7304 	add.w	r3, r3, #34603008	; 0x2100000
    2c78:	3301      	adds	r3, #1
    2c7a:	015b      	lsls	r3, r3, #5
    2c7c:	681b      	ldr	r3, [r3, #0]
    2c7e:	2b00      	cmp	r3, #0
    2c80:	bf0c      	ite	eq
    2c82:	2300      	moveq	r3, #0
    2c84:	2301      	movne	r3, #1
    2c86:	b2db      	uxtb	r3, r3
    2c88:	4618      	mov	r0, r3
    2c8a:	370c      	adds	r7, #12
    2c8c:	46bd      	mov	sp, r7
    2c8e:	f85d 7b04 	ldr.w	r7, [sp], #4
    2c92:	4770      	bx	lr

00002c94 <CLOCK_SYS_BootToPee>:
    2c94:	b580      	push	{r7, lr}
    2c96:	b086      	sub	sp, #24
    2c98:	af02      	add	r7, sp, #8
    2c9a:	6078      	str	r0, [r7, #4]
    2c9c:	2300      	movs	r3, #0
    2c9e:	73fb      	strb	r3, [r7, #15]
    2ca0:	687b      	ldr	r3, [r7, #4]
    2ca2:	7a5b      	ldrb	r3, [r3, #9]
    2ca4:	73bb      	strb	r3, [r7, #14]
    2ca6:	7bbb      	ldrb	r3, [r7, #14]
    2ca8:	4822      	ldr	r0, [pc, #136]	; (2d34 <CLOCK_SYS_BootToPee+0xa0>)
    2caa:	4619      	mov	r1, r3
    2cac:	f000 fa02 	bl	30b4 <CLOCK_HAL_PrepareOsc>
    2cb0:	687b      	ldr	r3, [r7, #4]
    2cb2:	799b      	ldrb	r3, [r3, #6]
    2cb4:	481f      	ldr	r0, [pc, #124]	; (2d34 <CLOCK_SYS_BootToPee+0xa0>)
    2cb6:	2102      	movs	r1, #2
    2cb8:	461a      	mov	r2, r3
    2cba:	2300      	movs	r3, #0
    2cbc:	f7ff fec0 	bl	2a40 <CLOCK_HAL_SetClksFrdivIrefs>
    2cc0:	bf00      	nop
    2cc2:	481c      	ldr	r0, [pc, #112]	; (2d34 <CLOCK_SYS_BootToPee+0xa0>)
    2cc4:	f7ff fef8 	bl	2ab8 <CLOCK_HAL_GetFllSrc>
    2cc8:	4603      	mov	r3, r0
    2cca:	2b00      	cmp	r3, #0
    2ccc:	d1f9      	bne.n	2cc2 <CLOCK_SYS_BootToPee+0x2e>
    2cce:	bf00      	nop
    2cd0:	4818      	ldr	r0, [pc, #96]	; (2d34 <CLOCK_SYS_BootToPee+0xa0>)
    2cd2:	f7ff fedf 	bl	2a94 <CLOCK_HAL_GetClkOutStat>
    2cd6:	4603      	mov	r3, r0
    2cd8:	2b02      	cmp	r3, #2
    2cda:	d1f9      	bne.n	2cd0 <CLOCK_SYS_BootToPee+0x3c>
    2cdc:	687b      	ldr	r3, [r7, #4]
    2cde:	7b1b      	ldrb	r3, [r3, #12]
    2ce0:	687a      	ldr	r2, [r7, #4]
    2ce2:	7b50      	ldrb	r0, [r2, #13]
    2ce4:	7bb9      	ldrb	r1, [r7, #14]
    2ce6:	7bfa      	ldrb	r2, [r7, #15]
    2ce8:	9000      	str	r0, [sp, #0]
    2cea:	4812      	ldr	r0, [pc, #72]	; (2d34 <CLOCK_SYS_BootToPee+0xa0>)
    2cec:	f000 fcc0 	bl	3670 <CLOCK_HAL_SetPbeMode>
    2cf0:	4603      	mov	r3, r0
    2cf2:	81bb      	strh	r3, [r7, #12]
    2cf4:	89bb      	ldrh	r3, [r7, #12]
    2cf6:	2b00      	cmp	r3, #0
    2cf8:	d117      	bne.n	2d2a <CLOCK_SYS_BootToPee+0x96>
    2cfa:	480e      	ldr	r0, [pc, #56]	; (2d34 <CLOCK_SYS_BootToPee+0xa0>)
    2cfc:	2100      	movs	r1, #0
    2cfe:	f7ff fe87 	bl	2a10 <CLOCK_HAL_SetClkOutSrc>
    2d02:	bf00      	nop
    2d04:	480b      	ldr	r0, [pc, #44]	; (2d34 <CLOCK_SYS_BootToPee+0xa0>)
    2d06:	f7ff fec5 	bl	2a94 <CLOCK_HAL_GetClkOutStat>
    2d0a:	4603      	mov	r3, r0
    2d0c:	2b03      	cmp	r3, #3
    2d0e:	d1f9      	bne.n	2d04 <CLOCK_SYS_BootToPee+0x70>
    2d10:	687b      	ldr	r3, [r7, #4]
    2d12:	789b      	ldrb	r3, [r3, #2]
    2d14:	2b00      	cmp	r3, #0
    2d16:	d008      	beq.n	2d2a <CLOCK_SYS_BootToPee+0x96>
    2d18:	687b      	ldr	r3, [r7, #4]
    2d1a:	7919      	ldrb	r1, [r3, #4]
    2d1c:	687b      	ldr	r3, [r7, #4]
    2d1e:	795a      	ldrb	r2, [r3, #5]
    2d20:	687b      	ldr	r3, [r7, #4]
    2d22:	78db      	ldrb	r3, [r3, #3]
    2d24:	4803      	ldr	r0, [pc, #12]	; (2d34 <CLOCK_SYS_BootToPee+0xa0>)
    2d26:	f000 fb39 	bl	339c <CLOCK_HAL_UpdateInternalRefClk>
    2d2a:	89bb      	ldrh	r3, [r7, #12]
    2d2c:	4618      	mov	r0, r3
    2d2e:	3710      	adds	r7, #16
    2d30:	46bd      	mov	sp, r7
    2d32:	bd80      	pop	{r7, pc}
    2d34:	40064000 	andmi	r4, r6, r0

00002d38 <CLOCK_SYS_OscInit>:
    2d38:	b580      	push	{r7, lr}
    2d3a:	b084      	sub	sp, #16
    2d3c:	af00      	add	r7, sp, #0
    2d3e:	6078      	str	r0, [r7, #4]
    2d40:	6039      	str	r1, [r7, #0]
    2d42:	687b      	ldr	r3, [r7, #4]
    2d44:	2b00      	cmp	r3, #0
    2d46:	d006      	beq.n	2d56 <CLOCK_SYS_OscInit+0x1e>
    2d48:	482f      	ldr	r0, [pc, #188]	; (2e08 <CLOCK_SYS_OscInit+0xd0>)
    2d4a:	f240 319e 	movw	r1, #926	; 0x39e
    2d4e:	4a2f      	ldr	r2, [pc, #188]	; (2e0c <CLOCK_SYS_OscInit+0xd4>)
    2d50:	4b2f      	ldr	r3, [pc, #188]	; (2e10 <CLOCK_SYS_OscInit+0xd8>)
    2d52:	f000 fd9f 	bl	3894 <__assert_func>
    2d56:	2300      	movs	r3, #0
    2d58:	60fb      	str	r3, [r7, #12]
    2d5a:	683b      	ldr	r3, [r7, #0]
    2d5c:	7a9b      	ldrb	r3, [r3, #10]
    2d5e:	2b01      	cmp	r3, #1
    2d60:	d127      	bne.n	2db2 <CLOCK_SYS_OscInit+0x7a>
    2d62:	683b      	ldr	r3, [r7, #0]
    2d64:	791b      	ldrb	r3, [r3, #4]
    2d66:	2b00      	cmp	r3, #0
    2d68:	d001      	beq.n	2d6e <CLOCK_SYS_OscInit+0x36>
    2d6a:	2208      	movs	r2, #8
    2d6c:	e000      	b.n	2d70 <CLOCK_SYS_OscInit+0x38>
    2d6e:	2200      	movs	r2, #0
    2d70:	683b      	ldr	r3, [r7, #0]
    2d72:	795b      	ldrb	r3, [r3, #5]
    2d74:	2b00      	cmp	r3, #0
    2d76:	d001      	beq.n	2d7c <CLOCK_SYS_OscInit+0x44>
    2d78:	2304      	movs	r3, #4
    2d7a:	e000      	b.n	2d7e <CLOCK_SYS_OscInit+0x46>
    2d7c:	2300      	movs	r3, #0
    2d7e:	431a      	orrs	r2, r3
    2d80:	683b      	ldr	r3, [r7, #0]
    2d82:	799b      	ldrb	r3, [r3, #6]
    2d84:	2b00      	cmp	r3, #0
    2d86:	d001      	beq.n	2d8c <CLOCK_SYS_OscInit+0x54>
    2d88:	2302      	movs	r3, #2
    2d8a:	e000      	b.n	2d8e <CLOCK_SYS_OscInit+0x56>
    2d8c:	2300      	movs	r3, #0
    2d8e:	431a      	orrs	r2, r3
    2d90:	683b      	ldr	r3, [r7, #0]
    2d92:	79db      	ldrb	r3, [r3, #7]
    2d94:	2b00      	cmp	r3, #0
    2d96:	d001      	beq.n	2d9c <CLOCK_SYS_OscInit+0x64>
    2d98:	2301      	movs	r3, #1
    2d9a:	e000      	b.n	2d9e <CLOCK_SYS_OscInit+0x66>
    2d9c:	2300      	movs	r3, #0
    2d9e:	4313      	orrs	r3, r2
    2da0:	60fb      	str	r3, [r7, #12]
    2da2:	4b1c      	ldr	r3, [pc, #112]	; (2e14 <CLOCK_SYS_OscInit+0xdc>)
    2da4:	687a      	ldr	r2, [r7, #4]
    2da6:	f853 3022 	ldr.w	r3, [r3, r2, lsl #2]
    2daa:	4618      	mov	r0, r3
    2dac:	68f9      	ldr	r1, [r7, #12]
    2dae:	f000 f8dd 	bl	2f6c <OSC_HAL_SetCapacitor>
    2db2:	683b      	ldr	r3, [r7, #0]
    2db4:	330b      	adds	r3, #11
    2db6:	6878      	ldr	r0, [r7, #4]
    2db8:	4619      	mov	r1, r3
    2dba:	f000 f831 	bl	2e20 <CLOCK_SYS_SetOscerConfigration>
    2dbe:	683b      	ldr	r3, [r7, #0]
    2dc0:	7a59      	ldrb	r1, [r3, #9]
    2dc2:	683b      	ldr	r3, [r7, #0]
    2dc4:	7a1a      	ldrb	r2, [r3, #8]
    2dc6:	683b      	ldr	r3, [r7, #0]
    2dc8:	7a9b      	ldrb	r3, [r3, #10]
    2dca:	4813      	ldr	r0, [pc, #76]	; (2e18 <CLOCK_SYS_OscInit+0xe0>)
    2dcc:	f000 fbce 	bl	356c <CLOCK_HAL_SetOsc0Mode>
    2dd0:	683b      	ldr	r3, [r7, #0]
    2dd2:	7a9b      	ldrb	r3, [r3, #10]
    2dd4:	2b01      	cmp	r3, #1
    2dd6:	d10d      	bne.n	2df4 <CLOCK_SYS_OscInit+0xbc>
    2dd8:	683b      	ldr	r3, [r7, #0]
    2dda:	7adb      	ldrb	r3, [r3, #11]
    2ddc:	2b00      	cmp	r3, #0
    2dde:	d009      	beq.n	2df4 <CLOCK_SYS_OscInit+0xbc>
    2de0:	bf00      	nop
    2de2:	480d      	ldr	r0, [pc, #52]	; (2e18 <CLOCK_SYS_OscInit+0xe0>)
    2de4:	f7ff fe7a 	bl	2adc <CLOCK_HAL_IsOsc0Stable>
    2de8:	4603      	mov	r3, r0
    2dea:	f083 0301 	eor.w	r3, r3, #1
    2dee:	b2db      	uxtb	r3, r3
    2df0:	2b00      	cmp	r3, #0
    2df2:	d1f6      	bne.n	2de2 <CLOCK_SYS_OscInit+0xaa>
    2df4:	683b      	ldr	r3, [r7, #0]
    2df6:	681a      	ldr	r2, [r3, #0]
    2df8:	4b08      	ldr	r3, [pc, #32]	; (2e1c <CLOCK_SYS_OscInit+0xe4>)
    2dfa:	601a      	str	r2, [r3, #0]
    2dfc:	2300      	movs	r3, #0
    2dfe:	4618      	mov	r0, r3
    2e00:	3710      	adds	r7, #16
    2e02:	46bd      	mov	sp, r7
    2e04:	bd80      	pop	{r7, pc}
    2e06:	bf00      	nop
    2e08:	00004c60 	andeq	r4, r0, r0, ror #24
    2e0c:	00004f18 	andeq	r4, r0, r8, lsl pc
    2e10:	00004cec 	andeq	r4, r0, ip, ror #25
    2e14:	00004f44 	andeq	r4, r0, r4, asr #30
    2e18:	40064000 	andmi	r4, r6, r0
    2e1c:	1fff00d4 	svcne	0x00ff00d4

00002e20 <CLOCK_SYS_SetOscerConfigration>:
    2e20:	b580      	push	{r7, lr}
    2e22:	b082      	sub	sp, #8
    2e24:	af00      	add	r7, sp, #0
    2e26:	6078      	str	r0, [r7, #4]
    2e28:	6039      	str	r1, [r7, #0]
    2e2a:	4b10      	ldr	r3, [pc, #64]	; (2e6c <CLOCK_SYS_SetOscerConfigration+0x4c>)
    2e2c:	687a      	ldr	r2, [r7, #4]
    2e2e:	f853 2022 	ldr.w	r2, [r3, r2, lsl #2]
    2e32:	683b      	ldr	r3, [r7, #0]
    2e34:	789b      	ldrb	r3, [r3, #2]
    2e36:	4610      	mov	r0, r2
    2e38:	4619      	mov	r1, r3
    2e3a:	f7ff fe8b 	bl	2b54 <OSC_HAL_SetExternalRefClkDiv>
    2e3e:	4b0b      	ldr	r3, [pc, #44]	; (2e6c <CLOCK_SYS_SetOscerConfigration+0x4c>)
    2e40:	687a      	ldr	r2, [r7, #4]
    2e42:	f853 2022 	ldr.w	r2, [r3, r2, lsl #2]
    2e46:	683b      	ldr	r3, [r7, #0]
    2e48:	781b      	ldrb	r3, [r3, #0]
    2e4a:	4610      	mov	r0, r2
    2e4c:	4619      	mov	r1, r3
    2e4e:	f7ff fe5d 	bl	2b0c <OSC_HAL_SetExternalRefClkCmd>
    2e52:	4b06      	ldr	r3, [pc, #24]	; (2e6c <CLOCK_SYS_SetOscerConfigration+0x4c>)
    2e54:	687a      	ldr	r2, [r7, #4]
    2e56:	f853 2022 	ldr.w	r2, [r3, r2, lsl #2]
    2e5a:	683b      	ldr	r3, [r7, #0]
    2e5c:	785b      	ldrb	r3, [r3, #1]
    2e5e:	4610      	mov	r0, r2
    2e60:	4619      	mov	r1, r3
    2e62:	f7ff fe65 	bl	2b30 <OSC_HAL_SetExternalRefClkInStopModeCmd>
    2e66:	3708      	adds	r7, #8
    2e68:	46bd      	mov	sp, r7
    2e6a:	bd80      	pop	{r7, pc}
    2e6c:	00004f44 	andeq	r4, r0, r4, asr #30

00002e70 <CLOCK_SYS_RtcOscInit>:
    2e70:	b580      	push	{r7, lr}
    2e72:	b082      	sub	sp, #8
    2e74:	af00      	add	r7, sp, #0
    2e76:	6078      	str	r0, [r7, #4]
    2e78:	6039      	str	r1, [r7, #0]
    2e7a:	687b      	ldr	r3, [r7, #4]
    2e7c:	2b00      	cmp	r3, #0
    2e7e:	d006      	beq.n	2e8e <CLOCK_SYS_RtcOscInit+0x1e>
    2e80:	481e      	ldr	r0, [pc, #120]	; (2efc <CLOCK_SYS_RtcOscInit+0x8c>)
    2e82:	f240 4116 	movw	r1, #1046	; 0x416
    2e86:	4a1e      	ldr	r2, [pc, #120]	; (2f00 <CLOCK_SYS_RtcOscInit+0x90>)
    2e88:	4b1e      	ldr	r3, [pc, #120]	; (2f04 <CLOCK_SYS_RtcOscInit+0x94>)
    2e8a:	f000 fd03 	bl	3894 <__assert_func>
    2e8e:	6878      	ldr	r0, [r7, #4]
    2e90:	f7ff fe78 	bl	2b84 <CLOCK_SYS_EnableRtcClock>
    2e94:	683b      	ldr	r3, [r7, #0]
    2e96:	681a      	ldr	r2, [r3, #0]
    2e98:	4b1b      	ldr	r3, [pc, #108]	; (2f08 <CLOCK_SYS_RtcOscInit+0x98>)
    2e9a:	601a      	str	r2, [r3, #0]
    2e9c:	481b      	ldr	r0, [pc, #108]	; (2f0c <CLOCK_SYS_RtcOscInit+0x9c>)
    2e9e:	f7ff fee3 	bl	2c68 <RTC_HAL_IsOscillatorEnabled>
    2ea2:	4603      	mov	r3, r0
    2ea4:	f083 0301 	eor.w	r3, r3, #1
    2ea8:	b2db      	uxtb	r3, r3
    2eaa:	2b00      	cmp	r3, #0
    2eac:	d01b      	beq.n	2ee6 <CLOCK_SYS_RtcOscInit+0x76>
    2eae:	683b      	ldr	r3, [r7, #0]
    2eb0:	7a1b      	ldrb	r3, [r3, #8]
    2eb2:	2b00      	cmp	r3, #0
    2eb4:	d017      	beq.n	2ee6 <CLOCK_SYS_RtcOscInit+0x76>
    2eb6:	683b      	ldr	r3, [r7, #0]
    2eb8:	791b      	ldrb	r3, [r3, #4]
    2eba:	4814      	ldr	r0, [pc, #80]	; (2f0c <CLOCK_SYS_RtcOscInit+0x9c>)
    2ebc:	4619      	mov	r1, r3
    2ebe:	f7ff fe6f 	bl	2ba0 <RTC_HAL_SetOsc2pfLoadCmd>
    2ec2:	683b      	ldr	r3, [r7, #0]
    2ec4:	795b      	ldrb	r3, [r3, #5]
    2ec6:	4811      	ldr	r0, [pc, #68]	; (2f0c <CLOCK_SYS_RtcOscInit+0x9c>)
    2ec8:	4619      	mov	r1, r3
    2eca:	f7ff fe7d 	bl	2bc8 <RTC_HAL_SetOsc4pfLoadCmd>
    2ece:	683b      	ldr	r3, [r7, #0]
    2ed0:	799b      	ldrb	r3, [r3, #6]
    2ed2:	480e      	ldr	r0, [pc, #56]	; (2f0c <CLOCK_SYS_RtcOscInit+0x9c>)
    2ed4:	4619      	mov	r1, r3
    2ed6:	f7ff fe8b 	bl	2bf0 <RTC_HAL_SetOsc8pfLoadCmd>
    2eda:	683b      	ldr	r3, [r7, #0]
    2edc:	79db      	ldrb	r3, [r3, #7]
    2ede:	480b      	ldr	r0, [pc, #44]	; (2f0c <CLOCK_SYS_RtcOscInit+0x9c>)
    2ee0:	4619      	mov	r1, r3
    2ee2:	f7ff fe99 	bl	2c18 <RTC_HAL_SetOsc16pfLoadCmd>
    2ee6:	683b      	ldr	r3, [r7, #0]
    2ee8:	7a1b      	ldrb	r3, [r3, #8]
    2eea:	4808      	ldr	r0, [pc, #32]	; (2f0c <CLOCK_SYS_RtcOscInit+0x9c>)
    2eec:	4619      	mov	r1, r3
    2eee:	f7ff fea7 	bl	2c40 <RTC_HAL_SetOscillatorCmd>
    2ef2:	2300      	movs	r3, #0
    2ef4:	4618      	mov	r0, r3
    2ef6:	3708      	adds	r7, #8
    2ef8:	46bd      	mov	sp, r7
    2efa:	bd80      	pop	{r7, pc}
    2efc:	00004c60 	andeq	r4, r0, r0, ror #24
    2f00:	00004f2c 	andeq	r4, r0, ip, lsr #30
    2f04:	00004d0c 	andeq	r4, r0, ip, lsl #26
    2f08:	1fff00d8 	svcne	0x00ff00d8
    2f0c:	4003d000 	andmi	sp, r3, r0

00002f10 <CLOCK_HAL_SetOutDiv>:
    2f10:	b480      	push	{r7}
    2f12:	b085      	sub	sp, #20
    2f14:	af00      	add	r7, sp, #0
    2f16:	6078      	str	r0, [r7, #4]
    2f18:	70f9      	strb	r1, [r7, #3]
    2f1a:	70ba      	strb	r2, [r7, #2]
    2f1c:	707b      	strb	r3, [r7, #1]
    2f1e:	2300      	movs	r3, #0
    2f20:	60fb      	str	r3, [r7, #12]
    2f22:	78fb      	ldrb	r3, [r7, #3]
    2f24:	071b      	lsls	r3, r3, #28
    2f26:	68fa      	ldr	r2, [r7, #12]
    2f28:	4313      	orrs	r3, r2
    2f2a:	60fb      	str	r3, [r7, #12]
    2f2c:	78bb      	ldrb	r3, [r7, #2]
    2f2e:	061b      	lsls	r3, r3, #24
    2f30:	f003 6370 	and.w	r3, r3, #251658240	; 0xf000000
    2f34:	68fa      	ldr	r2, [r7, #12]
    2f36:	4313      	orrs	r3, r2
    2f38:	60fb      	str	r3, [r7, #12]
    2f3a:	787b      	ldrb	r3, [r7, #1]
    2f3c:	051b      	lsls	r3, r3, #20
    2f3e:	f403 0370 	and.w	r3, r3, #15728640	; 0xf00000
    2f42:	68fa      	ldr	r2, [r7, #12]
    2f44:	4313      	orrs	r3, r2
    2f46:	60fb      	str	r3, [r7, #12]
    2f48:	7e3b      	ldrb	r3, [r7, #24]
    2f4a:	041b      	lsls	r3, r3, #16
    2f4c:	f403 2370 	and.w	r3, r3, #983040	; 0xf0000
    2f50:	68fa      	ldr	r2, [r7, #12]
    2f52:	4313      	orrs	r3, r2
    2f54:	60fb      	str	r3, [r7, #12]
    2f56:	687b      	ldr	r3, [r7, #4]
    2f58:	f503 5382 	add.w	r3, r3, #4160	; 0x1040
    2f5c:	3304      	adds	r3, #4
    2f5e:	68fa      	ldr	r2, [r7, #12]
    2f60:	601a      	str	r2, [r3, #0]
    2f62:	3714      	adds	r7, #20
    2f64:	46bd      	mov	sp, r7
    2f66:	f85d 7b04 	ldr.w	r7, [sp], #4
    2f6a:	4770      	bx	lr

00002f6c <OSC_HAL_SetCapacitor>:
    2f6c:	b480      	push	{r7}
    2f6e:	b083      	sub	sp, #12
    2f70:	af00      	add	r7, sp, #0
    2f72:	6078      	str	r0, [r7, #4]
    2f74:	6039      	str	r1, [r7, #0]
    2f76:	687b      	ldr	r3, [r7, #4]
    2f78:	781b      	ldrb	r3, [r3, #0]
    2f7a:	b2db      	uxtb	r3, r3
    2f7c:	f023 030f 	bic.w	r3, r3, #15
    2f80:	b2da      	uxtb	r2, r3
    2f82:	683b      	ldr	r3, [r7, #0]
    2f84:	b2db      	uxtb	r3, r3
    2f86:	4313      	orrs	r3, r2
    2f88:	b2da      	uxtb	r2, r3
    2f8a:	687b      	ldr	r3, [r7, #4]
    2f8c:	701a      	strb	r2, [r3, #0]
    2f8e:	370c      	adds	r7, #12
    2f90:	46bd      	mov	sp, r7
    2f92:	f85d 7b04 	ldr.w	r7, [sp], #4
    2f96:	4770      	bx	lr

00002f98 <CLOCK_HAL_GetClkOutStat>:
    2f98:	b480      	push	{r7}
    2f9a:	b083      	sub	sp, #12
    2f9c:	af00      	add	r7, sp, #0
    2f9e:	6078      	str	r0, [r7, #4]
    2fa0:	687b      	ldr	r3, [r7, #4]
    2fa2:	799b      	ldrb	r3, [r3, #6]
    2fa4:	b2db      	uxtb	r3, r3
    2fa6:	f003 030c 	and.w	r3, r3, #12
    2faa:	089b      	lsrs	r3, r3, #2
    2fac:	b2db      	uxtb	r3, r3
    2fae:	4618      	mov	r0, r3
    2fb0:	370c      	adds	r7, #12
    2fb2:	46bd      	mov	sp, r7
    2fb4:	f85d 7b04 	ldr.w	r7, [sp], #4
    2fb8:	4770      	bx	lr
    2fba:	bf00      	nop

00002fbc <CLOCK_HAL_SetInternalRefClkMode>:
    2fbc:	b480      	push	{r7}
    2fbe:	b083      	sub	sp, #12
    2fc0:	af00      	add	r7, sp, #0
    2fc2:	6078      	str	r0, [r7, #4]
    2fc4:	460b      	mov	r3, r1
    2fc6:	70fb      	strb	r3, [r7, #3]
    2fc8:	687b      	ldr	r3, [r7, #4]
    2fca:	3301      	adds	r3, #1
    2fcc:	f103 7304 	add.w	r3, r3, #34603008	; 0x2100000
    2fd0:	015b      	lsls	r3, r3, #5
    2fd2:	78fa      	ldrb	r2, [r7, #3]
    2fd4:	701a      	strb	r2, [r3, #0]
    2fd6:	370c      	adds	r7, #12
    2fd8:	46bd      	mov	sp, r7
    2fda:	f85d 7b04 	ldr.w	r7, [sp], #4
    2fde:	4770      	bx	lr

00002fe0 <CLOCK_HAL_GetInternalRefClkMode>:
    2fe0:	b480      	push	{r7}
    2fe2:	b083      	sub	sp, #12
    2fe4:	af00      	add	r7, sp, #0
    2fe6:	6078      	str	r0, [r7, #4]
    2fe8:	687b      	ldr	r3, [r7, #4]
    2fea:	3306      	adds	r3, #6
    2fec:	f103 7304 	add.w	r3, r3, #34603008	; 0x2100000
    2ff0:	015b      	lsls	r3, r3, #5
    2ff2:	781b      	ldrb	r3, [r3, #0]
    2ff4:	b2db      	uxtb	r3, r3
    2ff6:	4618      	mov	r0, r3
    2ff8:	370c      	adds	r7, #12
    2ffa:	46bd      	mov	sp, r7
    2ffc:	f85d 7b04 	ldr.w	r7, [sp], #4
    3000:	4770      	bx	lr
    3002:	bf00      	nop

00003004 <CLOCK_HAL_IsPllSelected>:
    3004:	b480      	push	{r7}
    3006:	b083      	sub	sp, #12
    3008:	af00      	add	r7, sp, #0
    300a:	6078      	str	r0, [r7, #4]
    300c:	687b      	ldr	r3, [r7, #4]
    300e:	3306      	adds	r3, #6
    3010:	f103 7304 	add.w	r3, r3, #34603008	; 0x2100000
    3014:	015b      	lsls	r3, r3, #5
    3016:	3314      	adds	r3, #20
    3018:	781b      	ldrb	r3, [r3, #0]
    301a:	b2db      	uxtb	r3, r3
    301c:	2b00      	cmp	r3, #0
    301e:	bf0c      	ite	eq
    3020:	2300      	moveq	r3, #0
    3022:	2301      	movne	r3, #1
    3024:	b2db      	uxtb	r3, r3
    3026:	4618      	mov	r0, r3
    3028:	370c      	adds	r7, #12
    302a:	46bd      	mov	sp, r7
    302c:	f85d 7b04 	ldr.w	r7, [sp], #4
    3030:	4770      	bx	lr
    3032:	bf00      	nop

00003034 <CLOCK_HAL_IsOsc0Stable>:
    3034:	b480      	push	{r7}
    3036:	b083      	sub	sp, #12
    3038:	af00      	add	r7, sp, #0
    303a:	6078      	str	r0, [r7, #4]
    303c:	687b      	ldr	r3, [r7, #4]
    303e:	3306      	adds	r3, #6
    3040:	f103 7304 	add.w	r3, r3, #34603008	; 0x2100000
    3044:	015b      	lsls	r3, r3, #5
    3046:	3304      	adds	r3, #4
    3048:	781b      	ldrb	r3, [r3, #0]
    304a:	b2db      	uxtb	r3, r3
    304c:	2b00      	cmp	r3, #0
    304e:	bf0c      	ite	eq
    3050:	2300      	moveq	r3, #0
    3052:	2301      	movne	r3, #1
    3054:	b2db      	uxtb	r3, r3
    3056:	4618      	mov	r0, r3
    3058:	370c      	adds	r7, #12
    305a:	46bd      	mov	sp, r7
    305c:	f85d 7b04 	ldr.w	r7, [sp], #4
    3060:	4770      	bx	lr
    3062:	bf00      	nop

00003064 <CLOCK_HAL_TestOscFreq>:
    3064:	b480      	push	{r7}
    3066:	b085      	sub	sp, #20
    3068:	af00      	add	r7, sp, #0
    306a:	6078      	str	r0, [r7, #4]
    306c:	460b      	mov	r3, r1
    306e:	70fb      	strb	r3, [r7, #3]
    3070:	78fb      	ldrb	r3, [r7, #3]
    3072:	2b01      	cmp	r3, #1
    3074:	d007      	beq.n	3086 <CLOCK_HAL_TestOscFreq+0x22>
    3076:	2b02      	cmp	r3, #2
    3078:	d009      	beq.n	308e <CLOCK_HAL_TestOscFreq+0x2a>
    307a:	2b00      	cmp	r3, #0
    307c:	d10a      	bne.n	3094 <CLOCK_HAL_TestOscFreq+0x30>
    307e:	4b0a      	ldr	r3, [pc, #40]	; (30a8 <CLOCK_HAL_TestOscFreq+0x44>)
    3080:	681b      	ldr	r3, [r3, #0]
    3082:	60fb      	str	r3, [r7, #12]
    3084:	e009      	b.n	309a <CLOCK_HAL_TestOscFreq+0x36>
    3086:	4b09      	ldr	r3, [pc, #36]	; (30ac <CLOCK_HAL_TestOscFreq+0x48>)
    3088:	681b      	ldr	r3, [r3, #0]
    308a:	60fb      	str	r3, [r7, #12]
    308c:	e005      	b.n	309a <CLOCK_HAL_TestOscFreq+0x36>
    308e:	4b08      	ldr	r3, [pc, #32]	; (30b0 <CLOCK_HAL_TestOscFreq+0x4c>)
    3090:	60fb      	str	r3, [r7, #12]
    3092:	e002      	b.n	309a <CLOCK_HAL_TestOscFreq+0x36>
    3094:	2300      	movs	r3, #0
    3096:	60fb      	str	r3, [r7, #12]
    3098:	bf00      	nop
    309a:	68fb      	ldr	r3, [r7, #12]
    309c:	4618      	mov	r0, r3
    309e:	3714      	adds	r7, #20
    30a0:	46bd      	mov	sp, r7
    30a2:	f85d 7b04 	ldr.w	r7, [sp], #4
    30a6:	4770      	bx	lr
    30a8:	1fff00d4 	svcne	0x00ff00d4
    30ac:	1fff00d8 	svcne	0x00ff00d8
    30b0:	02dc6c00 	sbcseq	r6, ip, #0, 24

000030b4 <CLOCK_HAL_PrepareOsc>:
    30b4:	b580      	push	{r7, lr}
    30b6:	b082      	sub	sp, #8
    30b8:	af00      	add	r7, sp, #0
    30ba:	6078      	str	r0, [r7, #4]
    30bc:	460b      	mov	r3, r1
    30be:	70fb      	strb	r3, [r7, #3]
    30c0:	687b      	ldr	r3, [r7, #4]
    30c2:	7b1b      	ldrb	r3, [r3, #12]
    30c4:	b2db      	uxtb	r3, r3
    30c6:	f023 0303 	bic.w	r3, r3, #3
    30ca:	b2da      	uxtb	r2, r3
    30cc:	78fb      	ldrb	r3, [r7, #3]
    30ce:	f003 0303 	and.w	r3, r3, #3
    30d2:	b2db      	uxtb	r3, r3
    30d4:	4313      	orrs	r3, r2
    30d6:	b2da      	uxtb	r2, r3
    30d8:	687b      	ldr	r3, [r7, #4]
    30da:	731a      	strb	r2, [r3, #12]
    30dc:	78fb      	ldrb	r3, [r7, #3]
    30de:	2b00      	cmp	r3, #0
    30e0:	d113      	bne.n	310a <CLOCK_HAL_PrepareOsc+0x56>
    30e2:	687b      	ldr	r3, [r7, #4]
    30e4:	3301      	adds	r3, #1
    30e6:	f103 7304 	add.w	r3, r3, #34603008	; 0x2100000
    30ea:	015b      	lsls	r3, r3, #5
    30ec:	3308      	adds	r3, #8
    30ee:	781b      	ldrb	r3, [r3, #0]
    30f0:	b2db      	uxtb	r3, r3
    30f2:	2b00      	cmp	r3, #0
    30f4:	d009      	beq.n	310a <CLOCK_HAL_PrepareOsc+0x56>
    30f6:	bf00      	nop
    30f8:	6878      	ldr	r0, [r7, #4]
    30fa:	f7ff ff9b 	bl	3034 <CLOCK_HAL_IsOsc0Stable>
    30fe:	4603      	mov	r3, r0
    3100:	f083 0301 	eor.w	r3, r3, #1
    3104:	b2db      	uxtb	r3, r3
    3106:	2b00      	cmp	r3, #0
    3108:	d1f6      	bne.n	30f8 <CLOCK_HAL_PrepareOsc+0x44>
    310a:	3708      	adds	r7, #8
    310c:	46bd      	mov	sp, r7
    310e:	bd80      	pop	{r7, pc}

00003110 <CLOCK_HAL_GetMcgExternalClkFreq>:
    3110:	b580      	push	{r7, lr}
    3112:	b082      	sub	sp, #8
    3114:	af00      	add	r7, sp, #0
    3116:	6078      	str	r0, [r7, #4]
    3118:	687b      	ldr	r3, [r7, #4]
    311a:	7b1b      	ldrb	r3, [r3, #12]
    311c:	b2db      	uxtb	r3, r3
    311e:	f003 0303 	and.w	r3, r3, #3
    3122:	b2db      	uxtb	r3, r3
    3124:	6878      	ldr	r0, [r7, #4]
    3126:	4619      	mov	r1, r3
    3128:	f7ff ff9c 	bl	3064 <CLOCK_HAL_TestOscFreq>
    312c:	4603      	mov	r3, r0
    312e:	4618      	mov	r0, r3
    3130:	3708      	adds	r7, #8
    3132:	46bd      	mov	sp, r7
    3134:	bd80      	pop	{r7, pc}
    3136:	bf00      	nop

00003138 <CLOCK_HAL_TestFllExternalRefFreq>:
    3138:	b480      	push	{r7}
    313a:	b085      	sub	sp, #20
    313c:	af00      	add	r7, sp, #0
    313e:	60f8      	str	r0, [r7, #12]
    3140:	60b9      	str	r1, [r7, #8]
    3142:	71fa      	strb	r2, [r7, #7]
    3144:	71bb      	strb	r3, [r7, #6]
    3146:	79fb      	ldrb	r3, [r7, #7]
    3148:	68ba      	ldr	r2, [r7, #8]
    314a:	fa22 f303 	lsr.w	r3, r2, r3
    314e:	60bb      	str	r3, [r7, #8]
    3150:	79bb      	ldrb	r3, [r7, #6]
    3152:	2b00      	cmp	r3, #0
    3154:	d02d      	beq.n	31b2 <CLOCK_HAL_TestFllExternalRefFreq+0x7a>
    3156:	7e3b      	ldrb	r3, [r7, #24]
    3158:	2b01      	cmp	r3, #1
    315a:	d02a      	beq.n	31b2 <CLOCK_HAL_TestFllExternalRefFreq+0x7a>
    315c:	79fb      	ldrb	r3, [r7, #7]
    315e:	2b07      	cmp	r3, #7
    3160:	d824      	bhi.n	31ac <CLOCK_HAL_TestFllExternalRefFreq+0x74>
    3162:	a101      	add	r1, pc, #4	; (adr r1, 3168 <CLOCK_HAL_TestFllExternalRefFreq+0x30>)
    3164:	f851 f023 	ldr.w	pc, [r1, r3, lsl #2]
    3168:	00003189 	andeq	r3, r0, r9, lsl #3
    316c:	00003189 	andeq	r3, r0, r9, lsl #3
    3170:	00003189 	andeq	r3, r0, r9, lsl #3
    3174:	00003189 	andeq	r3, r0, r9, lsl #3
    3178:	00003189 	andeq	r3, r0, r9, lsl #3
    317c:	00003189 	andeq	r3, r0, r9, lsl #3
    3180:	00003191 	muleq	r0, r1, r1
    3184:	0000319f 	muleq	r0, pc, r1	; <UNPREDICTABLE>
    3188:	68bb      	ldr	r3, [r7, #8]
    318a:	095b      	lsrs	r3, r3, #5
    318c:	60bb      	str	r3, [r7, #8]
    318e:	e010      	b.n	31b2 <CLOCK_HAL_TestFllExternalRefFreq+0x7a>
    3190:	68ba      	ldr	r2, [r7, #8]
    3192:	4b0b      	ldr	r3, [pc, #44]	; (31c0 <CLOCK_HAL_TestFllExternalRefFreq+0x88>)
    3194:	fba3 1302 	umull	r1, r3, r3, r2
    3198:	091b      	lsrs	r3, r3, #4
    319a:	60bb      	str	r3, [r7, #8]
    319c:	e009      	b.n	31b2 <CLOCK_HAL_TestFllExternalRefFreq+0x7a>
    319e:	68ba      	ldr	r2, [r7, #8]
    31a0:	4b08      	ldr	r3, [pc, #32]	; (31c4 <CLOCK_HAL_TestFllExternalRefFreq+0x8c>)
    31a2:	fba3 1302 	umull	r1, r3, r3, r2
    31a6:	08db      	lsrs	r3, r3, #3
    31a8:	60bb      	str	r3, [r7, #8]
    31aa:	e002      	b.n	31b2 <CLOCK_HAL_TestFllExternalRefFreq+0x7a>
    31ac:	2300      	movs	r3, #0
    31ae:	60bb      	str	r3, [r7, #8]
    31b0:	bf00      	nop
    31b2:	68bb      	ldr	r3, [r7, #8]
    31b4:	4618      	mov	r0, r3
    31b6:	3714      	adds	r7, #20
    31b8:	46bd      	mov	sp, r7
    31ba:	f85d 7b04 	ldr.w	r7, [sp], #4
    31be:	4770      	bx	lr
    31c0:	cccccccd 	stclgt	12, cr12, [ip], {205}	; 0xcd
    31c4:	aaaaaaab 	bge	feaadc78 <__StackTop+0xdea9dc78>

000031c8 <CLOCK_HAL_GetFllRefClk>:
    31c8:	b580      	push	{r7, lr}
    31ca:	b086      	sub	sp, #24
    31cc:	af02      	add	r7, sp, #8
    31ce:	6078      	str	r0, [r7, #4]
    31d0:	687b      	ldr	r3, [r7, #4]
    31d2:	f103 7304 	add.w	r3, r3, #34603008	; 0x2100000
    31d6:	015b      	lsls	r3, r3, #5
    31d8:	3308      	adds	r3, #8
    31da:	781b      	ldrb	r3, [r3, #0]
    31dc:	b2db      	uxtb	r3, r3
    31de:	2b00      	cmp	r3, #0
    31e0:	d121      	bne.n	3226 <CLOCK_HAL_GetFllRefClk+0x5e>
    31e2:	6878      	ldr	r0, [r7, #4]
    31e4:	f7ff ff94 	bl	3110 <CLOCK_HAL_GetMcgExternalClkFreq>
    31e8:	60f8      	str	r0, [r7, #12]
    31ea:	687b      	ldr	r3, [r7, #4]
    31ec:	781b      	ldrb	r3, [r3, #0]
    31ee:	b2db      	uxtb	r3, r3
    31f0:	f003 0338 	and.w	r3, r3, #56	; 0x38
    31f4:	08db      	lsrs	r3, r3, #3
    31f6:	72fb      	strb	r3, [r7, #11]
    31f8:	687b      	ldr	r3, [r7, #4]
    31fa:	785b      	ldrb	r3, [r3, #1]
    31fc:	b2db      	uxtb	r3, r3
    31fe:	f003 0330 	and.w	r3, r3, #48	; 0x30
    3202:	091b      	lsrs	r3, r3, #4
    3204:	72bb      	strb	r3, [r7, #10]
    3206:	687b      	ldr	r3, [r7, #4]
    3208:	7b1b      	ldrb	r3, [r3, #12]
    320a:	b2db      	uxtb	r3, r3
    320c:	f003 0303 	and.w	r3, r3, #3
    3210:	727b      	strb	r3, [r7, #9]
    3212:	7afa      	ldrb	r2, [r7, #11]
    3214:	7abb      	ldrb	r3, [r7, #10]
    3216:	7a79      	ldrb	r1, [r7, #9]
    3218:	9100      	str	r1, [sp, #0]
    321a:	6878      	ldr	r0, [r7, #4]
    321c:	68f9      	ldr	r1, [r7, #12]
    321e:	f7ff ff8b 	bl	3138 <CLOCK_HAL_TestFllExternalRefFreq>
    3222:	60f8      	str	r0, [r7, #12]
    3224:	e002      	b.n	322c <CLOCK_HAL_GetFllRefClk+0x64>
    3226:	4b04      	ldr	r3, [pc, #16]	; (3238 <CLOCK_HAL_GetFllRefClk+0x70>)
    3228:	681b      	ldr	r3, [r3, #0]
    322a:	60fb      	str	r3, [r7, #12]
    322c:	68fb      	ldr	r3, [r7, #12]
    322e:	4618      	mov	r0, r3
    3230:	3710      	adds	r7, #16
    3232:	46bd      	mov	sp, r7
    3234:	bd80      	pop	{r7, pc}
    3236:	bf00      	nop
    3238:	1fff0038 	svcne	0x00ff0038

0000323c <CLOCK_HAL_TestFllFreq>:
    323c:	b480      	push	{r7}
    323e:	b085      	sub	sp, #20
    3240:	af00      	add	r7, sp, #0
    3242:	60f8      	str	r0, [r7, #12]
    3244:	60b9      	str	r1, [r7, #8]
    3246:	71fa      	strb	r2, [r7, #7]
    3248:	71bb      	strb	r3, [r7, #6]
    324a:	79fb      	ldrb	r3, [r7, #7]
    324c:	2b00      	cmp	r3, #0
    324e:	d005      	beq.n	325c <CLOCK_HAL_TestFllFreq+0x20>
    3250:	68bb      	ldr	r3, [r7, #8]
    3252:	f5b3 4f00 	cmp.w	r3, #32768	; 0x8000
    3256:	d90d      	bls.n	3274 <CLOCK_HAL_TestFllFreq+0x38>
    3258:	2300      	movs	r3, #0
    325a:	e015      	b.n	3288 <CLOCK_HAL_TestFllFreq+0x4c>
    325c:	68ba      	ldr	r2, [r7, #8]
    325e:	f647 2311 	movw	r3, #31249	; 0x7a11
    3262:	429a      	cmp	r2, r3
    3264:	d904      	bls.n	3270 <CLOCK_HAL_TestFllFreq+0x34>
    3266:	68ba      	ldr	r2, [r7, #8]
    3268:	f649 0397 	movw	r3, #39063	; 0x9897
    326c:	429a      	cmp	r2, r3
    326e:	d901      	bls.n	3274 <CLOCK_HAL_TestFllFreq+0x38>
    3270:	2300      	movs	r3, #0
    3272:	e009      	b.n	3288 <CLOCK_HAL_TestFllFreq+0x4c>
    3274:	79b9      	ldrb	r1, [r7, #6]
    3276:	79fa      	ldrb	r2, [r7, #7]
    3278:	4b06      	ldr	r3, [pc, #24]	; (3294 <CLOCK_HAL_TestFllFreq+0x58>)
    327a:	0049      	lsls	r1, r1, #1
    327c:	440a      	add	r2, r1
    327e:	f833 3012 	ldrh.w	r3, [r3, r2, lsl #1]
    3282:	68ba      	ldr	r2, [r7, #8]
    3284:	fb02 f303 	mul.w	r3, r2, r3
    3288:	4618      	mov	r0, r3
    328a:	3714      	adds	r7, #20
    328c:	46bd      	mov	sp, r7
    328e:	f85d 7b04 	ldr.w	r7, [sp], #4
    3292:	4770      	bx	lr
    3294:	00004f48 	andeq	r4, r0, r8, asr #30

00003298 <CLOCK_HAL_GetFllClk>:
    3298:	b580      	push	{r7, lr}
    329a:	b084      	sub	sp, #16
    329c:	af00      	add	r7, sp, #0
    329e:	6078      	str	r0, [r7, #4]
    32a0:	6878      	ldr	r0, [r7, #4]
    32a2:	f7ff feaf 	bl	3004 <CLOCK_HAL_IsPllSelected>
    32a6:	4603      	mov	r3, r0
    32a8:	2b00      	cmp	r3, #0
    32aa:	d001      	beq.n	32b0 <CLOCK_HAL_GetFllClk+0x18>
    32ac:	2300      	movs	r3, #0
    32ae:	e01f      	b.n	32f0 <CLOCK_HAL_GetFllClk+0x58>
    32b0:	6878      	ldr	r0, [r7, #4]
    32b2:	f7ff ff89 	bl	31c8 <CLOCK_HAL_GetFllRefClk>
    32b6:	60f8      	str	r0, [r7, #12]
    32b8:	68fb      	ldr	r3, [r7, #12]
    32ba:	2b00      	cmp	r3, #0
    32bc:	d101      	bne.n	32c2 <CLOCK_HAL_GetFllClk+0x2a>
    32be:	2300      	movs	r3, #0
    32c0:	e016      	b.n	32f0 <CLOCK_HAL_GetFllClk+0x58>
    32c2:	687b      	ldr	r3, [r7, #4]
    32c4:	3303      	adds	r3, #3
    32c6:	f103 7304 	add.w	r3, r3, #34603008	; 0x2100000
    32ca:	015b      	lsls	r3, r3, #5
    32cc:	331c      	adds	r3, #28
    32ce:	781b      	ldrb	r3, [r3, #0]
    32d0:	72fb      	strb	r3, [r7, #11]
    32d2:	687b      	ldr	r3, [r7, #4]
    32d4:	78db      	ldrb	r3, [r3, #3]
    32d6:	b2db      	uxtb	r3, r3
    32d8:	f003 0360 	and.w	r3, r3, #96	; 0x60
    32dc:	095b      	lsrs	r3, r3, #5
    32de:	72bb      	strb	r3, [r7, #10]
    32e0:	7afa      	ldrb	r2, [r7, #11]
    32e2:	7abb      	ldrb	r3, [r7, #10]
    32e4:	6878      	ldr	r0, [r7, #4]
    32e6:	68f9      	ldr	r1, [r7, #12]
    32e8:	f7ff ffa8 	bl	323c <CLOCK_HAL_TestFllFreq>
    32ec:	60f8      	str	r0, [r7, #12]
    32ee:	68fb      	ldr	r3, [r7, #12]
    32f0:	4618      	mov	r0, r3
    32f2:	3710      	adds	r7, #16
    32f4:	46bd      	mov	sp, r7
    32f6:	bd80      	pop	{r7, pc}

000032f8 <CLOCK_HAL_UpdateFastClkInternalRefDiv>:
    32f8:	b580      	push	{r7, lr}
    32fa:	b082      	sub	sp, #8
    32fc:	af00      	add	r7, sp, #0
    32fe:	6078      	str	r0, [r7, #4]
    3300:	460b      	mov	r3, r1
    3302:	70fb      	strb	r3, [r7, #3]
    3304:	687b      	ldr	r3, [r7, #4]
    3306:	7a1b      	ldrb	r3, [r3, #8]
    3308:	b2db      	uxtb	r3, r3
    330a:	f003 030e 	and.w	r3, r3, #14
    330e:	085a      	lsrs	r2, r3, #1
    3310:	78fb      	ldrb	r3, [r7, #3]
    3312:	429a      	cmp	r2, r3
    3314:	d03f      	beq.n	3396 <CLOCK_HAL_UpdateFastClkInternalRefDiv+0x9e>
    3316:	687b      	ldr	r3, [r7, #4]
    3318:	3301      	adds	r3, #1
    331a:	f103 7304 	add.w	r3, r3, #34603008	; 0x2100000
    331e:	015b      	lsls	r3, r3, #5
    3320:	781b      	ldrb	r3, [r3, #0]
    3322:	b2db      	uxtb	r3, r3
    3324:	2b00      	cmp	r3, #0
    3326:	d110      	bne.n	334a <CLOCK_HAL_UpdateFastClkInternalRefDiv+0x52>
    3328:	687b      	ldr	r3, [r7, #4]
    332a:	7a1b      	ldrb	r3, [r3, #8]
    332c:	b2db      	uxtb	r3, r3
    332e:	f023 030f 	bic.w	r3, r3, #15
    3332:	b2da      	uxtb	r2, r3
    3334:	78fb      	ldrb	r3, [r7, #3]
    3336:	005b      	lsls	r3, r3, #1
    3338:	b2db      	uxtb	r3, r3
    333a:	f003 030e 	and.w	r3, r3, #14
    333e:	b2db      	uxtb	r3, r3
    3340:	4313      	orrs	r3, r2
    3342:	b2da      	uxtb	r2, r3
    3344:	687b      	ldr	r3, [r7, #4]
    3346:	721a      	strb	r2, [r3, #8]
    3348:	e025      	b.n	3396 <CLOCK_HAL_UpdateFastClkInternalRefDiv+0x9e>
    334a:	6878      	ldr	r0, [r7, #4]
    334c:	2100      	movs	r1, #0
    334e:	f7ff fe35 	bl	2fbc <CLOCK_HAL_SetInternalRefClkMode>
    3352:	bf00      	nop
    3354:	6878      	ldr	r0, [r7, #4]
    3356:	f7ff fe43 	bl	2fe0 <CLOCK_HAL_GetInternalRefClkMode>
    335a:	4603      	mov	r3, r0
    335c:	2b00      	cmp	r3, #0
    335e:	d1f9      	bne.n	3354 <CLOCK_HAL_UpdateFastClkInternalRefDiv+0x5c>
    3360:	687b      	ldr	r3, [r7, #4]
    3362:	7a1b      	ldrb	r3, [r3, #8]
    3364:	b2db      	uxtb	r3, r3
    3366:	f023 030f 	bic.w	r3, r3, #15
    336a:	b2da      	uxtb	r2, r3
    336c:	78fb      	ldrb	r3, [r7, #3]
    336e:	005b      	lsls	r3, r3, #1
    3370:	b2db      	uxtb	r3, r3
    3372:	f003 030e 	and.w	r3, r3, #14
    3376:	b2db      	uxtb	r3, r3
    3378:	4313      	orrs	r3, r2
    337a:	b2da      	uxtb	r2, r3
    337c:	687b      	ldr	r3, [r7, #4]
    337e:	721a      	strb	r2, [r3, #8]
    3380:	6878      	ldr	r0, [r7, #4]
    3382:	2101      	movs	r1, #1
    3384:	f7ff fe1a 	bl	2fbc <CLOCK_HAL_SetInternalRefClkMode>
    3388:	bf00      	nop
    338a:	6878      	ldr	r0, [r7, #4]
    338c:	f7ff fe28 	bl	2fe0 <CLOCK_HAL_GetInternalRefClkMode>
    3390:	4603      	mov	r3, r0
    3392:	2b01      	cmp	r3, #1
    3394:	d1f9      	bne.n	338a <CLOCK_HAL_UpdateFastClkInternalRefDiv+0x92>
    3396:	3708      	adds	r7, #8
    3398:	46bd      	mov	sp, r7
    339a:	bd80      	pop	{r7, pc}

0000339c <CLOCK_HAL_UpdateInternalRefClk>:
    339c:	b580      	push	{r7, lr}
    339e:	b082      	sub	sp, #8
    33a0:	af00      	add	r7, sp, #0
    33a2:	6078      	str	r0, [r7, #4]
    33a4:	70f9      	strb	r1, [r7, #3]
    33a6:	70ba      	strb	r2, [r7, #2]
    33a8:	707b      	strb	r3, [r7, #1]
    33aa:	78fb      	ldrb	r3, [r7, #3]
    33ac:	2b01      	cmp	r3, #1
    33ae:	d110      	bne.n	33d2 <CLOCK_HAL_UpdateInternalRefClk+0x36>
    33b0:	78bb      	ldrb	r3, [r7, #2]
    33b2:	6878      	ldr	r0, [r7, #4]
    33b4:	4619      	mov	r1, r3
    33b6:	f7ff ff9f 	bl	32f8 <CLOCK_HAL_UpdateFastClkInternalRefDiv>
    33ba:	6878      	ldr	r0, [r7, #4]
    33bc:	2101      	movs	r1, #1
    33be:	f7ff fdfd 	bl	2fbc <CLOCK_HAL_SetInternalRefClkMode>
    33c2:	bf00      	nop
    33c4:	6878      	ldr	r0, [r7, #4]
    33c6:	f7ff fe0b 	bl	2fe0 <CLOCK_HAL_GetInternalRefClkMode>
    33ca:	4603      	mov	r3, r0
    33cc:	2b01      	cmp	r3, #1
    33ce:	d1f9      	bne.n	33c4 <CLOCK_HAL_UpdateInternalRefClk+0x28>
    33d0:	e00a      	b.n	33e8 <CLOCK_HAL_UpdateInternalRefClk+0x4c>
    33d2:	6878      	ldr	r0, [r7, #4]
    33d4:	2100      	movs	r1, #0
    33d6:	f7ff fdf1 	bl	2fbc <CLOCK_HAL_SetInternalRefClkMode>
    33da:	bf00      	nop
    33dc:	6878      	ldr	r0, [r7, #4]
    33de:	f7ff fdff 	bl	2fe0 <CLOCK_HAL_GetInternalRefClkMode>
    33e2:	4603      	mov	r3, r0
    33e4:	2b00      	cmp	r3, #0
    33e6:	d1f9      	bne.n	33dc <CLOCK_HAL_UpdateInternalRefClk+0x40>
    33e8:	687b      	ldr	r3, [r7, #4]
    33ea:	781b      	ldrb	r3, [r3, #0]
    33ec:	b2db      	uxtb	r3, r3
    33ee:	f023 0303 	bic.w	r3, r3, #3
    33f2:	b2da      	uxtb	r2, r3
    33f4:	787b      	ldrb	r3, [r7, #1]
    33f6:	4313      	orrs	r3, r2
    33f8:	b2db      	uxtb	r3, r3
    33fa:	f043 0302 	orr.w	r3, r3, #2
    33fe:	b2da      	uxtb	r2, r3
    3400:	687b      	ldr	r3, [r7, #4]
    3402:	701a      	strb	r2, [r3, #0]
    3404:	3708      	adds	r7, #8
    3406:	46bd      	mov	sp, r7
    3408:	bd80      	pop	{r7, pc}
    340a:	bf00      	nop

0000340c <CLOCK_HAL_GetPll0RefFreq>:
    340c:	b580      	push	{r7, lr}
    340e:	b082      	sub	sp, #8
    3410:	af00      	add	r7, sp, #0
    3412:	6078      	str	r0, [r7, #4]
    3414:	6878      	ldr	r0, [r7, #4]
    3416:	f7ff fe7b 	bl	3110 <CLOCK_HAL_GetMcgExternalClkFreq>
    341a:	4603      	mov	r3, r0
    341c:	4618      	mov	r0, r3
    341e:	3708      	adds	r7, #8
    3420:	46bd      	mov	sp, r7
    3422:	bd80      	pop	{r7, pc}

00003424 <CLOCK_HAL_GetPll0Clk>:
    3424:	b580      	push	{r7, lr}
    3426:	b084      	sub	sp, #16
    3428:	af00      	add	r7, sp, #0
    342a:	6078      	str	r0, [r7, #4]
    342c:	687b      	ldr	r3, [r7, #4]
    342e:	3306      	adds	r3, #6
    3430:	f103 7304 	add.w	r3, r3, #34603008	; 0x2100000
    3434:	015b      	lsls	r3, r3, #5
    3436:	3314      	adds	r3, #20
    3438:	781b      	ldrb	r3, [r3, #0]
    343a:	b2db      	uxtb	r3, r3
    343c:	2b00      	cmp	r3, #0
    343e:	d10b      	bne.n	3458 <CLOCK_HAL_GetPll0Clk+0x34>
    3440:	687b      	ldr	r3, [r7, #4]
    3442:	3304      	adds	r3, #4
    3444:	f103 7304 	add.w	r3, r3, #34603008	; 0x2100000
    3448:	015b      	lsls	r3, r3, #5
    344a:	3318      	adds	r3, #24
    344c:	781b      	ldrb	r3, [r3, #0]
    344e:	b2db      	uxtb	r3, r3
    3450:	2b00      	cmp	r3, #0
    3452:	d101      	bne.n	3458 <CLOCK_HAL_GetPll0Clk+0x34>
    3454:	2300      	movs	r3, #0
    3456:	e01e      	b.n	3496 <CLOCK_HAL_GetPll0Clk+0x72>
    3458:	6878      	ldr	r0, [r7, #4]
    345a:	f7ff ffd7 	bl	340c <CLOCK_HAL_GetPll0RefFreq>
    345e:	60f8      	str	r0, [r7, #12]
    3460:	687b      	ldr	r3, [r7, #4]
    3462:	791b      	ldrb	r3, [r3, #4]
    3464:	b2db      	uxtb	r3, r3
    3466:	f003 031f 	and.w	r3, r3, #31
    346a:	b2db      	uxtb	r3, r3
    346c:	3301      	adds	r3, #1
    346e:	72fb      	strb	r3, [r7, #11]
    3470:	7afb      	ldrb	r3, [r7, #11]
    3472:	68fa      	ldr	r2, [r7, #12]
    3474:	fbb2 f3f3 	udiv	r3, r2, r3
    3478:	60fb      	str	r3, [r7, #12]
    347a:	687b      	ldr	r3, [r7, #4]
    347c:	795b      	ldrb	r3, [r3, #5]
    347e:	b2db      	uxtb	r3, r3
    3480:	f003 031f 	and.w	r3, r3, #31
    3484:	b2db      	uxtb	r3, r3
    3486:	3318      	adds	r3, #24
    3488:	72fb      	strb	r3, [r7, #11]
    348a:	7afa      	ldrb	r2, [r7, #11]
    348c:	68fb      	ldr	r3, [r7, #12]
    348e:	fb02 f303 	mul.w	r3, r2, r3
    3492:	60fb      	str	r3, [r7, #12]
    3494:	68fb      	ldr	r3, [r7, #12]
    3496:	4618      	mov	r0, r3
    3498:	3710      	adds	r7, #16
    349a:	46bd      	mov	sp, r7
    349c:	bd80      	pop	{r7, pc}
    349e:	bf00      	nop

000034a0 <CLOCK_HAL_GetInternalRefClk>:
    34a0:	b480      	push	{r7}
    34a2:	b085      	sub	sp, #20
    34a4:	af00      	add	r7, sp, #0
    34a6:	6078      	str	r0, [r7, #4]
    34a8:	687b      	ldr	r3, [r7, #4]
    34aa:	f103 7304 	add.w	r3, r3, #34603008	; 0x2100000
    34ae:	015b      	lsls	r3, r3, #5
    34b0:	3304      	adds	r3, #4
    34b2:	781b      	ldrb	r3, [r3, #0]
    34b4:	b2db      	uxtb	r3, r3
    34b6:	2b00      	cmp	r3, #0
    34b8:	d101      	bne.n	34be <CLOCK_HAL_GetInternalRefClk+0x1e>
    34ba:	2300      	movs	r3, #0
    34bc:	e018      	b.n	34f0 <CLOCK_HAL_GetInternalRefClk+0x50>
    34be:	687b      	ldr	r3, [r7, #4]
    34c0:	3301      	adds	r3, #1
    34c2:	f103 7304 	add.w	r3, r3, #34603008	; 0x2100000
    34c6:	015b      	lsls	r3, r3, #5
    34c8:	781b      	ldrb	r3, [r3, #0]
    34ca:	b2db      	uxtb	r3, r3
    34cc:	2b00      	cmp	r3, #0
    34ce:	d103      	bne.n	34d8 <CLOCK_HAL_GetInternalRefClk+0x38>
    34d0:	4b0a      	ldr	r3, [pc, #40]	; (34fc <CLOCK_HAL_GetInternalRefClk+0x5c>)
    34d2:	681b      	ldr	r3, [r3, #0]
    34d4:	60fb      	str	r3, [r7, #12]
    34d6:	e00a      	b.n	34ee <CLOCK_HAL_GetInternalRefClk+0x4e>
    34d8:	4b09      	ldr	r3, [pc, #36]	; (3500 <CLOCK_HAL_GetInternalRefClk+0x60>)
    34da:	681a      	ldr	r2, [r3, #0]
    34dc:	687b      	ldr	r3, [r7, #4]
    34de:	7a1b      	ldrb	r3, [r3, #8]
    34e0:	b2db      	uxtb	r3, r3
    34e2:	f003 030e 	and.w	r3, r3, #14
    34e6:	085b      	lsrs	r3, r3, #1
    34e8:	fa22 f303 	lsr.w	r3, r2, r3
    34ec:	60fb      	str	r3, [r7, #12]
    34ee:	68fb      	ldr	r3, [r7, #12]
    34f0:	4618      	mov	r0, r3
    34f2:	3714      	adds	r7, #20
    34f4:	46bd      	mov	sp, r7
    34f6:	f85d 7b04 	ldr.w	r7, [sp], #4
    34fa:	4770      	bx	lr
    34fc:	1fff0038 	svcne	0x00ff0038
    3500:	1fff0034 	svcne	0x00ff0034

00003504 <CLOCK_HAL_GetOutClk>:
    3504:	b580      	push	{r7, lr}
    3506:	b084      	sub	sp, #16
    3508:	af00      	add	r7, sp, #0
    350a:	6078      	str	r0, [r7, #4]
    350c:	6878      	ldr	r0, [r7, #4]
    350e:	f7ff fd43 	bl	2f98 <CLOCK_HAL_GetClkOutStat>
    3512:	4603      	mov	r3, r0
    3514:	72fb      	strb	r3, [r7, #11]
    3516:	7afb      	ldrb	r3, [r7, #11]
    3518:	2b03      	cmp	r3, #3
    351a:	d81f      	bhi.n	355c <CLOCK_HAL_GetOutClk+0x58>
    351c:	a201      	add	r2, pc, #4	; (adr r2, 3524 <CLOCK_HAL_GetOutClk+0x20>)
    351e:	f852 f023 	ldr.w	pc, [r2, r3, lsl #2]
    3522:	bf00      	nop
    3524:	0000353f 	andeq	r3, r0, pc, lsr r5
    3528:	00003549 	andeq	r3, r0, r9, asr #10
    352c:	00003553 	andeq	r3, r0, r3, asr r5
    3530:	00003535 	andeq	r3, r0, r5, lsr r5
    3534:	6878      	ldr	r0, [r7, #4]
    3536:	f7ff ff75 	bl	3424 <CLOCK_HAL_GetPll0Clk>
    353a:	60f8      	str	r0, [r7, #12]
    353c:	e011      	b.n	3562 <CLOCK_HAL_GetOutClk+0x5e>
    353e:	6878      	ldr	r0, [r7, #4]
    3540:	f7ff feaa 	bl	3298 <CLOCK_HAL_GetFllClk>
    3544:	60f8      	str	r0, [r7, #12]
    3546:	e00c      	b.n	3562 <CLOCK_HAL_GetOutClk+0x5e>
    3548:	6878      	ldr	r0, [r7, #4]
    354a:	f7ff ffa9 	bl	34a0 <CLOCK_HAL_GetInternalRefClk>
    354e:	60f8      	str	r0, [r7, #12]
    3550:	e007      	b.n	3562 <CLOCK_HAL_GetOutClk+0x5e>
    3552:	6878      	ldr	r0, [r7, #4]
    3554:	f7ff fddc 	bl	3110 <CLOCK_HAL_GetMcgExternalClkFreq>
    3558:	60f8      	str	r0, [r7, #12]
    355a:	e002      	b.n	3562 <CLOCK_HAL_GetOutClk+0x5e>
    355c:	2300      	movs	r3, #0
    355e:	60fb      	str	r3, [r7, #12]
    3560:	bf00      	nop
    3562:	68fb      	ldr	r3, [r7, #12]
    3564:	4618      	mov	r0, r3
    3566:	3710      	adds	r7, #16
    3568:	46bd      	mov	sp, r7
    356a:	bd80      	pop	{r7, pc}

0000356c <CLOCK_HAL_SetOsc0Mode>:
    356c:	b480      	push	{r7}
    356e:	b083      	sub	sp, #12
    3570:	af00      	add	r7, sp, #0
    3572:	6078      	str	r0, [r7, #4]
    3574:	70f9      	strb	r1, [r7, #3]
    3576:	70ba      	strb	r2, [r7, #2]
    3578:	707b      	strb	r3, [r7, #1]
    357a:	687b      	ldr	r3, [r7, #4]
    357c:	785b      	ldrb	r3, [r3, #1]
    357e:	b2db      	uxtb	r3, r3
    3580:	f023 033c 	bic.w	r3, r3, #60	; 0x3c
    3584:	b2da      	uxtb	r2, r3
    3586:	78fb      	ldrb	r3, [r7, #3]
    3588:	011b      	lsls	r3, r3, #4
    358a:	b2db      	uxtb	r3, r3
    358c:	f003 0330 	and.w	r3, r3, #48	; 0x30
    3590:	b2d9      	uxtb	r1, r3
    3592:	78bb      	ldrb	r3, [r7, #2]
    3594:	00db      	lsls	r3, r3, #3
    3596:	b2db      	uxtb	r3, r3
    3598:	f003 0308 	and.w	r3, r3, #8
    359c:	b2db      	uxtb	r3, r3
    359e:	430b      	orrs	r3, r1
    35a0:	b2d9      	uxtb	r1, r3
    35a2:	787b      	ldrb	r3, [r7, #1]
    35a4:	009b      	lsls	r3, r3, #2
    35a6:	b2db      	uxtb	r3, r3
    35a8:	f003 0304 	and.w	r3, r3, #4
    35ac:	b2db      	uxtb	r3, r3
    35ae:	430b      	orrs	r3, r1
    35b0:	b2db      	uxtb	r3, r3
    35b2:	4313      	orrs	r3, r2
    35b4:	b2da      	uxtb	r2, r3
    35b6:	687b      	ldr	r3, [r7, #4]
    35b8:	705a      	strb	r2, [r3, #1]
    35ba:	370c      	adds	r7, #12
    35bc:	46bd      	mov	sp, r7
    35be:	f85d 7b04 	ldr.w	r7, [sp], #4
    35c2:	4770      	bx	lr

000035c4 <CLOCK_HAL_GetClkOutStat>:
    35c4:	b480      	push	{r7}
    35c6:	b083      	sub	sp, #12
    35c8:	af00      	add	r7, sp, #0
    35ca:	6078      	str	r0, [r7, #4]
    35cc:	687b      	ldr	r3, [r7, #4]
    35ce:	799b      	ldrb	r3, [r3, #6]
    35d0:	b2db      	uxtb	r3, r3
    35d2:	f003 030c 	and.w	r3, r3, #12
    35d6:	089b      	lsrs	r3, r3, #2
    35d8:	b2db      	uxtb	r3, r3
    35da:	4618      	mov	r0, r3
    35dc:	370c      	adds	r7, #12
    35de:	46bd      	mov	sp, r7
    35e0:	f85d 7b04 	ldr.w	r7, [sp], #4
    35e4:	4770      	bx	lr
    35e6:	bf00      	nop

000035e8 <CLOCK_HAL_SetPll0EnableCmd>:
    35e8:	b480      	push	{r7}
    35ea:	b083      	sub	sp, #12
    35ec:	af00      	add	r7, sp, #0
    35ee:	6078      	str	r0, [r7, #4]
    35f0:	460b      	mov	r3, r1
    35f2:	70fb      	strb	r3, [r7, #3]
    35f4:	687b      	ldr	r3, [r7, #4]
    35f6:	3304      	adds	r3, #4
    35f8:	f103 7304 	add.w	r3, r3, #34603008	; 0x2100000
    35fc:	015b      	lsls	r3, r3, #5
    35fe:	3318      	adds	r3, #24
    3600:	78fa      	ldrb	r2, [r7, #3]
    3602:	701a      	strb	r2, [r3, #0]
    3604:	370c      	adds	r7, #12
    3606:	46bd      	mov	sp, r7
    3608:	f85d 7b04 	ldr.w	r7, [sp], #4
    360c:	4770      	bx	lr
    360e:	bf00      	nop

00003610 <CLOCK_HAL_IsPll0Locked>:
    3610:	b480      	push	{r7}
    3612:	b083      	sub	sp, #12
    3614:	af00      	add	r7, sp, #0
    3616:	6078      	str	r0, [r7, #4]
    3618:	687b      	ldr	r3, [r7, #4]
    361a:	3306      	adds	r3, #6
    361c:	f103 7304 	add.w	r3, r3, #34603008	; 0x2100000
    3620:	015b      	lsls	r3, r3, #5
    3622:	3318      	adds	r3, #24
    3624:	781b      	ldrb	r3, [r3, #0]
    3626:	b2db      	uxtb	r3, r3
    3628:	2b00      	cmp	r3, #0
    362a:	bf0c      	ite	eq
    362c:	2300      	moveq	r3, #0
    362e:	2301      	movne	r3, #1
    3630:	b2db      	uxtb	r3, r3
    3632:	4618      	mov	r0, r3
    3634:	370c      	adds	r7, #12
    3636:	46bd      	mov	sp, r7
    3638:	f85d 7b04 	ldr.w	r7, [sp], #4
    363c:	4770      	bx	lr
    363e:	bf00      	nop

00003640 <CLOCK_HAL_IsPllSelected>:
    3640:	b480      	push	{r7}
    3642:	b083      	sub	sp, #12
    3644:	af00      	add	r7, sp, #0
    3646:	6078      	str	r0, [r7, #4]
    3648:	687b      	ldr	r3, [r7, #4]
    364a:	3306      	adds	r3, #6
    364c:	f103 7304 	add.w	r3, r3, #34603008	; 0x2100000
    3650:	015b      	lsls	r3, r3, #5
    3652:	3314      	adds	r3, #20
    3654:	781b      	ldrb	r3, [r3, #0]
    3656:	b2db      	uxtb	r3, r3
    3658:	2b00      	cmp	r3, #0
    365a:	bf0c      	ite	eq
    365c:	2300      	moveq	r3, #0
    365e:	2301      	movne	r3, #1
    3660:	b2db      	uxtb	r3, r3
    3662:	4618      	mov	r0, r3
    3664:	370c      	adds	r7, #12
    3666:	46bd      	mov	sp, r7
    3668:	f85d 7b04 	ldr.w	r7, [sp], #4
    366c:	4770      	bx	lr
    366e:	bf00      	nop

00003670 <CLOCK_HAL_SetPbeMode>:
    3670:	b580      	push	{r7, lr}
    3672:	b082      	sub	sp, #8
    3674:	af00      	add	r7, sp, #0
    3676:	6078      	str	r0, [r7, #4]
    3678:	70f9      	strb	r1, [r7, #3]
    367a:	70ba      	strb	r2, [r7, #2]
    367c:	707b      	strb	r3, [r7, #1]
    367e:	687b      	ldr	r3, [r7, #4]
    3680:	3301      	adds	r3, #1
    3682:	f103 7304 	add.w	r3, r3, #34603008	; 0x2100000
    3686:	015b      	lsls	r3, r3, #5
    3688:	3304      	adds	r3, #4
    368a:	2200      	movs	r2, #0
    368c:	701a      	strb	r2, [r3, #0]
    368e:	687b      	ldr	r3, [r7, #4]
    3690:	781b      	ldrb	r3, [r3, #0]
    3692:	b2db      	uxtb	r3, r3
    3694:	f003 033f 	and.w	r3, r3, #63	; 0x3f
    3698:	b2db      	uxtb	r3, r3
    369a:	f063 037f 	orn	r3, r3, #127	; 0x7f
    369e:	b2da      	uxtb	r2, r3
    36a0:	687b      	ldr	r3, [r7, #4]
    36a2:	701a      	strb	r2, [r3, #0]
    36a4:	bf00      	nop
    36a6:	6878      	ldr	r0, [r7, #4]
    36a8:	f7ff ff8c 	bl	35c4 <CLOCK_HAL_GetClkOutStat>
    36ac:	4603      	mov	r3, r0
    36ae:	2b02      	cmp	r3, #2
    36b0:	d1f9      	bne.n	36a6 <CLOCK_HAL_SetPbeMode+0x36>
    36b2:	78fb      	ldrb	r3, [r7, #3]
    36b4:	6878      	ldr	r0, [r7, #4]
    36b6:	4619      	mov	r1, r3
    36b8:	f7ff fcfc 	bl	30b4 <CLOCK_HAL_PrepareOsc>
    36bc:	6878      	ldr	r0, [r7, #4]
    36be:	2100      	movs	r1, #0
    36c0:	f7ff ff92 	bl	35e8 <CLOCK_HAL_SetPll0EnableCmd>
    36c4:	687b      	ldr	r3, [r7, #4]
    36c6:	3305      	adds	r3, #5
    36c8:	f103 7304 	add.w	r3, r3, #34603008	; 0x2100000
    36cc:	015b      	lsls	r3, r3, #5
    36ce:	3318      	adds	r3, #24
    36d0:	2200      	movs	r2, #0
    36d2:	701a      	strb	r2, [r3, #0]
    36d4:	bf00      	nop
    36d6:	6878      	ldr	r0, [r7, #4]
    36d8:	f7ff ffb2 	bl	3640 <CLOCK_HAL_IsPllSelected>
    36dc:	4603      	mov	r3, r0
    36de:	2b00      	cmp	r3, #0
    36e0:	d1f9      	bne.n	36d6 <CLOCK_HAL_SetPbeMode+0x66>
    36e2:	687b      	ldr	r3, [r7, #4]
    36e4:	791b      	ldrb	r3, [r3, #4]
    36e6:	b2db      	uxtb	r3, r3
    36e8:	f023 031f 	bic.w	r3, r3, #31
    36ec:	b2da      	uxtb	r2, r3
    36ee:	787b      	ldrb	r3, [r7, #1]
    36f0:	f003 031f 	and.w	r3, r3, #31
    36f4:	b2db      	uxtb	r3, r3
    36f6:	4313      	orrs	r3, r2
    36f8:	b2da      	uxtb	r2, r3
    36fa:	687b      	ldr	r3, [r7, #4]
    36fc:	711a      	strb	r2, [r3, #4]
    36fe:	687b      	ldr	r3, [r7, #4]
    3700:	795b      	ldrb	r3, [r3, #5]
    3702:	b2db      	uxtb	r3, r3
    3704:	f023 031f 	bic.w	r3, r3, #31
    3708:	b2da      	uxtb	r2, r3
    370a:	7c3b      	ldrb	r3, [r7, #16]
    370c:	f003 031f 	and.w	r3, r3, #31
    3710:	b2db      	uxtb	r3, r3
    3712:	4313      	orrs	r3, r2
    3714:	b2da      	uxtb	r2, r3
    3716:	687b      	ldr	r3, [r7, #4]
    3718:	715a      	strb	r2, [r3, #5]
    371a:	687b      	ldr	r3, [r7, #4]
    371c:	3305      	adds	r3, #5
    371e:	f103 7304 	add.w	r3, r3, #34603008	; 0x2100000
    3722:	015b      	lsls	r3, r3, #5
    3724:	3318      	adds	r3, #24
    3726:	2201      	movs	r2, #1
    3728:	701a      	strb	r2, [r3, #0]
    372a:	bf00      	nop
    372c:	6878      	ldr	r0, [r7, #4]
    372e:	f7ff ff87 	bl	3640 <CLOCK_HAL_IsPllSelected>
    3732:	4603      	mov	r3, r0
    3734:	f083 0301 	eor.w	r3, r3, #1
    3738:	b2db      	uxtb	r3, r3
    373a:	2b00      	cmp	r3, #0
    373c:	d1f6      	bne.n	372c <CLOCK_HAL_SetPbeMode+0xbc>
    373e:	bf00      	nop
    3740:	6878      	ldr	r0, [r7, #4]
    3742:	f7ff ff65 	bl	3610 <CLOCK_HAL_IsPll0Locked>
    3746:	4603      	mov	r3, r0
    3748:	f083 0301 	eor.w	r3, r3, #1
    374c:	b2db      	uxtb	r3, r3
    374e:	2b00      	cmp	r3, #0
    3750:	d1f6      	bne.n	3740 <CLOCK_HAL_SetPbeMode+0xd0>
    3752:	2300      	movs	r3, #0
    3754:	4618      	mov	r0, r3
    3756:	3708      	adds	r7, #8
    3758:	46bd      	mov	sp, r7
    375a:	bd80      	pop	{r7, pc}

0000375c <LPTMR_HAL_SetTimerWorkingMode>:
    375c:	b480      	push	{r7}
    375e:	b085      	sub	sp, #20
    3760:	af00      	add	r7, sp, #0
    3762:	6078      	str	r0, [r7, #4]
    3764:	6039      	str	r1, [r7, #0]
    3766:	687b      	ldr	r3, [r7, #4]
    3768:	681b      	ldr	r3, [r3, #0]
    376a:	60fb      	str	r3, [r7, #12]
    376c:	68fb      	ldr	r3, [r7, #12]
    376e:	f023 03be 	bic.w	r3, r3, #190	; 0xbe
    3772:	60fb      	str	r3, [r7, #12]
    3774:	783b      	ldrb	r3, [r7, #0]
    3776:	005b      	lsls	r3, r3, #1
    3778:	f003 0202 	and.w	r2, r3, #2
    377c:	787b      	ldrb	r3, [r7, #1]
    377e:	009b      	lsls	r3, r3, #2
    3780:	f003 0304 	and.w	r3, r3, #4
    3784:	431a      	orrs	r2, r3
    3786:	78bb      	ldrb	r3, [r7, #2]
    3788:	00db      	lsls	r3, r3, #3
    378a:	f003 0308 	and.w	r3, r3, #8
    378e:	431a      	orrs	r2, r3
    3790:	78fb      	ldrb	r3, [r7, #3]
    3792:	011b      	lsls	r3, r3, #4
    3794:	f003 0330 	and.w	r3, r3, #48	; 0x30
    3798:	4313      	orrs	r3, r2
    379a:	68fa      	ldr	r2, [r7, #12]
    379c:	4313      	orrs	r3, r2
    379e:	60fb      	str	r3, [r7, #12]
    37a0:	687b      	ldr	r3, [r7, #4]
    37a2:	68fa      	ldr	r2, [r7, #12]
    37a4:	601a      	str	r2, [r3, #0]
    37a6:	3714      	adds	r7, #20
    37a8:	46bd      	mov	sp, r7
    37aa:	f85d 7b04 	ldr.w	r7, [sp], #4
    37ae:	4770      	bx	lr

000037b0 <LPTMR_HAL_SetPrescalerMode>:
    37b0:	b480      	push	{r7}
    37b2:	b085      	sub	sp, #20
    37b4:	af00      	add	r7, sp, #0
    37b6:	6078      	str	r0, [r7, #4]
    37b8:	6039      	str	r1, [r7, #0]
    37ba:	787b      	ldrb	r3, [r7, #1]
    37bc:	f003 0203 	and.w	r2, r3, #3
    37c0:	783b      	ldrb	r3, [r7, #0]
    37c2:	009b      	lsls	r3, r3, #2
    37c4:	f003 0304 	and.w	r3, r3, #4
    37c8:	431a      	orrs	r2, r3
    37ca:	78bb      	ldrb	r3, [r7, #2]
    37cc:	00db      	lsls	r3, r3, #3
    37ce:	f003 0378 	and.w	r3, r3, #120	; 0x78
    37d2:	4313      	orrs	r3, r2
    37d4:	60fb      	str	r3, [r7, #12]
    37d6:	687b      	ldr	r3, [r7, #4]
    37d8:	68fa      	ldr	r2, [r7, #12]
    37da:	605a      	str	r2, [r3, #4]
    37dc:	3714      	adds	r7, #20
    37de:	46bd      	mov	sp, r7
    37e0:	f85d 7b04 	ldr.w	r7, [sp], #4
    37e4:	4770      	bx	lr
    37e6:	bf00      	nop

000037e8 <GPIO_HAL_SetPinDir>:
    37e8:	b580      	push	{r7, lr}
    37ea:	b084      	sub	sp, #16
    37ec:	af00      	add	r7, sp, #0
    37ee:	60f8      	str	r0, [r7, #12]
    37f0:	60b9      	str	r1, [r7, #8]
    37f2:	4613      	mov	r3, r2
    37f4:	71fb      	strb	r3, [r7, #7]
    37f6:	68bb      	ldr	r3, [r7, #8]
    37f8:	2b1f      	cmp	r3, #31
    37fa:	d905      	bls.n	3808 <GPIO_HAL_SetPinDir+0x20>
    37fc:	480f      	ldr	r0, [pc, #60]	; (383c <GPIO_HAL_SetPinDir+0x54>)
    37fe:	212e      	movs	r1, #46	; 0x2e
    3800:	4a0f      	ldr	r2, [pc, #60]	; (3840 <GPIO_HAL_SetPinDir+0x58>)
    3802:	4b10      	ldr	r3, [pc, #64]	; (3844 <GPIO_HAL_SetPinDir+0x5c>)
    3804:	f000 f846 	bl	3894 <__assert_func>
    3808:	79fb      	ldrb	r3, [r7, #7]
    380a:	2b01      	cmp	r3, #1
    380c:	d109      	bne.n	3822 <GPIO_HAL_SetPinDir+0x3a>
    380e:	68fb      	ldr	r3, [r7, #12]
    3810:	695a      	ldr	r2, [r3, #20]
    3812:	68bb      	ldr	r3, [r7, #8]
    3814:	2101      	movs	r1, #1
    3816:	fa01 f303 	lsl.w	r3, r1, r3
    381a:	431a      	orrs	r2, r3
    381c:	68fb      	ldr	r3, [r7, #12]
    381e:	615a      	str	r2, [r3, #20]
    3820:	e009      	b.n	3836 <GPIO_HAL_SetPinDir+0x4e>
    3822:	68fb      	ldr	r3, [r7, #12]
    3824:	695a      	ldr	r2, [r3, #20]
    3826:	68bb      	ldr	r3, [r7, #8]
    3828:	2101      	movs	r1, #1
    382a:	fa01 f303 	lsl.w	r3, r1, r3
    382e:	43db      	mvns	r3, r3
    3830:	401a      	ands	r2, r3
    3832:	68fb      	ldr	r3, [r7, #12]
    3834:	615a      	str	r2, [r3, #20]
    3836:	3710      	adds	r7, #16
    3838:	46bd      	mov	sp, r7
    383a:	bd80      	pop	{r7, pc}
    383c:	00004d2c 	andeq	r4, r0, ip, lsr #26
    3840:	00004f60 	andeq	r4, r0, r0, ror #30
    3844:	00004d68 	andeq	r4, r0, r8, ror #26

00003848 <GPIO_HAL_WritePinOutput>:
    3848:	b580      	push	{r7, lr}
    384a:	b084      	sub	sp, #16
    384c:	af00      	add	r7, sp, #0
    384e:	60f8      	str	r0, [r7, #12]
